opt subtitle "HI-TECH Software Omniscient Code Generator (Lite mode) build 6738"

opt pagewidth 120

	opt lm

	processor	16F876A
clrc	macro
	bcf	3,0
	endm
clrz	macro
	bcf	3,2
	endm
setc	macro
	bsf	3,0
	endm
setz	macro
	bsf	3,2
	endm
skipc	macro
	btfss	3,0
	endm
skipz	macro
	btfss	3,2
	endm
skipnc	macro
	btfsc	3,0
	endm
skipnz	macro
	btfsc	3,2
	endm
indf	equ	0
indf0	equ	0
pc	equ	2
pcl	equ	2
status	equ	3
fsr	equ	4
fsr0	equ	4
c	equ	1
z	equ	0
pclath	equ	10
# 5 "C:\Users\Phang\Desktop\9.80\PR 29\PR29.c"
	psect config,class=CONFIG,delta=2 ;#
# 5 "C:\Users\Phang\Desktop\9.80\PR 29\PR29.c"
	dw 0x3F32 ;#
	FNCALL	_main,_send_config
	FNCALL	_main,_lcd_clr
	FNCALL	_main,_lcd_goto
	FNCALL	_main,_send_string
	FNCALL	_main,_delay
	FNCALL	_main,_ResetAdmin
	FNCALL	_main,_send_cmd
	FNCALL	_main,_receive_reply_nodisplay
	FNCALL	_main,_uart_init
	FNCALL	_main,_init_attendance
	FNCALL	_main,_CheckAdmin
	FNCALL	_main,_send_char
	FNCALL	_main,_get_eeprom
	FNCALL	_main,_receive_reply
	FNCALL	_main,_store_eeprom
	FNCALL	_main,_mode
	FNCALL	_mode,_lcd_clr
	FNCALL	_mode,_store_eeprom
	FNCALL	_mode,_lcd_goto
	FNCALL	_mode,_send_string
	FNCALL	_mode,_send_char
	FNCALL	_mode,_delay
	FNCALL	_mode,_AddNew
	FNCALL	_mode,_send_cmd
	FNCALL	_mode,_receive_reply
	FNCALL	_mode,_CheckAdmin
	FNCALL	_mode,_view_attendance
	FNCALL	_mode,_clear_attendance
	FNCALL	_mode,_upload_GUI
	FNCALL	_mode,_upload_HT
	FNCALL	_ResetAdmin,_lcd_goto
	FNCALL	_ResetAdmin,_send_string
	FNCALL	_ResetAdmin,_delay
	FNCALL	_ResetAdmin,_send_cmd
	FNCALL	_ResetAdmin,_receive_reply
	FNCALL	_ResetAdmin,_AddNew
	FNCALL	_AddNew,_send_cmd
	FNCALL	_AddNew,_lcd_goto
	FNCALL	_AddNew,_send_string
	FNCALL	_AddNew,_delay
	FNCALL	_AddNew,_receive_reply
	FNCALL	_AddNew,_lcd_clr
	FNCALL	_CheckAdmin,_send_cmd
	FNCALL	_CheckAdmin,_lcd_goto
	FNCALL	_CheckAdmin,_send_string
	FNCALL	_CheckAdmin,_delay
	FNCALL	_CheckAdmin,_receive_reply
	FNCALL	_receive_reply,_uart_receive
	FNCALL	_receive_reply,_display_status
	FNCALL	_receive_reply,_delay
	FNCALL	_display_status,_lcd_clr
	FNCALL	_display_status,_lcd_goto
	FNCALL	_display_status,_send_string
	FNCALL	_display_status,_delay
	FNCALL	_display_status,_send_char
	FNCALL	_upload_HT,_uart_write
	FNCALL	_upload_HT,_allign
	FNCALL	_upload_HT,_get_eeprom
	FNCALL	_view_attendance,_lcd_clr
	FNCALL	_view_attendance,_lcd_goto
	FNCALL	_view_attendance,_send_string
	FNCALL	_view_attendance,_get_eeprom
	FNCALL	_view_attendance,_send_char
	FNCALL	_view_attendance,_delay
	FNCALL	_allign,_uart_write
	FNCALL	_upload_GUI,_get_eeprom
	FNCALL	_upload_GUI,_uart_write
	FNCALL	_send_string,_send_char
	FNCALL	_lcd_goto,_send_config
	FNCALL	_lcd_clr,_send_config
	FNCALL	_lcd_clr,_delay
	FNCALL	_clear_attendance,_store_eeprom
	FNCALL	_send_char,_delay
	FNCALL	_init_attendance,_store_eeprom
	FNCALL	_receive_reply_nodisplay,_uart_receive
	FNCALL	_send_cmd,_uart_send
	FNCALL	_send_config,_delay
	FNROOT	_main
	global	_DAY
	global	_day_count
	global	_location
	global	_mode_count
	global	upload_HT@F567
psect	idataBANK0,class=CODE,space=0,delta=2
global __pidataBANK0
__pidataBANK0:
	file	"C:\Users\Phang\Desktop\9.80\PR 29\PR29.c"
	line	66

;initializer for _DAY
	retlw	01h
	line	64

;initializer for _day_count
	retlw	01h
	line	63

;initializer for _location
	retlw	01h
	line	68

;initializer for _mode_count
	retlw	01h
psect	idataBANK1,class=CODE,space=0,delta=2
global __pidataBANK1
__pidataBANK1:
	line	969

;initializer for upload_HT@F567
	retlw	02Bh
	retlw	02Dh
	retlw	02Bh
	retlw	02Dh
	retlw	02Bh
	retlw	02Dh
	retlw	020h
	retlw	041h
	retlw	074h
	retlw	074h
	retlw	065h
	retlw	06Eh
	retlw	064h
	retlw	061h
	retlw	06Eh
	retlw	063h
	retlw	065h
	retlw	020h
	retlw	04Ch
	retlw	069h
	retlw	073h
	retlw	074h
	retlw	020h
	retlw	02Dh
	retlw	02Bh
	retlw	02Dh
	retlw	02Bh
	retlw	02Dh
	retlw	020h
	retlw	043h
	retlw	079h
	retlw	074h
	retlw	072h
	retlw	06Fh
	retlw	06Eh
	retlw	020h
	retlw	050h
	retlw	052h
	retlw	032h
	retlw	039h
	global	_array_resp
	global	_TEMP
	global	_day_location
	global	_dummy_byte
	global	_GUIcontrol
	global	_admin
	global	_day_enter
	global	_error
	global	_export_select
	global	_location_enter
	global	_mode_enter
	global	_usertype_enter
	global	_PORTB
_PORTB	set	6
	global	_RCREG
_RCREG	set	26
	global	_TXREG
_TXREG	set	25
	global	_CARRY
_CARRY	set	24
	global	_CREN
_CREN	set	196
	global	_GIE
_GIE	set	95
	global	_RA0
_RA0	set	40
	global	_RA1
_RA1	set	41
	global	_RA2
_RA2	set	42
	global	_RA3
_RA3	set	43
	global	_RA4
_RA4	set	44
	global	_RA5
_RA5	set	45
	global	_RC0
_RC0	set	56
	global	_RC1
_RC1	set	57
	global	_RC4
_RC4	set	60
	global	_RC5
_RC5	set	61
	global	_RCIF
_RCIF	set	101
	global	_SPEN
_SPEN	set	199
	global	_TXIF
_TXIF	set	100
	global	_ADCON1
_ADCON1	set	159
	global	_SPBRG
_SPBRG	set	153
	global	_TRISA
_TRISA	set	133
	global	_TRISB
_TRISB	set	134
	global	_TRISC
_TRISC	set	135
	global	_BRGH
_BRGH	set	1218
	global	_TRISC0
_TRISC0	set	1080
	global	_TRISC1
_TRISC1	set	1081
	global	_TXEN
_TXEN	set	1221
	global	_EEADR
_EEADR	set	269
	global	_EEDATA
_EEDATA	set	268
	global	_EECON1
_EECON1	set	396
	global	_EECON2
_EECON2	set	397
	global	_RD
_RD	set	3168
	global	_WR
_WR	set	3169
	global	_WREN
_WREN	set	3170
psect	strings,class=STRING,delta=2
global __pstrings
__pstrings:
;	global	stringtab,__stringbase
stringtab:
;	String table - string pointers are 2 bytes each
	btfsc	(btemp+1),7
	ljmp	stringcode
	bcf	status,7
	btfsc	(btemp+1),0
	bsf	status,7
	movf	indf,w
	incf fsr
skipnz
incf btemp+1
	return
stringcode:
	movf btemp+1,w
andlw 7Fh
movwf	pclath
	movf	fsr,w
incf fsr
skipnz
incf btemp+1
	movwf pc
__stringbase:
psect	stringtext,class=STRCODE,delta=2,reloc=256
global __pstringtext
__pstringtext:
	
STR_66:	
	retlw	82	;'R'
	retlw	101	;'e'
	retlw	115	;'s'
	retlw	101	;'e'
	retlw	116	;'t'
	retlw	116	;'t'
	retlw	105	;'i'
	retlw	110	;'n'
	retlw	103	;'g'
	retlw	32	;' '
	retlw	65	;'A'
	retlw	100	;'d'
	retlw	109	;'m'
	retlw	105	;'i'
	retlw	110	;'n'
	retlw	46	;'.'
	retlw	46	;'.'
	retlw	46	;'.'
	retlw	0
psect	stringtext
	
STR_41:	
	retlw	68	;'D'
	retlw	111	;'o'
	retlw	110	;'n'
	retlw	101	;'e'
	retlw	32	;' '
	retlw	32	;' '
	retlw	32	;' '
	retlw	32	;' '
	retlw	32	;' '
	retlw	32	;' '
	retlw	32	;' '
	retlw	32	;' '
	retlw	32	;' '
	retlw	32	;' '
	retlw	32	;' '
	retlw	32	;' '
	retlw	0
psect	stringtext
	
STR_14:	
	retlw	69	;'E'
	retlw	120	;'x'
	retlw	112	;'p'
	retlw	111	;'o'
	retlw	114	;'r'
	retlw	116	;'t'
	retlw	32	;' '
	retlw	32	;' '
	retlw	32	;' '
	retlw	32	;' '
	retlw	32	;' '
	retlw	32	;' '
	retlw	32	;' '
	retlw	32	;' '
	retlw	32	;' '
	retlw	32	;' '
	retlw	0
psect	stringtext
	
STR_37:	
	retlw	67	;'C'
	retlw	108	;'l'
	retlw	101	;'e'
	retlw	97	;'a'
	retlw	114	;'r'
	retlw	101	;'e'
	retlw	100	;'d'
	retlw	32	;' '
	retlw	32	;' '
	retlw	32	;' '
	retlw	32	;' '
	retlw	32	;' '
	retlw	32	;' '
	retlw	32	;' '
	retlw	32	;' '
	retlw	32	;' '
	retlw	0
psect	stringtext
	
STR_7:	
	retlw	83	;'S'
	retlw	101	;'e'
	retlw	116	;'t'
	retlw	32	;' '
	retlw	68	;'D'
	retlw	97	;'a'
	retlw	121	;'y'
	retlw	32	;' '
	retlw	32	;' '
	retlw	32	;' '
	retlw	32	;' '
	retlw	32	;' '
	retlw	32	;' '
	retlw	32	;' '
	retlw	32	;' '
	retlw	32	;' '
	retlw	0
psect	stringtext
	
STR_30:	
	retlw	83	;'S'
	retlw	116	;'t'
	retlw	97	;'a'
	retlw	110	;'n'
	retlw	100	;'d'
	retlw	98	;'b'
	retlw	121	;'y'
	retlw	32	;' '
	retlw	32	;' '
	retlw	32	;' '
	retlw	32	;' '
	retlw	32	;' '
	retlw	32	;' '
	retlw	32	;' '
	retlw	32	;' '
	retlw	32	;' '
	retlw	0
psect	stringtext
	
STR_29:	
	retlw	78	;'N'
	retlw	101	;'e'
	retlw	119	;'w'
	retlw	32	;' '
	retlw	65	;'A'
	retlw	100	;'d'
	retlw	109	;'m'
	retlw	105	;'i'
	retlw	110	;'n'
	retlw	32	;' '
	retlw	32	;' '
	retlw	32	;' '
	retlw	32	;' '
	retlw	32	;' '
	retlw	32	;' '
	retlw	32	;' '
	retlw	0
psect	stringtext
	
STR_36:	
	retlw	65	;'A'
	retlw	116	;'t'
	retlw	116	;'t'
	retlw	101	;'e'
	retlw	110	;'n'
	retlw	100	;'d'
	retlw	97	;'a'
	retlw	110	;'n'
	retlw	99	;'c'
	retlw	101	;'e'
	retlw	32	;' '
	retlw	32	;' '
	retlw	32	;' '
	retlw	32	;' '
	retlw	32	;' '
	retlw	32	;' '
	retlw	0
psect	stringtext
	
STR_44:	
	retlw	83	;'S'
	retlw	117	;'u'
	retlw	99	;'c'
	retlw	99	;'c'
	retlw	101	;'e'
	retlw	115	;'s'
	retlw	115	;'s'
	retlw	102	;'f'
	retlw	117	;'u'
	retlw	108	;'l'
	retlw	32	;' '
	retlw	32	;' '
	retlw	32	;' '
	retlw	32	;' '
	retlw	32	;' '
	retlw	32	;' '
	retlw	0
psect	stringtext
	
STR_45:	
	retlw	83	;'S'
	retlw	99	;'c'
	retlw	97	;'a'
	retlw	110	;'n'
	retlw	110	;'n'
	retlw	105	;'i'
	retlw	110	;'n'
	retlw	103	;'g'
	retlw	46	;'.'
	retlw	46	;'.'
	retlw	46	;'.'
	retlw	32	;' '
	retlw	32	;' '
	retlw	32	;' '
	retlw	32	;' '
	retlw	32	;' '
	retlw	0
psect	stringtext
	
STR_24:	
	retlw	67	;'C'
	retlw	104	;'h'
	retlw	111	;'o'
	retlw	111	;'o'
	retlw	115	;'s'
	retlw	101	;'e'
	retlw	32	;' '
	retlw	85	;'U'
	retlw	115	;'s'
	retlw	101	;'e'
	retlw	114	;'r'
	retlw	32	;' '
	retlw	32	;' '
	retlw	32	;' '
	retlw	32	;' '
	retlw	32	;' '
	retlw	0
psect	stringtext
	
STR_40:	
	retlw	85	;'U'
	retlw	112	;'p'
	retlw	108	;'l'
	retlw	111	;'o'
	retlw	97	;'a'
	retlw	100	;'d'
	retlw	105	;'i'
	retlw	110	;'n'
	retlw	103	;'g'
	retlw	46	;'.'
	retlw	46	;'.'
	retlw	46	;'.'
	retlw	32	;' '
	retlw	32	;' '
	retlw	32	;' '
	retlw	32	;' '
	retlw	0
psect	stringtext
	
STR_11:	
	retlw	67	;'C'
	retlw	104	;'h'
	retlw	97	;'a'
	retlw	110	;'n'
	retlw	103	;'g'
	retlw	101	;'e'
	retlw	32	;' '
	retlw	65	;'A'
	retlw	100	;'d'
	retlw	109	;'m'
	retlw	105	;'i'
	retlw	110	;'n'
	retlw	32	;' '
	retlw	32	;' '
	retlw	32	;' '
	retlw	32	;' '
	retlw	0
psect	stringtext
	
STR_32:	
	retlw	70	;'F'
	retlw	111	;'o'
	retlw	114	;'r'
	retlw	109	;'m'
	retlw	97	;'a'
	retlw	108	;'l'
	retlw	32	;' '
	retlw	65	;'A'
	retlw	100	;'d'
	retlw	109	;'m'
	retlw	105	;'i'
	retlw	110	;'n'
	retlw	32	;' '
	retlw	32	;' '
	retlw	32	;' '
	retlw	32	;' '
	retlw	0
psect	stringtext
	
STR_9:	
	retlw	68	;'D'
	retlw	101	;'e'
	retlw	108	;'l'
	retlw	101	;'e'
	retlw	116	;'t'
	retlw	101	;'e'
	retlw	32	;' '
	retlw	97	;'a'
	retlw	32	;' '
	retlw	68	;'D'
	retlw	97	;'a'
	retlw	116	;'t'
	retlw	97	;'a'
	retlw	32	;' '
	retlw	32	;' '
	retlw	32	;' '
	retlw	0
psect	stringtext
	
STR_4:	
	retlw	50	;'2'
	retlw	46	;'.'
	retlw	32	;' '
	retlw	85	;'U'
	retlw	115	;'s'
	retlw	101	;'e'
	retlw	114	;'r'
	retlw	32	;' '
	retlw	108	;'l'
	retlw	111	;'o'
	retlw	103	;'g'
	retlw	105	;'i'
	retlw	110	;'n'
	retlw	32	;' '
	retlw	32	;' '
	retlw	32	;' '
	retlw	0
psect	stringtext
	
STR_8:	
	retlw	65	;'A'
	retlw	100	;'d'
	retlw	100	;'d'
	retlw	32	;' '
	retlw	97	;'a'
	retlw	32	;' '
	retlw	78	;'N'
	retlw	101	;'e'
	retlw	119	;'w'
	retlw	32	;' '
	retlw	68	;'D'
	retlw	97	;'a'
	retlw	116	;'t'
	retlw	97	;'a'
	retlw	32	;' '
	retlw	32	;' '
	retlw	0
psect	stringtext
	
STR_3:	
	retlw	49	;'1'
	retlw	46	;'.'
	retlw	32	;' '
	retlw	65	;'A'
	retlw	100	;'d'
	retlw	109	;'m'
	retlw	105	;'i'
	retlw	110	;'n'
	retlw	32	;' '
	retlw	108	;'l'
	retlw	111	;'o'
	retlw	103	;'g'
	retlw	105	;'i'
	retlw	110	;'n'
	retlw	32	;' '
	retlw	32	;' '
	retlw	0
psect	stringtext
	
STR_23:	
	retlw	80	;'P'
	retlw	114	;'r'
	retlw	101	;'e'
	retlw	115	;'s'
	retlw	115	;'s'
	retlw	32	;' '
	retlw	51	;'3'
	retlw	32	;' '
	retlw	116	;'t'
	retlw	111	;'o'
	retlw	32	;' '
	retlw	115	;'s'
	retlw	101	;'e'
	retlw	116	;'t'
	retlw	32	;' '
	retlw	32	;' '
	retlw	0
psect	stringtext
	
STR_39:	
	retlw	50	;'2'
	retlw	46	;'.'
	retlw	32	;' '
	retlw	69	;'E'
	retlw	120	;'x'
	retlw	112	;'p'
	retlw	111	;'o'
	retlw	114	;'r'
	retlw	116	;'t'
	retlw	32	;' '
	retlw	116	;'t'
	retlw	111	;'o'
	retlw	32	;' '
	retlw	72	;'H'
	retlw	84	;'T'
	retlw	32	;' '
	retlw	0
psect	stringtext
	
STR_10:	
	retlw	68	;'D'
	retlw	101	;'e'
	retlw	108	;'l'
	retlw	101	;'e'
	retlw	116	;'t'
	retlw	101	;'e'
	retlw	32	;' '
	retlw	65	;'A'
	retlw	108	;'l'
	retlw	108	;'l'
	retlw	32	;' '
	retlw	68	;'D'
	retlw	97	;'a'
	retlw	116	;'t'
	retlw	97	;'a'
	retlw	32	;' '
	retlw	0
psect	stringtext
	
STR_12:	
	retlw	86	;'V'
	retlw	105	;'i'
	retlw	101	;'e'
	retlw	119	;'w'
	retlw	32	;' '
	retlw	65	;'A'
	retlw	116	;'t'
	retlw	116	;'t'
	retlw	101	;'e'
	retlw	110	;'n'
	retlw	100	;'d'
	retlw	97	;'a'
	retlw	110	;'n'
	retlw	99	;'c'
	retlw	101	;'e'
	retlw	32	;' '
	retlw	0
psect	stringtext
	
STR_31:	
	retlw	86	;'V'
	retlw	101	;'e'
	retlw	114	;'r'
	retlw	105	;'i'
	retlw	102	;'f'
	retlw	105	;'i'
	retlw	99	;'c'
	retlw	97	;'a'
	retlw	116	;'t'
	retlw	105	;'i'
	retlw	111	;'o'
	retlw	110	;'n'
	retlw	32	;' '
	retlw	111	;'o'
	retlw	102	;'f'
	retlw	32	;' '
	retlw	0
psect	stringtext
	
STR_16:	
	retlw	80	;'P'
	retlw	114	;'r'
	retlw	101	;'e'
	retlw	115	;'s'
	retlw	115	;'s'
	retlw	32	;' '
	retlw	51	;'3'
	retlw	32	;' '
	retlw	116	;'t'
	retlw	111	;'o'
	retlw	32	;' '
	retlw	109	;'m'
	retlw	97	;'a'
	retlw	114	;'r'
	retlw	107	;'k'
	retlw	32	;' '
	retlw	0
psect	stringtext
	
STR_46:	
	retlw	86	;'V'
	retlw	101	;'e'
	retlw	114	;'r'
	retlw	105	;'i'
	retlw	102	;'f'
	retlw	105	;'i'
	retlw	99	;'c'
	retlw	97	;'a'
	retlw	116	;'t'
	retlw	105	;'i'
	retlw	111	;'o'
	retlw	110	;'n'
	retlw	32	;' '
	retlw	49	;'1'
	retlw	47	;'/'
	retlw	50	;'2'
	retlw	0
psect	stringtext
	
STR_48:	
	retlw	86	;'V'
	retlw	101	;'e'
	retlw	114	;'r'
	retlw	105	;'i'
	retlw	102	;'f'
	retlw	105	;'i'
	retlw	99	;'c'
	retlw	97	;'a'
	retlw	116	;'t'
	retlw	105	;'i'
	retlw	111	;'o'
	retlw	110	;'n'
	retlw	32	;' '
	retlw	50	;'2'
	retlw	47	;'/'
	retlw	50	;'2'
	retlw	0
psect	stringtext
	
STR_38:	
	retlw	49	;'1'
	retlw	46	;'.'
	retlw	32	;' '
	retlw	69	;'E'
	retlw	120	;'x'
	retlw	112	;'p'
	retlw	111	;'o'
	retlw	114	;'r'
	retlw	116	;'t'
	retlw	32	;' '
	retlw	116	;'t'
	retlw	111	;'o'
	retlw	32	;' '
	retlw	71	;'G'
	retlw	85	;'U'
	retlw	73	;'I'
	retlw	0
psect	stringtext
	
STR_17:	
	retlw	80	;'P'
	retlw	108	;'l'
	retlw	97	;'a'
	retlw	99	;'c'
	retlw	101	;'e'
	retlw	32	;' '
	retlw	121	;'y'
	retlw	111	;'o'
	retlw	117	;'u'
	retlw	114	;'r'
	retlw	32	;' '
	retlw	116	;'t'
	retlw	104	;'h'
	retlw	117	;'u'
	retlw	109	;'m'
	retlw	98	;'b'
	retlw	0
psect	stringtext
	
STR_28:	
	retlw	78	;'N'
	retlw	101	;'e'
	retlw	119	;'w'
	retlw	32	;' '
	retlw	65	;'A'
	retlw	100	;'d'
	retlw	109	;'m'
	retlw	105	;'i'
	retlw	110	;'n'
	retlw	32	;' '
	retlw	78	;'N'
	retlw	101	;'e'
	retlw	101	;'e'
	retlw	100	;'d'
	retlw	101	;'e'
	retlw	100	;'d'
	retlw	0
psect	stringtext
	
STR_13:	
	retlw	67	;'C'
	retlw	108	;'l'
	retlw	101	;'e'
	retlw	97	;'a'
	retlw	114	;'r'
	retlw	32	;' '
	retlw	65	;'A'
	retlw	116	;'t'
	retlw	116	;'t'
	retlw	101	;'e'
	retlw	110	;'n'
	retlw	100	;'d'
	retlw	97	;'a'
	retlw	110	;'n'
	retlw	99	;'c'
	retlw	101	;'e'
	retlw	0
psect	stringtext
	
STR_65:	
	retlw	85	;'U'
	retlw	115	;'s'
	retlw	101	;'e'
	retlw	114	;'r'
	retlw	32	;' '
	retlw	49	;'1'
	retlw	32	;' '
	retlw	50	;'2'
	retlw	32	;' '
	retlw	51	;'3'
	retlw	32	;' '
	retlw	52	;'4'
	retlw	32	;' '
	retlw	53	;'5'
	retlw	32	;' '
	retlw	0
psect	stringtext
	
STR_15:	
	retlw	84	;'T'
	retlw	111	;'o'
	retlw	100	;'d'
	retlw	97	;'a'
	retlw	121	;'y'
	retlw	32	;' '
	retlw	105	;'i'
	retlw	115	;'s'
	retlw	32	;' '
	retlw	68	;'D'
	retlw	97	;'a'
	retlw	121	;'y'
	retlw	32	;' '
	retlw	0
psect	stringtext
	
STR_52:	
	retlw	65	;'A'
	retlw	99	;'c'
	retlw	99	;'c'
	retlw	101	;'e'
	retlw	115	;'s'
	retlw	115	;'s'
	retlw	32	;' '
	retlw	68	;'D'
	retlw	101	;'e'
	retlw	110	;'n'
	retlw	105	;'i'
	retlw	101	;'e'
	retlw	100	;'d'
	retlw	0
psect	stringtext
	
STR_18:	
	retlw	111	;'o'
	retlw	110	;'n'
	retlw	32	;' '
	retlw	116	;'t'
	retlw	104	;'h'
	retlw	101	;'e'
	retlw	32	;' '
	retlw	119	;'w'
	retlw	105	;'i'
	retlw	110	;'n'
	retlw	100	;'d'
	retlw	111	;'o'
	retlw	119	;'w'
	retlw	0
psect	stringtext
	
STR_1:	
	retlw	67	;'C'
	retlw	121	;'y'
	retlw	116	;'t'
	retlw	114	;'r'
	retlw	111	;'o'
	retlw	110	;'n'
	retlw	32	;' '
	retlw	84	;'T'
	retlw	101	;'e'
	retlw	99	;'c'
	retlw	104	;'h'
	retlw	46	;'.'
	retlw	0
psect	stringtext
	
STR_53:	
	retlw	72	;'H'
	retlw	101	;'e'
	retlw	108	;'l'
	retlw	108	;'l'
	retlw	111	;'o'
	retlw	32	;' '
	retlw	85	;'U'
	retlw	115	;'s'
	retlw	101	;'e'
	retlw	114	;'r'
	retlw	32	;' '
	retlw	0
psect	stringtext
	
STR_33:	
	retlw	68	;'D'
	retlw	101	;'e'
	retlw	108	;'l'
	retlw	101	;'e'
	retlw	116	;'t'
	retlw	105	;'i'
	retlw	110	;'n'
	retlw	103	;'g'
	retlw	46	;'.'
	retlw	46	;'.'
	retlw	46	;'.'
	retlw	0
psect	stringtext
	
STR_55:	
	retlw	72	;'H'
	retlw	101	;'e'
	retlw	108	;'l'
	retlw	108	;'l'
	retlw	111	;'o'
	retlw	32	;' '
	retlw	65	;'A'
	retlw	100	;'d'
	retlw	109	;'m'
	retlw	105	;'i'
	retlw	110	;'n'
	retlw	0
psect	stringtext
	
STR_51:	
	retlw	85	;'U'
	retlw	115	;'s'
	retlw	101	;'e'
	retlw	114	;'r'
	retlw	32	;' '
	retlw	69	;'E'
	retlw	120	;'x'
	retlw	105	;'i'
	retlw	115	;'s'
	retlw	116	;'t'
	retlw	0
psect	stringtext
	
STR_20:	
	retlw	83	;'S'
	retlw	101	;'e'
	retlw	108	;'l'
	retlw	101	;'e'
	retlw	99	;'c'
	retlw	116	;'t'
	retlw	101	;'e'
	retlw	100	;'d'
	retlw	0
psect	stringtext
	
STR_54:	
	retlw	87	;'W'
	retlw	101	;'e'
	retlw	108	;'l'
	retlw	99	;'c'
	retlw	111	;'o'
	retlw	109	;'m'
	retlw	101	;'e'
	retlw	0
psect	stringtext
	
STR_50:	
	retlw	84	;'T'
	retlw	105	;'i'
	retlw	109	;'m'
	retlw	101	;'e'
	retlw	111	;'o'
	retlw	117	;'u'
	retlw	116	;'t'
	retlw	0
psect	stringtext
	
STR_69:	
	retlw	83	;'S'
	retlw	116	;'t'
	retlw	97	;'a'
	retlw	110	;'n'
	retlw	100	;'d'
	retlw	98	;'b'
	retlw	121	;'y'
	retlw	0
psect	stringtext
	
STR_5:	
	retlw	77	;'M'
	retlw	111	;'o'
	retlw	100	;'d'
	retlw	101	;'e'
	retlw	61	;'='
	retlw	32	;' '
	retlw	0
psect	stringtext
	
STR_49:	
	retlw	70	;'F'
	retlw	97	;'a'
	retlw	105	;'i'
	retlw	108	;'l'
	retlw	101	;'e'
	retlw	100	;'d'
	retlw	0
psect	stringtext
	
STR_2:	
	retlw	80	;'P'
	retlw	82	;'R'
	retlw	32	;' '
	retlw	50	;'2'
	retlw	57	;'9'
	retlw	0
psect	stringtext
	
STR_56:	
	retlw	69	;'E'
	retlw	114	;'r'
	retlw	114	;'r'
	retlw	111	;'o'
	retlw	114	;'r'
	retlw	0
psect	stringtext
	
STR_22:	
	retlw	47	;'/'
	retlw	53	;'5'
	retlw	0
psect	stringtext
	
STR_6:	
	retlw	47	;'/'
	retlw	56	;'8'
	retlw	0
psect	stringtext
STR_58	equ	STR_18+0
STR_60	equ	STR_18+0
STR_67	equ	STR_28+0
STR_57	equ	STR_17+0
STR_59	equ	STR_17+0
STR_64	equ	STR_48+0
STR_62	equ	STR_46+0
STR_21	equ	STR_15+0
STR_19	equ	STR_15+9
STR_25	equ	STR_53+6
STR_27	equ	STR_53+6
STR_42	equ	STR_40+0
STR_26	equ	STR_24+0
STR_47	equ	STR_45+0
STR_61	equ	STR_45+0
STR_63	equ	STR_45+0
STR_34	equ	STR_29+0
STR_68	equ	STR_29+0
STR_35	equ	STR_30+0
STR_43	equ	STR_41+0
	file	"PR 29.as"
	line	#
psect cinit,class=CODE,delta=2
global start_initialization
start_initialization:

psect	bitbssBANK0,class=BANK0,bit,space=1
global __pbitbssBANK0
__pbitbssBANK0:
_GUIcontrol:
       ds      1

_admin:
       ds      1

_day_enter:
       ds      1

_error:
       ds      1

_export_select:
       ds      1

_location_enter:
       ds      1

_mode_enter:
       ds      1

_usertype_enter:
       ds      1

psect	bssBANK0,class=BANK0,space=1
global __pbssBANK0
__pbssBANK0:
_array_resp:
       ds      8

_TEMP:
       ds      1

_day_location:
       ds      1

_dummy_byte:
       ds      1

psect	dataBANK0,class=BANK0,space=1
global __pdataBANK0
__pdataBANK0:
	file	"C:\Users\Phang\Desktop\9.80\PR 29\PR29.c"
	line	66
_DAY:
       ds      1

psect	dataBANK0
	file	"C:\Users\Phang\Desktop\9.80\PR 29\PR29.c"
	line	64
_day_count:
       ds      1

psect	dataBANK0
	file	"C:\Users\Phang\Desktop\9.80\PR 29\PR29.c"
	line	63
_location:
       ds      1

psect	dataBANK0
	file	"C:\Users\Phang\Desktop\9.80\PR 29\PR29.c"
	line	68
_mode_count:
       ds      1

psect	dataBANK1,class=BANK1,space=1
global __pdataBANK1
__pdataBANK1:
	file	"C:\Users\Phang\Desktop\9.80\PR 29\PR29.c"
	line	969
upload_HT@F567:
       ds      40

; Clear objects allocated to BITBANK0
psect cinit,class=CODE,delta=2
	clrf	((__pbitbssBANK0/8)+0)&07Fh
; Clear objects allocated to BANK0
psect cinit,class=CODE,delta=2
	clrf	((__pbssBANK0)+0)&07Fh
	clrf	((__pbssBANK0)+1)&07Fh
	clrf	((__pbssBANK0)+2)&07Fh
	clrf	((__pbssBANK0)+3)&07Fh
	clrf	((__pbssBANK0)+4)&07Fh
	clrf	((__pbssBANK0)+5)&07Fh
	clrf	((__pbssBANK0)+6)&07Fh
	clrf	((__pbssBANK0)+7)&07Fh
	clrf	((__pbssBANK0)+8)&07Fh
	clrf	((__pbssBANK0)+9)&07Fh
	clrf	((__pbssBANK0)+10)&07Fh
global btemp
psect inittext,class=CODE,delta=2
global init_fetch,btemp
;	Called with low address in FSR and high address in W
init_fetch:
	movf btemp,w
	movwf pclath
	movf btemp+1,w
	movwf pc
global init_ram
;Called with:
;	high address of idata address in btemp 
;	low address of idata address in btemp+1 
;	low address of data in FSR
;	high address + 1 of data in btemp-1
init_ram:
	fcall init_fetch
	movwf indf,f
	incf fsr,f
	movf fsr,w
	xorwf btemp-1,w
	btfsc status,2
	retlw 0
	incf btemp+1,f
	btfsc status,2
	incf btemp,f
	goto init_ram
; Initialize objects allocated to BANK1
psect cinit,class=CODE,delta=2
global init_ram, __pidataBANK1
	bcf	status, 7	;select IRP bank0
	movlw low(__pdataBANK1+40)
	movwf btemp-1,f
	movlw high(__pidataBANK1)
	movwf btemp,f
	movlw low(__pidataBANK1)
	movwf btemp+1,f
	movlw low(__pdataBANK1)
	movwf fsr,f
	fcall init_ram
; Initialize objects allocated to BANK0
psect cinit,class=CODE,delta=2
global init_ram, __pidataBANK0
	movlw low(__pdataBANK0+4)
	movwf btemp-1,f
	movlw high(__pidataBANK0)
	movwf btemp,f
	movlw low(__pidataBANK0)
	movwf btemp+1,f
	movlw low(__pdataBANK0)
	movwf fsr,f
	fcall init_ram
psect cinit,class=CODE,delta=2
global end_of_initialization

;End of C runtime variable initialization code

end_of_initialization:
clrf status
ljmp _main	;jump to C main() function
psect	cstackCOMMON,class=COMMON,space=1
global __pcstackCOMMON
__pcstackCOMMON:
	global	?_send_config
?_send_config:	; 0 bytes @ 0x0
	global	?_lcd_clr
?_lcd_clr:	; 0 bytes @ 0x0
	global	?_lcd_goto
?_lcd_goto:	; 0 bytes @ 0x0
	global	?_delay
?_delay:	; 0 bytes @ 0x0
	global	?_ResetAdmin
?_ResetAdmin:	; 0 bytes @ 0x0
	global	?_receive_reply_nodisplay
?_receive_reply_nodisplay:	; 0 bytes @ 0x0
	global	?_uart_init
?_uart_init:	; 0 bytes @ 0x0
	global	??_uart_init
??_uart_init:	; 0 bytes @ 0x0
	global	?_init_attendance
?_init_attendance:	; 0 bytes @ 0x0
	global	?_CheckAdmin
?_CheckAdmin:	; 0 bytes @ 0x0
	global	?_send_char
?_send_char:	; 0 bytes @ 0x0
	global	??_get_eeprom
??_get_eeprom:	; 0 bytes @ 0x0
	global	?_receive_reply
?_receive_reply:	; 0 bytes @ 0x0
	global	?_store_eeprom
?_store_eeprom:	; 0 bytes @ 0x0
	global	?_mode
?_mode:	; 0 bytes @ 0x0
	global	?_AddNew
?_AddNew:	; 0 bytes @ 0x0
	global	?_view_attendance
?_view_attendance:	; 0 bytes @ 0x0
	global	?_clear_attendance
?_clear_attendance:	; 0 bytes @ 0x0
	global	?_upload_GUI
?_upload_GUI:	; 0 bytes @ 0x0
	global	?_upload_HT
?_upload_HT:	; 0 bytes @ 0x0
	global	?_uart_write
?_uart_write:	; 0 bytes @ 0x0
	global	?_allign
?_allign:	; 0 bytes @ 0x0
	global	?_main
?_main:	; 0 bytes @ 0x0
	global	?_uart_send
?_uart_send:	; 0 bytes @ 0x0
	global	??_uart_send
??_uart_send:	; 0 bytes @ 0x0
	global	??_uart_receive
??_uart_receive:	; 0 bytes @ 0x0
	global	?_get_eeprom
?_get_eeprom:	; 1 bytes @ 0x0
	global	?_uart_receive
?_uart_receive:	; 1 bytes @ 0x0
	global	uart_send@data
uart_send@data:	; 1 bytes @ 0x0
	global	store_eeprom@location
store_eeprom@location:	; 1 bytes @ 0x0
	global	uart_init@channel
uart_init@channel:	; 1 bytes @ 0x0
	global	uart_write@data
uart_write@data:	; 1 bytes @ 0x0
	global	delay@data
delay@data:	; 4 bytes @ 0x0
	ds	1
	global	?_send_cmd
?_send_cmd:	; 0 bytes @ 0x1
	global	??_store_eeprom
??_store_eeprom:	; 0 bytes @ 0x1
	global	??_uart_write
??_uart_write:	; 0 bytes @ 0x1
	global	send_cmd@P1
send_cmd@P1:	; 1 bytes @ 0x1
	global	uart_receive@rec_data
uart_receive@rec_data:	; 1 bytes @ 0x1
	global	get_eeprom@location
get_eeprom@location:	; 1 bytes @ 0x1
	ds	1
	global	??_receive_reply_nodisplay
??_receive_reply_nodisplay:	; 0 bytes @ 0x2
	global	send_cmd@P2
send_cmd@P2:	; 1 bytes @ 0x2
	global	store_eeprom@data
store_eeprom@data:	; 1 bytes @ 0x2
	global	get_eeprom@value
get_eeprom@value:	; 1 bytes @ 0x2
	ds	1
	global	??_init_attendance
??_init_attendance:	; 0 bytes @ 0x3
	global	??_clear_attendance
??_clear_attendance:	; 0 bytes @ 0x3
	global	send_cmd@P3
send_cmd@P3:	; 1 bytes @ 0x3
	global	receive_reply_nodisplay@i
receive_reply_nodisplay@i:	; 1 bytes @ 0x3
	global	uart_write@channel
uart_write@channel:	; 1 bytes @ 0x3
	ds	1
	global	??_delay
??_delay:	; 0 bytes @ 0x4
	global	??_send_cmd
??_send_cmd:	; 0 bytes @ 0x4
	global	uart_write@i
uart_write@i:	; 1 bytes @ 0x4
	ds	1
	global	??_upload_GUI
??_upload_GUI:	; 0 bytes @ 0x5
	global	??_allign
??_allign:	; 0 bytes @ 0x5
	global	send_cmd@CHK
send_cmd@CHK:	; 1 bytes @ 0x5
	ds	1
	global	send_cmd@CMD
send_cmd@CMD:	; 1 bytes @ 0x6
	global	allign@Allign
allign@Allign:	; 1 bytes @ 0x6
	ds	1
	global	??_upload_HT
??_upload_HT:	; 0 bytes @ 0x7
	ds	1
	global	??_send_config
??_send_config:	; 0 bytes @ 0x8
	global	??_send_char
??_send_char:	; 0 bytes @ 0x8
	global	send_config@data
send_config@data:	; 1 bytes @ 0x8
	global	send_char@data
send_char@data:	; 1 bytes @ 0x8
	global	upload_GUI@address
upload_GUI@address:	; 1 bytes @ 0x8
	ds	1
	global	??_lcd_clr
??_lcd_clr:	; 0 bytes @ 0x9
	global	??_lcd_goto
??_lcd_goto:	; 0 bytes @ 0x9
	global	?_send_string
?_send_string:	; 0 bytes @ 0x9
	global	upload_GUI@count
upload_GUI@count:	; 1 bytes @ 0x9
	global	send_string@s
send_string@s:	; 2 bytes @ 0x9
	ds	1
	global	lcd_goto@data
lcd_goto@data:	; 1 bytes @ 0xA
	ds	1
	global	??_send_string
??_send_string:	; 0 bytes @ 0xB
	global	send_string@i
send_string@i:	; 1 bytes @ 0xB
	ds	1
	global	??_view_attendance
??_view_attendance:	; 0 bytes @ 0xC
	global	?_display_status
?_display_status:	; 0 bytes @ 0xC
	global	display_status@data0
display_status@data0:	; 1 bytes @ 0xC
	ds	1
	global	display_status@data
display_status@data:	; 1 bytes @ 0xD
	global	view_attendance@x
view_attendance@x:	; 1 bytes @ 0xD
	ds	1
	global	??_display_status
??_display_status:	; 0 bytes @ 0xE
psect	cstackBANK0,class=BANK0,space=1
global __pcstackBANK0
__pcstackBANK0:
	global	display_status@type
display_status@type:	; 1 bytes @ 0x0
	global	upload_HT@array_title
upload_HT@array_title:	; 40 bytes @ 0x0
	ds	1
	global	??_receive_reply
??_receive_reply:	; 0 bytes @ 0x1
	ds	2
	global	receive_reply@i
receive_reply@i:	; 1 bytes @ 0x3
	ds	1
	global	??_CheckAdmin
??_CheckAdmin:	; 0 bytes @ 0x4
	global	??_AddNew
??_AddNew:	; 0 bytes @ 0x4
	ds	2
	global	AddNew@data
AddNew@data:	; 1 bytes @ 0x6
	ds	1
	global	??_ResetAdmin
??_ResetAdmin:	; 0 bytes @ 0x7
	ds	33
	global	upload_HT@address
upload_HT@address:	; 1 bytes @ 0x28
	ds	1
	global	upload_HT@count
upload_HT@count:	; 1 bytes @ 0x29
	ds	1
	global	??_mode
??_mode:	; 0 bytes @ 0x2A
	ds	2
	global	mode@data
mode@data:	; 1 bytes @ 0x2C
	ds	1
	global	??_main
??_main:	; 0 bytes @ 0x2D
	ds	1
;;Data sizes: Strings 695, constant 0, data 44, bss 11, persistent 0 stack 0
;;Auto spaces:   Size  Autos    Used
;; COMMON          14     14      14
;; BANK0           80     46      62
;; BANK1           80      0      40
;; BANK3           96      0       0
;; BANK2           96      0       0

;;
;; Pointer list with targets:

;; send_string@s	PTR const unsigned char  size(2) Largest target is 19
;;		 -> STR_69(CODE[8]), STR_68(CODE[17]), STR_67(CODE[17]), STR_66(CODE[19]), 
;;		 -> STR_65(CODE[16]), STR_64(CODE[17]), STR_63(CODE[17]), STR_62(CODE[17]), 
;;		 -> STR_61(CODE[17]), STR_60(CODE[14]), STR_59(CODE[17]), STR_58(CODE[14]), 
;;		 -> STR_57(CODE[17]), STR_56(CODE[6]), STR_55(CODE[12]), STR_54(CODE[8]), 
;;		 -> STR_53(CODE[12]), STR_52(CODE[14]), STR_51(CODE[11]), STR_50(CODE[8]), 
;;		 -> STR_49(CODE[7]), STR_48(CODE[17]), STR_47(CODE[17]), STR_46(CODE[17]), 
;;		 -> STR_45(CODE[17]), STR_44(CODE[17]), STR_43(CODE[17]), STR_42(CODE[17]), 
;;		 -> STR_41(CODE[17]), STR_40(CODE[17]), STR_39(CODE[17]), STR_38(CODE[17]), 
;;		 -> STR_37(CODE[17]), STR_36(CODE[17]), STR_35(CODE[17]), STR_34(CODE[17]), 
;;		 -> STR_33(CODE[12]), STR_32(CODE[17]), STR_31(CODE[17]), STR_30(CODE[17]), 
;;		 -> STR_29(CODE[17]), STR_28(CODE[17]), STR_27(CODE[6]), STR_26(CODE[17]), 
;;		 -> STR_25(CODE[6]), STR_24(CODE[17]), STR_23(CODE[17]), STR_22(CODE[3]), 
;;		 -> STR_21(CODE[14]), STR_20(CODE[9]), STR_19(CODE[5]), STR_18(CODE[14]), 
;;		 -> STR_17(CODE[17]), STR_16(CODE[17]), STR_15(CODE[14]), STR_14(CODE[17]), 
;;		 -> STR_13(CODE[17]), STR_12(CODE[17]), STR_11(CODE[17]), STR_10(CODE[17]), 
;;		 -> STR_9(CODE[17]), STR_8(CODE[17]), STR_7(CODE[17]), STR_6(CODE[3]), 
;;		 -> STR_5(CODE[7]), STR_4(CODE[17]), STR_3(CODE[17]), STR_2(CODE[6]), 
;;		 -> STR_1(CODE[13]), 
;;


;;
;; Critical Paths under _main in COMMON
;;
;;   _mode->_view_attendance
;;   _receive_reply->_display_status
;;   _display_status->_send_string
;;   _upload_HT->_allign
;;   _view_attendance->_send_string
;;   _allign->_uart_write
;;   _upload_GUI->_uart_write
;;   _send_string->_send_char
;;   _lcd_goto->_send_config
;;   _lcd_clr->_send_config
;;   _clear_attendance->_store_eeprom
;;   _send_char->_delay
;;   _init_attendance->_store_eeprom
;;   _receive_reply_nodisplay->_uart_receive
;;   _send_cmd->_uart_send
;;   _send_config->_delay
;;
;; Critical Paths under _main in BANK0
;;
;;   _main->_mode
;;   _mode->_upload_HT
;;   _ResetAdmin->_AddNew
;;   _AddNew->_receive_reply
;;   _CheckAdmin->_receive_reply
;;   _receive_reply->_display_status
;;
;; Critical Paths under _main in BANK1
;;
;;   None.
;;
;; Critical Paths under _main in BANK3
;;
;;   None.
;;
;; Critical Paths under _main in BANK2
;;
;;   None.

;;
;;Main: autosize = 0, tempsize = 1, incstack = 0, save=0
;;

;;
;;Call Graph Tables:
;;
;; ---------------------------------------------------------------------------------
;; (Depth) Function   	        Calls       Base Space   Used Autos Params    Refs
;; ---------------------------------------------------------------------------------
;; (0) _main                                                 1     1      0   14757
;;                                             45 BANK0      1     1      0
;;                        _send_config
;;                            _lcd_clr
;;                           _lcd_goto
;;                        _send_string
;;                              _delay
;;                         _ResetAdmin
;;                           _send_cmd
;;            _receive_reply_nodisplay
;;                          _uart_init
;;                    _init_attendance
;;                         _CheckAdmin
;;                          _send_char
;;                         _get_eeprom
;;                      _receive_reply
;;                       _store_eeprom
;;                               _mode
;; ---------------------------------------------------------------------------------
;; (1) _mode                                                 3     3      0    8639
;;                                             42 BANK0      3     3      0
;;                            _lcd_clr
;;                       _store_eeprom
;;                           _lcd_goto
;;                        _send_string
;;                          _send_char
;;                              _delay
;;                             _AddNew
;;                           _send_cmd
;;                      _receive_reply
;;                         _CheckAdmin
;;                    _view_attendance
;;                   _clear_attendance
;;                         _upload_GUI
;;                          _upload_HT
;; ---------------------------------------------------------------------------------
;; (1) _ResetAdmin                                           1     1      0    2902
;;                                              7 BANK0      1     1      0
;;                           _lcd_goto
;;                        _send_string
;;                              _delay
;;                           _send_cmd
;;                      _receive_reply
;;                             _AddNew
;; ---------------------------------------------------------------------------------
;; (2) _AddNew                                               3     3      0    1540
;;                                              4 BANK0      3     3      0
;;                           _send_cmd
;;                           _lcd_goto
;;                        _send_string
;;                              _delay
;;                      _receive_reply
;;                            _lcd_clr
;; ---------------------------------------------------------------------------------
;; (2) _CheckAdmin                                           1     1      0    1362
;;                                              4 BANK0      1     1      0
;;                           _send_cmd
;;                           _lcd_goto
;;                        _send_string
;;                              _delay
;;                      _receive_reply
;; ---------------------------------------------------------------------------------
;; (3) _receive_reply                                        3     3      0     805
;;                                              1 BANK0      3     3      0
;;                       _uart_receive
;;                     _display_status
;;                              _delay
;; ---------------------------------------------------------------------------------
;; (4) _display_status                                       3     1      2     669
;;                                             12 COMMON     2     0      2
;;                                              0 BANK0      1     1      0
;;                            _lcd_clr
;;                           _lcd_goto
;;                        _send_string
;;                              _delay
;;                          _send_char
;; ---------------------------------------------------------------------------------
;; (2) _upload_HT                                           46    46      0    1608
;;                                              7 COMMON     4     4      0
;;                                              0 BANK0     42    42      0
;;                         _uart_write
;;                             _allign
;;                         _get_eeprom
;; ---------------------------------------------------------------------------------
;; (2) _view_attendance                                      2     2      0    1240
;;                                             12 COMMON     2     2      0
;;                            _lcd_clr
;;                           _lcd_goto
;;                        _send_string
;;                         _get_eeprom
;;                          _send_char
;;                              _delay
;; ---------------------------------------------------------------------------------
;; (3) _allign                                               2     2      0     180
;;                                              5 COMMON     2     2      0
;;                         _uart_write
;; ---------------------------------------------------------------------------------
;; (2) _upload_GUI                                           5     5      0    1084
;;                                              5 COMMON     5     5      0
;;                         _get_eeprom
;;                         _uart_write
;; ---------------------------------------------------------------------------------
;; (3) _send_string                                          3     1      2     135
;;                                              9 COMMON     3     1      2
;;                          _send_char
;; ---------------------------------------------------------------------------------
;; (3) _lcd_goto                                             2     2      0     156
;;                                              9 COMMON     2     2      0
;;                        _send_config
;; ---------------------------------------------------------------------------------
;; (3) _lcd_clr                                              0     0      0     112
;;                        _send_config
;;                              _delay
;; ---------------------------------------------------------------------------------
;; (4) _uart_write                                           5     4      1     134
;;                                              0 COMMON     5     4      1
;; ---------------------------------------------------------------------------------
;; (2) _clear_attendance                                     1     1      0      44
;;                                              3 COMMON     1     1      0
;;                       _store_eeprom
;; ---------------------------------------------------------------------------------
;; (3) _send_char                                            1     1      0      67
;;                                              8 COMMON     1     1      0
;;                              _delay
;; ---------------------------------------------------------------------------------
;; (1) _init_attendance                                      1     1      0      44
;;                                              3 COMMON     1     1      0
;;                       _store_eeprom
;; ---------------------------------------------------------------------------------
;; (1) _receive_reply_nodisplay                              2     2      0      91
;;                                              2 COMMON     2     2      0
;;                       _uart_receive
;; ---------------------------------------------------------------------------------
;; (3) _send_cmd                                             6     3      3     221
;;                                              1 COMMON     6     3      3
;;                          _uart_send
;; ---------------------------------------------------------------------------------
;; (4) _send_config                                          1     1      0      67
;;                                              8 COMMON     1     1      0
;;                              _delay
;; ---------------------------------------------------------------------------------
;; (4) _uart_receive                                         2     2      0      23
;;                                              0 COMMON     2     2      0
;; ---------------------------------------------------------------------------------
;; (4) _uart_send                                            1     1      0      22
;;                                              0 COMMON     1     1      0
;; ---------------------------------------------------------------------------------
;; (3) _store_eeprom                                         3     2      1      44
;;                                              0 COMMON     3     2      1
;; ---------------------------------------------------------------------------------
;; (3) _get_eeprom                                           3     3      0      45
;;                                              0 COMMON     3     3      0
;; ---------------------------------------------------------------------------------
;; (1) _uart_init                                            1     1      0      22
;;                                              0 COMMON     1     1      0
;; ---------------------------------------------------------------------------------
;; (3) _delay                                                8     4      4      45
;;                                              0 COMMON     8     4      4
;; ---------------------------------------------------------------------------------
;; Estimated maximum stack depth 4
;; ---------------------------------------------------------------------------------

;; Call Graph Graphs:

;; _main (ROOT)
;;   _send_config
;;     _delay
;;   _lcd_clr
;;     _send_config
;;       _delay
;;     _delay
;;   _lcd_goto
;;     _send_config
;;       _delay
;;   _send_string
;;     _send_char
;;       _delay
;;   _delay
;;   _ResetAdmin
;;     _lcd_goto
;;       _send_config
;;         _delay
;;     _send_string
;;       _send_char
;;         _delay
;;     _delay
;;     _send_cmd
;;       _uart_send
;;     _receive_reply
;;       _uart_receive
;;       _display_status
;;         _lcd_clr
;;           _send_config
;;             _delay
;;           _delay
;;         _lcd_goto
;;           _send_config
;;             _delay
;;         _send_string
;;           _send_char
;;             _delay
;;         _delay
;;         _send_char
;;           _delay
;;       _delay
;;     _AddNew
;;       _send_cmd
;;         _uart_send
;;       _lcd_goto
;;         _send_config
;;           _delay
;;       _send_string
;;         _send_char
;;           _delay
;;       _delay
;;       _receive_reply
;;         _uart_receive
;;         _display_status
;;           _lcd_clr
;;             _send_config
;;               _delay
;;             _delay
;;           _lcd_goto
;;             _send_config
;;               _delay
;;           _send_string
;;             _send_char
;;               _delay
;;           _delay
;;           _send_char
;;             _delay
;;         _delay
;;       _lcd_clr
;;         _send_config
;;           _delay
;;         _delay
;;   _send_cmd
;;     _uart_send
;;   _receive_reply_nodisplay
;;     _uart_receive
;;   _uart_init
;;   _init_attendance
;;     _store_eeprom
;;   _CheckAdmin
;;     _send_cmd
;;       _uart_send
;;     _lcd_goto
;;       _send_config
;;         _delay
;;     _send_string
;;       _send_char
;;         _delay
;;     _delay
;;     _receive_reply
;;       _uart_receive
;;       _display_status
;;         _lcd_clr
;;           _send_config
;;             _delay
;;           _delay
;;         _lcd_goto
;;           _send_config
;;             _delay
;;         _send_string
;;           _send_char
;;             _delay
;;         _delay
;;         _send_char
;;           _delay
;;       _delay
;;   _send_char
;;     _delay
;;   _get_eeprom
;;   _receive_reply
;;     _uart_receive
;;     _display_status
;;       _lcd_clr
;;         _send_config
;;           _delay
;;         _delay
;;       _lcd_goto
;;         _send_config
;;           _delay
;;       _send_string
;;         _send_char
;;           _delay
;;       _delay
;;       _send_char
;;         _delay
;;     _delay
;;   _store_eeprom
;;   _mode
;;     _lcd_clr
;;       _send_config
;;         _delay
;;       _delay
;;     _store_eeprom
;;     _lcd_goto
;;       _send_config
;;         _delay
;;     _send_string
;;       _send_char
;;         _delay
;;     _send_char
;;       _delay
;;     _delay
;;     _AddNew
;;       _send_cmd
;;         _uart_send
;;       _lcd_goto
;;         _send_config
;;           _delay
;;       _send_string
;;         _send_char
;;           _delay
;;       _delay
;;       _receive_reply
;;         _uart_receive
;;         _display_status
;;           _lcd_clr
;;             _send_config
;;               _delay
;;             _delay
;;           _lcd_goto
;;             _send_config
;;               _delay
;;           _send_string
;;             _send_char
;;               _delay
;;           _delay
;;           _send_char
;;             _delay
;;         _delay
;;       _lcd_clr
;;         _send_config
;;           _delay
;;         _delay
;;     _send_cmd
;;       _uart_send
;;     _receive_reply
;;       _uart_receive
;;       _display_status
;;         _lcd_clr
;;           _send_config
;;             _delay
;;           _delay
;;         _lcd_goto
;;           _send_config
;;             _delay
;;         _send_string
;;           _send_char
;;             _delay
;;         _delay
;;         _send_char
;;           _delay
;;       _delay
;;     _CheckAdmin
;;       _send_cmd
;;         _uart_send
;;       _lcd_goto
;;         _send_config
;;           _delay
;;       _send_string
;;         _send_char
;;           _delay
;;       _delay
;;       _receive_reply
;;         _uart_receive
;;         _display_status
;;           _lcd_clr
;;             _send_config
;;               _delay
;;             _delay
;;           _lcd_goto
;;             _send_config
;;               _delay
;;           _send_string
;;             _send_char
;;               _delay
;;           _delay
;;           _send_char
;;             _delay
;;         _delay
;;     _view_attendance
;;       _lcd_clr
;;         _send_config
;;           _delay
;;         _delay
;;       _lcd_goto
;;         _send_config
;;           _delay
;;       _send_string
;;         _send_char
;;           _delay
;;       _get_eeprom
;;       _send_char
;;         _delay
;;       _delay
;;     _clear_attendance
;;       _store_eeprom
;;     _upload_GUI
;;       _get_eeprom
;;       _uart_write
;;     _upload_HT
;;       _uart_write
;;       _allign
;;         _uart_write
;;       _get_eeprom
;;

;; Address spaces:

;;Name               Size   Autos  Total    Cost      Usage
;;BANK3               60      0       0       9        0.0%
;;BITBANK3            60      0       0       8        0.0%
;;SFR3                 0      0       0       4        0.0%
;;BITSFR3              0      0       0       4        0.0%
;;BANK2               60      0       0      11        0.0%
;;BITBANK2            60      0       0      10        0.0%
;;SFR2                 0      0       0       5        0.0%
;;BITSFR2              0      0       0       5        0.0%
;;SFR1                 0      0       0       2        0.0%
;;BITSFR1              0      0       0       2        0.0%
;;BANK1               50      0      28       7       50.0%
;;BITBANK1            50      0       0       6        0.0%
;;CODE                 0      0       0       0        0.0%
;;DATA                 0      0      7B      12        0.0%
;;ABS                  0      0      74       3        0.0%
;;NULL                 0      0       0       0        0.0%
;;STACK                0      0       7       2        0.0%
;;BANK0               50     2E      3E       5       77.5%
;;BITBANK0            50      0       1       4        1.3%
;;SFR0                 0      0       0       1        0.0%
;;BITSFR0              0      0       0       1        0.0%
;;COMMON               E      E       E       1      100.0%
;;BITCOMMON            E      0       0       0        0.0%
;;EEDATA             100      0       0       0        0.0%

	global	_main
psect	maintext,global,class=CODE,delta=2
global __pmaintext
__pmaintext:

;; *************** function _main *****************
;; Defined at:
;;		line 71 in file "C:\Users\Phang\Desktop\9.80\PR 29\PR29.c"
;; Parameters:    Size  Location     Type
;;		None
;; Auto vars:     Size  Location     Type
;;		None
;; Return value:  Size  Location     Type
;;		None               void
;; Registers used:
;;		wreg, fsr0l, fsr0h, status,2, status,0, btemp+1, pclath, cstack
;; Tracked objects:
;;		On entry : 17F/0
;;		On exit  : 0/0
;;		Unchanged: 0/0
;; Data sizes:     COMMON   BANK0   BANK1   BANK3   BANK2
;;      Params:         0       0       0       0       0
;;      Locals:         0       0       0       0       0
;;      Temps:          0       1       0       0       0
;;      Totals:         0       1       0       0       0
;;Total ram usage:        1 bytes
;; Hardware stack levels required when called:    7
;; This function calls:
;;		_send_config
;;		_lcd_clr
;;		_lcd_goto
;;		_send_string
;;		_delay
;;		_ResetAdmin
;;		_send_cmd
;;		_receive_reply_nodisplay
;;		_uart_init
;;		_init_attendance
;;		_CheckAdmin
;;		_send_char
;;		_get_eeprom
;;		_receive_reply
;;		_store_eeprom
;;		_mode
;; This function is called by:
;;		Startup code after reset
;; This function uses a non-reentrant model
;;
psect	maintext
	file	"C:\Users\Phang\Desktop\9.80\PR 29\PR29.c"
	line	71
	global	__size_of_main
	__size_of_main	equ	__end_of_main-_main
	
_main:	
	opt	stack 1
; Regs used in _main: [wreg-fsr0h+status,2+status,0+btemp+1+pclath+cstack]
	line	73
	
l5532:	
;PR29.c: 73: TRISA = 0b00011100;
	movlw	(01Ch)
	bsf	status, 5	;RP0=1, select bank1
	bcf	status, 6	;RP1=0, select bank1
	movwf	(133)^080h	;volatile
	line	74
	
l5534:	
;PR29.c: 74: TRISB = 0b00000000;
	clrf	(134)^080h	;volatile
	line	75
	
l5536:	
;PR29.c: 75: TRISC = 0b10000000;
	movlw	(080h)
	movwf	(135)^080h	;volatile
	line	78
	
l5538:	
;PR29.c: 78: ADCON1 = 0b10000110;
	movlw	(086h)
	movwf	(159)^080h	;volatile
	line	81
	
l5540:	
;PR29.c: 81: send_config(0b00000001);
	movlw	(01h)
	fcall	_send_config
	line	82
	
l5542:	
;PR29.c: 82: send_config(0b00000010);
	movlw	(02h)
	fcall	_send_config
	line	83
	
l5544:	
;PR29.c: 83: send_config(0b00000110);
	movlw	(06h)
	fcall	_send_config
	line	84
	
l5546:	
;PR29.c: 84: send_config(0b00001100);
	movlw	(0Ch)
	fcall	_send_config
	line	85
	
l5548:	
;PR29.c: 85: send_config(0b00111000);
	movlw	(038h)
	fcall	_send_config
	line	87
	
l5550:	
;PR29.c: 87: RA5=0;
	bcf	status, 5	;RP0=0, select bank0
	bcf	status, 6	;RP1=0, select bank0
	bcf	(45/8),(45)&7
	line	88
	
l5552:	
;PR29.c: 88: RA1=0;
	bcf	(41/8),(41)&7
	line	91
	
l5554:	
;PR29.c: 91: lcd_clr();
	fcall	_lcd_clr
	line	92
	
l5556:	
;PR29.c: 92: lcd_goto(0);
	movlw	(0)
	fcall	_lcd_goto
	line	93
	
l5558:	
;PR29.c: 93: send_string("Cytron Tech.");
	movlw	low(STR_1|8000h)
	movwf	(?_send_string)
	movlw	high(STR_1|8000h)
	movwf	((?_send_string))+1
	fcall	_send_string
	line	94
	
l5560:	
;PR29.c: 94: lcd_goto(20);
	movlw	(014h)
	fcall	_lcd_goto
	line	95
	
l5562:	
;PR29.c: 95: send_string("PR 29");
	movlw	low(STR_2|8000h)
	movwf	(?_send_string)
	movlw	high(STR_2|8000h)
	movwf	((?_send_string))+1
	fcall	_send_string
	line	96
	
l5564:	
;PR29.c: 96: delay(200000);
	movlw	0
	movwf	(?_delay+3)
	movlw	03h
	movwf	(?_delay+2)
	movlw	0Dh
	movwf	(?_delay+1)
	movlw	040h
	movwf	(?_delay)

	fcall	_delay
	line	97
	
l5566:	
;PR29.c: 97: lcd_clr();
	fcall	_lcd_clr
	line	101
	
l5568:	
;PR29.c: 101: SPBRG = 0x40;
	movlw	(040h)
	bsf	status, 5	;RP0=1, select bank1
	bcf	status, 6	;RP1=0, select bank1
	movwf	(153)^080h	;volatile
	line	102
	
l5570:	
;PR29.c: 102: BRGH = 1;
	bsf	(1218/8)^080h,(1218)&7
	line	103
	
l5572:	
;PR29.c: 103: TXEN = 1;
	bsf	(1221/8)^080h,(1221)&7
	line	104
	
l5574:	
;PR29.c: 104: CREN = 1;
	bcf	status, 5	;RP0=0, select bank0
	bcf	status, 6	;RP1=0, select bank0
	bsf	(196/8),(196)&7
	line	105
	
l5576:	
;PR29.c: 105: SPEN = 1;
	bsf	(199/8),(199)&7
	line	108
	
l5578:	
;PR29.c: 108: if((!RA2) && (!RA3))
	btfsc	(42/8),(42)&7
	goto	u5401
	goto	u5400
u5401:
	goto	l5590
u5400:
	
l5580:	
	btfsc	(43/8),(43)&7
	goto	u5411
	goto	u5410
u5411:
	goto	l5590
u5410:
	line	110
	
l5582:	
;PR29.c: 109: {
;PR29.c: 110: delay(100000);
	movlw	0
	movwf	(?_delay+3)
	movlw	01h
	movwf	(?_delay+2)
	movlw	086h
	movwf	(?_delay+1)
	movlw	0A0h
	movwf	(?_delay)

	fcall	_delay
	line	111
	
l5584:	
;PR29.c: 111: if((!RA2) && (!RA3))
	bcf	status, 5	;RP0=0, select bank0
	bcf	status, 6	;RP1=0, select bank0
	btfsc	(42/8),(42)&7
	goto	u5421
	goto	u5420
u5421:
	goto	l5590
u5420:
	
l5586:	
	btfsc	(43/8),(43)&7
	goto	u5431
	goto	u5430
u5431:
	goto	l5590
u5430:
	line	113
	
l5588:	
;PR29.c: 112: {
;PR29.c: 113: ResetAdmin();
	fcall	_ResetAdmin
	goto	l5590
	line	114
	
l572:	
	goto	l5590
	line	115
	
l571:	
	line	118
	
l5590:	
;PR29.c: 114: }
;PR29.c: 115: }
;PR29.c: 118: send_cmd(0x2E,0x00,0x10,0x00);
	clrc
	movlw	0
	btfsc	status,0
	movlw	1
	movwf	(?_send_cmd)
	movlw	(010h)
	bcf	status, 5	;RP0=0, select bank0
	bcf	status, 6	;RP1=0, select bank0
	movwf	(??_main+0)+0
	movf	(??_main+0)+0,w
	movwf	0+(?_send_cmd)+01h
	clrc
	movlw	0
	btfsc	status,0
	movlw	1
	movwf	0+(?_send_cmd)+02h
	movlw	(02Eh)
	fcall	_send_cmd
	line	119
	
l5592:	
;PR29.c: 119: delay(10);
	movlw	0
	movwf	(?_delay+3)
	movlw	0
	movwf	(?_delay+2)
	movlw	0
	movwf	(?_delay+1)
	movlw	0Ah
	movwf	(?_delay)

	fcall	_delay
	line	120
	
l5594:	
;PR29.c: 120: receive_reply_nodisplay();
	fcall	_receive_reply_nodisplay
	line	121
	
l5596:	
;PR29.c: 121: send_cmd(0x2d,0x00,1,0x00);
	clrc
	movlw	0
	btfsc	status,0
	movlw	1
	movwf	(?_send_cmd)
	clrf	0+(?_send_cmd)+01h
	bsf	status,0
	rlf	0+(?_send_cmd)+01h,f
	clrc
	movlw	0
	btfsc	status,0
	movlw	1
	movwf	0+(?_send_cmd)+02h
	movlw	(02Dh)
	fcall	_send_cmd
	line	122
	
l5598:	
;PR29.c: 122: delay(10);
	movlw	0
	movwf	(?_delay+3)
	movlw	0
	movwf	(?_delay+2)
	movlw	0
	movwf	(?_delay+1)
	movlw	0Ah
	movwf	(?_delay)

	fcall	_delay
	line	123
	
l5600:	
;PR29.c: 123: receive_reply_nodisplay();
	fcall	_receive_reply_nodisplay
	line	126
	
l5602:	
;PR29.c: 126: uart_init(1);
	movlw	(01h)
	fcall	_uart_init
	line	129
	
l5604:	
;PR29.c: 129: init_attendance();
	fcall	_init_attendance
	goto	l574
	line	131
;PR29.c: 131: while(1)
	
l573:	
	line	133
;PR29.c: 132: {
;PR29.c: 133: while(usertype_enter==0)
	goto	l574
	
l575:	
	line	135
	
l5606:	
;PR29.c: 134: {
;PR29.c: 135: lcd_goto(0);
	movlw	(0)
	fcall	_lcd_goto
	line	136
	
l5608:	
;PR29.c: 136: send_string("1. Admin login  ");
	movlw	low(STR_3|8000h)
	movwf	(?_send_string)
	movlw	high(STR_3|8000h)
	movwf	((?_send_string))+1
	fcall	_send_string
	line	137
	
l5610:	
;PR29.c: 137: lcd_goto(20);
	movlw	(014h)
	fcall	_lcd_goto
	line	138
;PR29.c: 138: send_string("2. User login   ");
	movlw	low(STR_4|8000h)
	movwf	(?_send_string)
	movlw	high(STR_4|8000h)
	movwf	((?_send_string))+1
	fcall	_send_string
	line	139
	
l5612:	
;PR29.c: 139: if(!RA2)
	bcf	status, 5	;RP0=0, select bank0
	bcf	status, 6	;RP1=0, select bank0
	btfsc	(42/8),(42)&7
	goto	u5441
	goto	u5440
u5441:
	goto	l576
u5440:
	goto	l577
	line	141
	
l5614:	
;PR29.c: 140: {
;PR29.c: 141: while(!RA2);
	goto	l577
	
l578:	
	
l577:	
	btfss	(42/8),(42)&7
	goto	u5451
	goto	u5450
u5451:
	goto	l577
u5450:
	goto	l5616
	
l579:	
	line	142
	
l5616:	
;PR29.c: 142: CheckAdmin();
	fcall	_CheckAdmin
	line	143
	
l5618:	
;PR29.c: 143: if(error!=1)
	bcf	status, 5	;RP0=0, select bank0
	bcf	status, 6	;RP1=0, select bank0
	btfsc	(_error/8),(_error)&7
	goto	u5461
	goto	u5460
u5461:
	goto	l574
u5460:
	line	145
	
l5620:	
;PR29.c: 144: {
;PR29.c: 145: admin = 1;
	bsf	(_admin/8),(_admin)&7
	line	146
;PR29.c: 146: usertype_enter=1;
	bsf	(_usertype_enter/8),(_usertype_enter)&7
	goto	l574
	line	147
	
l580:	
	line	148
;PR29.c: 147: }
;PR29.c: 148: }
	goto	l574
	line	149
	
l576:	
;PR29.c: 149: else if (!RA3)
	btfsc	(43/8),(43)&7
	goto	u5471
	goto	u5470
u5471:
	goto	l574
u5470:
	goto	l583
	line	151
	
l5622:	
;PR29.c: 150: {
;PR29.c: 151: while(!RA3);
	goto	l583
	
l584:	
	
l583:	
	btfss	(43/8),(43)&7
	goto	u5481
	goto	u5480
u5481:
	goto	l583
u5480:
	
l585:	
	line	152
;PR29.c: 152: admin = 0;
	bcf	(_admin/8),(_admin)&7
	line	153
;PR29.c: 153: usertype_enter=1;
	bsf	(_usertype_enter/8),(_usertype_enter)&7
	goto	l574
	line	154
	
l582:	
	goto	l574
	line	155
	
l581:	
	
l574:	
	line	133
	bcf	status, 5	;RP0=0, select bank0
	bcf	status, 6	;RP1=0, select bank0
	btfss	(_usertype_enter/8),(_usertype_enter)&7
	goto	u5491
	goto	u5490
u5491:
	goto	l5606
u5490:
	goto	l5624
	
l586:	
	line	156
	
l5624:	
;PR29.c: 154: }
;PR29.c: 155: }
;PR29.c: 156: lcd_clr();
	fcall	_lcd_clr
	line	159
;PR29.c: 159: while(mode_enter==0 && admin ==1 && usertype_enter==1)
	goto	l5688
	
l588:	
	line	161
;PR29.c: 160: {
;PR29.c: 161: if((!RA2))
	btfsc	(42/8),(42)&7
	goto	u5501
	goto	u5500
u5501:
	goto	l589
u5500:
	goto	l590
	line	163
	
l5626:	
;PR29.c: 162: {
;PR29.c: 163: while((!RA2));
	goto	l590
	
l591:	
	
l590:	
	btfss	(42/8),(42)&7
	goto	u5511
	goto	u5510
u5511:
	goto	l590
u5510:
	goto	l5628
	
l592:	
	line	164
	
l5628:	
;PR29.c: 164: if (mode_count<8)
	movlw	(08h)
	subwf	(_mode_count),w
	skipnc
	goto	u5521
	goto	u5520
u5521:
	goto	l5632
u5520:
	line	165
	
l5630:	
;PR29.c: 165: mode_count++;
	movlw	(01h)
	movwf	(??_main+0)+0
	movf	(??_main+0)+0,w
	addwf	(_mode_count),f
	goto	l5644
	line	166
	
l593:	
	line	167
	
l5632:	
;PR29.c: 166: else
;PR29.c: 167: mode_count=1;
	clrf	(_mode_count)
	bsf	status,0
	rlf	(_mode_count),f
	goto	l5644
	
l594:	
	line	168
;PR29.c: 168: }
	goto	l5644
	line	169
	
l589:	
;PR29.c: 169: else if((!RA3))
	btfsc	(43/8),(43)&7
	goto	u5531
	goto	u5530
u5531:
	goto	l596
u5530:
	goto	l597
	line	171
	
l5634:	
;PR29.c: 170: {
;PR29.c: 171: while((!RA3));
	goto	l597
	
l598:	
	
l597:	
	btfss	(43/8),(43)&7
	goto	u5541
	goto	u5540
u5541:
	goto	l597
u5540:
	goto	l5636
	
l599:	
	line	172
	
l5636:	
;PR29.c: 172: if (mode_count>1)
	movlw	(02h)
	subwf	(_mode_count),w
	skipc
	goto	u5551
	goto	u5550
u5551:
	goto	l5640
u5550:
	line	173
	
l5638:	
;PR29.c: 173: mode_count--;
	movlw	low(01h)
	subwf	(_mode_count),f
	goto	l5644
	line	174
	
l600:	
	line	175
	
l5640:	
;PR29.c: 174: else
;PR29.c: 175: mode_count=8;
	movlw	(08h)
	movwf	(??_main+0)+0
	movf	(??_main+0)+0,w
	movwf	(_mode_count)
	goto	l5644
	
l601:	
	line	176
;PR29.c: 176: }
	goto	l5644
	line	177
	
l596:	
;PR29.c: 177: else if(!RA4)
	btfsc	(44/8),(44)&7
	goto	u5561
	goto	u5560
u5561:
	goto	l5644
u5560:
	goto	l604
	line	179
	
l5642:	
;PR29.c: 178: {
;PR29.c: 179: while(!RA4);
	goto	l604
	
l605:	
	
l604:	
	btfss	(44/8),(44)&7
	goto	u5571
	goto	u5570
u5571:
	goto	l604
u5570:
	
l606:	
	line	180
;PR29.c: 180: mode_enter=1;
	bsf	(_mode_enter/8),(_mode_enter)&7
	goto	l5644
	line	181
	
l603:	
	goto	l5644
	line	182
	
l602:	
	goto	l5644
	
l595:	
	
l5644:	
;PR29.c: 181: }
;PR29.c: 182: lcd_goto(0);
	movlw	(0)
	fcall	_lcd_goto
	line	183
	
l5646:	
;PR29.c: 183: send_string("Mode= ");
	movlw	low(STR_5|8000h)
	movwf	(?_send_string)
	movlw	high(STR_5|8000h)
	movwf	((?_send_string))+1
	fcall	_send_string
	line	184
	
l5648:	
;PR29.c: 184: lcd_goto(6);
	movlw	(06h)
	fcall	_lcd_goto
	line	185
	
l5650:	
;PR29.c: 185: send_char(0x30+mode_count);
	bcf	status, 5	;RP0=0, select bank0
	bcf	status, 6	;RP1=0, select bank0
	movf	(_mode_count),w
	addlw	030h
	fcall	_send_char
	line	186
	
l5652:	
;PR29.c: 186: lcd_goto(7);
	movlw	(07h)
	fcall	_lcd_goto
	line	187
;PR29.c: 187: send_string("/8");
	movlw	low(STR_6|8000h)
	movwf	(?_send_string)
	movlw	high(STR_6|8000h)
	movwf	((?_send_string))+1
	fcall	_send_string
	line	188
	
l5654:	
;PR29.c: 188: lcd_goto(20);
	movlw	(014h)
	fcall	_lcd_goto
	line	189
	
l5656:	
;PR29.c: 189: if (mode_count==1) send_string("Set Day         ");
	bcf	status, 5	;RP0=0, select bank0
	bcf	status, 6	;RP1=0, select bank0
	movf	(_mode_count),w
	xorlw	01h
	skipz
	goto	u5581
	goto	u5580
u5581:
	goto	l5660
u5580:
	
l5658:	
	movlw	low(STR_7|8000h)
	movwf	(?_send_string)
	movlw	high(STR_7|8000h)
	movwf	((?_send_string))+1
	fcall	_send_string
	goto	l5688
	line	190
	
l607:	
	
l5660:	
;PR29.c: 190: else if (mode_count==2) send_string("Add a New Data  ");
	bcf	status, 5	;RP0=0, select bank0
	bcf	status, 6	;RP1=0, select bank0
	movf	(_mode_count),w
	xorlw	02h
	skipz
	goto	u5591
	goto	u5590
u5591:
	goto	l5664
u5590:
	
l5662:	
	movlw	low(STR_8|8000h)
	movwf	(?_send_string)
	movlw	high(STR_8|8000h)
	movwf	((?_send_string))+1
	fcall	_send_string
	goto	l5688
	line	191
	
l609:	
	
l5664:	
;PR29.c: 191: else if (mode_count==3) send_string("Delete a Data   ");
	bcf	status, 5	;RP0=0, select bank0
	bcf	status, 6	;RP1=0, select bank0
	movf	(_mode_count),w
	xorlw	03h
	skipz
	goto	u5601
	goto	u5600
u5601:
	goto	l5668
u5600:
	
l5666:	
	movlw	low(STR_9|8000h)
	movwf	(?_send_string)
	movlw	high(STR_9|8000h)
	movwf	((?_send_string))+1
	fcall	_send_string
	goto	l5688
	line	192
	
l611:	
	
l5668:	
;PR29.c: 192: else if (mode_count==4) send_string("Delete All Data ");
	bcf	status, 5	;RP0=0, select bank0
	bcf	status, 6	;RP1=0, select bank0
	movf	(_mode_count),w
	xorlw	04h
	skipz
	goto	u5611
	goto	u5610
u5611:
	goto	l5672
u5610:
	
l5670:	
	movlw	low(STR_10|8000h)
	movwf	(?_send_string)
	movlw	high(STR_10|8000h)
	movwf	((?_send_string))+1
	fcall	_send_string
	goto	l5688
	line	193
	
l613:	
	
l5672:	
;PR29.c: 193: else if (mode_count==5) send_string("Change Admin    ");
	bcf	status, 5	;RP0=0, select bank0
	bcf	status, 6	;RP1=0, select bank0
	movf	(_mode_count),w
	xorlw	05h
	skipz
	goto	u5621
	goto	u5620
u5621:
	goto	l5676
u5620:
	
l5674:	
	movlw	low(STR_11|8000h)
	movwf	(?_send_string)
	movlw	high(STR_11|8000h)
	movwf	((?_send_string))+1
	fcall	_send_string
	goto	l5688
	line	194
	
l615:	
	
l5676:	
;PR29.c: 194: else if (mode_count==6) send_string("View Attendance ");
	bcf	status, 5	;RP0=0, select bank0
	bcf	status, 6	;RP1=0, select bank0
	movf	(_mode_count),w
	xorlw	06h
	skipz
	goto	u5631
	goto	u5630
u5631:
	goto	l5680
u5630:
	
l5678:	
	movlw	low(STR_12|8000h)
	movwf	(?_send_string)
	movlw	high(STR_12|8000h)
	movwf	((?_send_string))+1
	fcall	_send_string
	goto	l5688
	line	195
	
l617:	
	
l5680:	
;PR29.c: 195: else if (mode_count==7) send_string("Clear Attendance");
	bcf	status, 5	;RP0=0, select bank0
	bcf	status, 6	;RP1=0, select bank0
	movf	(_mode_count),w
	xorlw	07h
	skipz
	goto	u5641
	goto	u5640
u5641:
	goto	l5684
u5640:
	
l5682:	
	movlw	low(STR_13|8000h)
	movwf	(?_send_string)
	movlw	high(STR_13|8000h)
	movwf	((?_send_string))+1
	fcall	_send_string
	goto	l5688
	line	196
	
l619:	
	
l5684:	
;PR29.c: 196: else if (mode_count==8) send_string("Export          ");
	bcf	status, 5	;RP0=0, select bank0
	bcf	status, 6	;RP1=0, select bank0
	movf	(_mode_count),w
	xorlw	08h
	skipz
	goto	u5651
	goto	u5650
u5651:
	goto	l5688
u5650:
	
l5686:	
	movlw	low(STR_14|8000h)
	movwf	(?_send_string)
	movlw	high(STR_14|8000h)
	movwf	((?_send_string))+1
	fcall	_send_string
	goto	l5688
	
l621:	
	goto	l5688
	line	197
	
l620:	
	goto	l5688
	
l618:	
	goto	l5688
	
l616:	
	goto	l5688
	
l614:	
	goto	l5688
	
l612:	
	goto	l5688
	
l610:	
	goto	l5688
	
l608:	
	goto	l5688
	
l587:	
	line	159
	
l5688:	
	bcf	status, 5	;RP0=0, select bank0
	bcf	status, 6	;RP1=0, select bank0
	btfsc	(_mode_enter/8),(_mode_enter)&7
	goto	u5661
	goto	u5660
u5661:
	goto	l625
u5660:
	
l5690:	
	btfss	(_admin/8),(_admin)&7
	goto	u5671
	goto	u5670
u5671:
	goto	l625
u5670:
	
l5692:	
	btfsc	(_usertype_enter/8),(_usertype_enter)&7
	goto	u5681
	goto	u5680
u5681:
	goto	l588
u5680:
	goto	l625
	
l623:	
	goto	l625
	
l624:	
	line	199
;PR29.c: 197: }
;PR29.c: 199: while(mode_enter==0 && admin ==0 && usertype_enter==1)
	goto	l625
	
l626:	
	goto	l5694
	line	201
;PR29.c: 200: {
;PR29.c: 201: while(1)
	
l627:	
	line	203
	
l5694:	
;PR29.c: 202: {
;PR29.c: 203: lcd_goto(0);
	movlw	(0)
	fcall	_lcd_goto
	line	204
	
l5696:	
;PR29.c: 204: send_string("Today is Day ");
	movlw	low(STR_15|8000h)
	movwf	(?_send_string)
	movlw	high(STR_15|8000h)
	movwf	((?_send_string))+1
	fcall	_send_string
	line	205
	
l5698:	
;PR29.c: 205: lcd_goto(13);
	movlw	(0Dh)
	fcall	_lcd_goto
	line	206
	
l5700:	
;PR29.c: 206: DAY=get_eeprom(0xff);
	movlw	(0FFh)
	fcall	_get_eeprom
	bcf	status, 5	;RP0=0, select bank0
	bcf	status, 6	;RP1=0, select bank0
	movwf	(??_main+0)+0
	movf	(??_main+0)+0,w
	movwf	(_DAY)
	line	207
	
l5702:	
;PR29.c: 207: send_char(0x30+DAY);
	movf	(_DAY),w
	addlw	030h
	fcall	_send_char
	line	208
	
l5704:	
;PR29.c: 208: lcd_goto(20);
	movlw	(014h)
	fcall	_lcd_goto
	line	209
	
l5706:	
;PR29.c: 209: send_string("Press 3 to mark ");
	movlw	low(STR_16|8000h)
	movwf	(?_send_string)
	movlw	high(STR_16|8000h)
	movwf	((?_send_string))+1
	fcall	_send_string
	line	210
	
l5708:	
;PR29.c: 210: if(!RA4)
	bcf	status, 5	;RP0=0, select bank0
	bcf	status, 6	;RP1=0, select bank0
	btfsc	(44/8),(44)&7
	goto	u5691
	goto	u5690
u5691:
	goto	l5694
u5690:
	goto	l629
	line	212
	
l5710:	
;PR29.c: 211: {
;PR29.c: 212: while(!RA4);
	goto	l629
	
l630:	
	
l629:	
	btfss	(44/8),(44)&7
	goto	u5701
	goto	u5700
u5701:
	goto	l629
u5700:
	goto	l5712
	
l631:	
	line	214
	
l5712:	
;PR29.c: 214: send_cmd(0x0c,0x00,0x00,0x00);
	clrc
	movlw	0
	btfsc	status,0
	movlw	1
	movwf	(?_send_cmd)
	clrc
	movlw	0
	btfsc	status,0
	movlw	1
	movwf	0+(?_send_cmd)+01h
	clrc
	movlw	0
	btfsc	status,0
	movlw	1
	movwf	0+(?_send_cmd)+02h
	movlw	(0Ch)
	fcall	_send_cmd
	line	215
;PR29.c: 215: lcd_clr();
	fcall	_lcd_clr
	line	216
;PR29.c: 216: lcd_goto(0);
	movlw	(0)
	fcall	_lcd_goto
	line	217
	
l5714:	
;PR29.c: 217: send_string("Place your thumb");
	movlw	low(STR_17|8000h)
	movwf	(?_send_string)
	movlw	high(STR_17|8000h)
	movwf	((?_send_string))+1
	fcall	_send_string
	line	218
	
l5716:	
;PR29.c: 218: lcd_goto(20);
	movlw	(014h)
	fcall	_lcd_goto
	line	219
;PR29.c: 219: send_string("on the window");
	movlw	low(STR_18|8000h)
	movwf	(?_send_string)
	movlw	high(STR_18|8000h)
	movwf	((?_send_string))+1
	fcall	_send_string
	line	220
	
l5718:	
;PR29.c: 220: delay(100);
	movlw	0
	movwf	(?_delay+3)
	movlw	0
	movwf	(?_delay+2)
	movlw	0
	movwf	(?_delay+1)
	movlw	064h
	movwf	(?_delay)

	fcall	_delay
	line	221
	
l5720:	
;PR29.c: 221: receive_reply();
	fcall	_receive_reply
	line	223
	
l5722:	
;PR29.c: 223: if(!error)
	bcf	status, 5	;RP0=0, select bank0
	bcf	status, 6	;RP1=0, select bank0
	btfsc	(_error/8),(_error)&7
	goto	u5711
	goto	u5710
u5711:
	goto	l5694
u5710:
	line	225
	
l5724:	
;PR29.c: 224: {
;PR29.c: 225: if(DAY==1)
	movf	(_DAY),w
	xorlw	01h
	skipz
	goto	u5721
	goto	u5720
u5721:
	goto	l5732
u5720:
	line	226
	
l5726:	
;PR29.c: 226: { day_location=0x00;
	clrc
	movlw	0
	btfsc	status,0
	movlw	1
	movwf	(_day_location)
	line	227
	
l5728:	
;PR29.c: 227: store_eeprom(0x2f,day_location+3+array_resp[3]);
	movf	(_day_location),w
	addwf	0+(_array_resp)+03h,w
	addlw	03h
	movwf	(??_main+0)+0
	movf	(??_main+0)+0,w
	movwf	(?_store_eeprom)
	movlw	(02Fh)
	fcall	_store_eeprom
	line	228
	
l5730:	
;PR29.c: 228: delay(100);
	movlw	0
	movwf	(?_delay+3)
	movlw	0
	movwf	(?_delay+2)
	movlw	0
	movwf	(?_delay+1)
	movlw	064h
	movwf	(?_delay)

	fcall	_delay
	line	229
;PR29.c: 229: }
	goto	l5694
	line	230
	
l633:	
	
l5732:	
;PR29.c: 230: else if(DAY==2)
	bcf	status, 5	;RP0=0, select bank0
	bcf	status, 6	;RP1=0, select bank0
	movf	(_DAY),w
	xorlw	02h
	skipz
	goto	u5731
	goto	u5730
u5731:
	goto	l5740
u5730:
	line	231
	
l5734:	
;PR29.c: 231: { day_location=0x10;
	movlw	(010h)
	movwf	(??_main+0)+0
	movf	(??_main+0)+0,w
	movwf	(_day_location)
	line	232
	
l5736:	
;PR29.c: 232: store_eeprom(0x2f,day_location+3+array_resp[3]);
	movf	(_day_location),w
	addwf	0+(_array_resp)+03h,w
	addlw	03h
	movwf	(??_main+0)+0
	movf	(??_main+0)+0,w
	movwf	(?_store_eeprom)
	movlw	(02Fh)
	fcall	_store_eeprom
	line	233
	
l5738:	
;PR29.c: 233: delay(100);
	movlw	0
	movwf	(?_delay+3)
	movlw	0
	movwf	(?_delay+2)
	movlw	0
	movwf	(?_delay+1)
	movlw	064h
	movwf	(?_delay)

	fcall	_delay
	line	234
;PR29.c: 234: }
	goto	l5694
	line	235
	
l635:	
	
l5740:	
;PR29.c: 235: else if(DAY==3)
	bcf	status, 5	;RP0=0, select bank0
	bcf	status, 6	;RP1=0, select bank0
	movf	(_DAY),w
	xorlw	03h
	skipz
	goto	u5741
	goto	u5740
u5741:
	goto	l5748
u5740:
	line	236
	
l5742:	
;PR29.c: 236: { day_location=0x20;
	movlw	(020h)
	movwf	(??_main+0)+0
	movf	(??_main+0)+0,w
	movwf	(_day_location)
	line	237
	
l5744:	
;PR29.c: 237: store_eeprom(0x2f,day_location+3+array_resp[3]);
	movf	(_day_location),w
	addwf	0+(_array_resp)+03h,w
	addlw	03h
	movwf	(??_main+0)+0
	movf	(??_main+0)+0,w
	movwf	(?_store_eeprom)
	movlw	(02Fh)
	fcall	_store_eeprom
	line	238
	
l5746:	
;PR29.c: 238: delay(100);
	movlw	0
	movwf	(?_delay+3)
	movlw	0
	movwf	(?_delay+2)
	movlw	0
	movwf	(?_delay+1)
	movlw	064h
	movwf	(?_delay)

	fcall	_delay
	line	239
;PR29.c: 239: }
	goto	l5694
	line	240
	
l637:	
	
l5748:	
;PR29.c: 240: else if(DAY==4)
	bcf	status, 5	;RP0=0, select bank0
	bcf	status, 6	;RP1=0, select bank0
	movf	(_DAY),w
	xorlw	04h
	skipz
	goto	u5751
	goto	u5750
u5751:
	goto	l5756
u5750:
	line	241
	
l5750:	
;PR29.c: 241: { day_location=0x30;
	movlw	(030h)
	movwf	(??_main+0)+0
	movf	(??_main+0)+0,w
	movwf	(_day_location)
	line	242
	
l5752:	
;PR29.c: 242: store_eeprom(0x2f,day_location+3+array_resp[3]);
	movf	(_day_location),w
	addwf	0+(_array_resp)+03h,w
	addlw	03h
	movwf	(??_main+0)+0
	movf	(??_main+0)+0,w
	movwf	(?_store_eeprom)
	movlw	(02Fh)
	fcall	_store_eeprom
	line	243
	
l5754:	
;PR29.c: 243: delay(100);
	movlw	0
	movwf	(?_delay+3)
	movlw	0
	movwf	(?_delay+2)
	movlw	0
	movwf	(?_delay+1)
	movlw	064h
	movwf	(?_delay)

	fcall	_delay
	line	244
;PR29.c: 244: }
	goto	l5694
	line	245
	
l639:	
	
l5756:	
;PR29.c: 245: else if(DAY==5)
	bcf	status, 5	;RP0=0, select bank0
	bcf	status, 6	;RP1=0, select bank0
	movf	(_DAY),w
	xorlw	05h
	skipz
	goto	u5761
	goto	u5760
u5761:
	goto	l5694
u5760:
	line	246
	
l5758:	
;PR29.c: 246: { day_location=0x40;
	movlw	(040h)
	movwf	(??_main+0)+0
	movf	(??_main+0)+0,w
	movwf	(_day_location)
	line	247
	
l5760:	
;PR29.c: 247: store_eeprom(0x2f,day_location+3+array_resp[3]);
	movf	(_day_location),w
	addwf	0+(_array_resp)+03h,w
	addlw	03h
	movwf	(??_main+0)+0
	movf	(??_main+0)+0,w
	movwf	(?_store_eeprom)
	movlw	(02Fh)
	fcall	_store_eeprom
	line	248
	
l5762:	
;PR29.c: 248: delay(100);
	movlw	0
	movwf	(?_delay+3)
	movlw	0
	movwf	(?_delay+2)
	movlw	0
	movwf	(?_delay+1)
	movlw	064h
	movwf	(?_delay)

	fcall	_delay
	goto	l5694
	line	249
	
l641:	
	goto	l5694
	line	251
	
l640:	
	goto	l5694
	
l638:	
	goto	l5694
	
l636:	
	goto	l5694
	
l634:	
	goto	l5694
	
l632:	
	goto	l5694
	line	253
	
l628:	
	goto	l5694
	line	254
	
l642:	
	line	201
	goto	l5694
	
l643:	
	line	256
	
l625:	
	line	199
	bcf	status, 5	;RP0=0, select bank0
	bcf	status, 6	;RP1=0, select bank0
	btfsc	(_mode_enter/8),(_mode_enter)&7
	goto	u5771
	goto	u5770
u5771:
	goto	l5768
u5770:
	
l5764:	
	btfsc	(_admin/8),(_admin)&7
	goto	u5781
	goto	u5780
u5781:
	goto	l5768
u5780:
	
l5766:	
	btfsc	(_usertype_enter/8),(_usertype_enter)&7
	goto	u5791
	goto	u5790
u5791:
	goto	l5694
u5790:
	goto	l5768
	
l645:	
	goto	l5768
	
l646:	
	line	257
	
l5768:	
;PR29.c: 249: }
;PR29.c: 251: }
;PR29.c: 253: }
;PR29.c: 254: }
;PR29.c: 256: }
;PR29.c: 257: lcd_clr();
	fcall	_lcd_clr
	line	258
	
l5770:	
;PR29.c: 258: mode(mode_count);
	bcf	status, 5	;RP0=0, select bank0
	bcf	status, 6	;RP1=0, select bank0
	movf	(_mode_count),w
	fcall	_mode
	line	259
	
l5772:	
;PR29.c: 259: delay(10);
	movlw	0
	movwf	(?_delay+3)
	movlw	0
	movwf	(?_delay+2)
	movlw	0
	movwf	(?_delay+1)
	movlw	0Ah
	movwf	(?_delay)

	fcall	_delay
	goto	l574
	line	262
	
l647:	
	line	131
	goto	l574
	
l648:	
	line	264
	
l649:	
	global	start
	ljmp	start
	opt stack 0
GLOBAL	__end_of_main
	__end_of_main:
;; =============== function _main ends ============

	signat	_main,88
	global	_mode
psect	text561,local,class=CODE,delta=2
global __ptext561
__ptext561:

;; *************** function _mode *****************
;; Defined at:
;;		line 359 in file "C:\Users\Phang\Desktop\9.80\PR 29\PR29.c"
;; Parameters:    Size  Location     Type
;;  data            1    wreg     unsigned char 
;; Auto vars:     Size  Location     Type
;;  data            1   44[BANK0 ] unsigned char 
;; Return value:  Size  Location     Type
;;		None               void
;; Registers used:
;;		wreg, fsr0l, fsr0h, status,2, status,0, btemp+1, pclath, cstack
;; Tracked objects:
;;		On entry : 0/0
;;		On exit  : 0/0
;;		Unchanged: 0/0
;; Data sizes:     COMMON   BANK0   BANK1   BANK3   BANK2
;;      Params:         0       0       0       0       0
;;      Locals:         0       1       0       0       0
;;      Temps:          0       2       0       0       0
;;      Totals:         0       3       0       0       0
;;Total ram usage:        3 bytes
;; Hardware stack levels used:    1
;; Hardware stack levels required when called:    6
;; This function calls:
;;		_lcd_clr
;;		_store_eeprom
;;		_lcd_goto
;;		_send_string
;;		_send_char
;;		_delay
;;		_AddNew
;;		_send_cmd
;;		_receive_reply
;;		_CheckAdmin
;;		_view_attendance
;;		_clear_attendance
;;		_upload_GUI
;;		_upload_HT
;; This function is called by:
;;		_main
;; This function uses a non-reentrant model
;;
psect	text561
	file	"C:\Users\Phang\Desktop\9.80\PR 29\PR29.c"
	line	359
	global	__size_of_mode
	__size_of_mode	equ	__end_of_mode-_mode
	
_mode:	
	opt	stack 1
; Regs used in _mode: [wreg-fsr0h+status,2+status,0+btemp+1+pclath+cstack]
;mode@data stored from wreg
	line	361
	bcf	status, 5	;RP0=0, select bank0
	bcf	status, 6	;RP1=0, select bank0
	movwf	(mode@data)
	
l5244:	
;PR29.c: 361: if (data==1)
	movf	(mode@data),w
	xorlw	01h
	skipz
	goto	u4911
	goto	u4910
u4911:
	goto	l5316
u4910:
	goto	l5314
	line	364
	
l5246:	
;PR29.c: 362: {
;PR29.c: 364: while(!day_enter)
	goto	l5314
	
l696:	
	line	366
;PR29.c: 365: {
;PR29.c: 366: if(!RA2)
	btfsc	(42/8),(42)&7
	goto	u4921
	goto	u4920
u4921:
	goto	l697
u4920:
	goto	l698
	line	368
	
l5248:	
;PR29.c: 367: {
;PR29.c: 368: while(!RA2);
	goto	l698
	
l699:	
	
l698:	
	btfss	(42/8),(42)&7
	goto	u4931
	goto	u4930
u4931:
	goto	l698
u4930:
	goto	l5250
	
l700:	
	line	369
	
l5250:	
;PR29.c: 369: if (day_count<5)
	movlw	(05h)
	subwf	(_day_count),w
	skipnc
	goto	u4941
	goto	u4940
u4941:
	goto	l5254
u4940:
	line	370
	
l5252:	
;PR29.c: 370: day_count++;
	movlw	(01h)
	movwf	(??_mode+0)+0
	movf	(??_mode+0)+0,w
	addwf	(_day_count),f
	goto	l5302
	line	371
	
l701:	
	line	372
	
l5254:	
;PR29.c: 371: else
;PR29.c: 372: day_count=1;
	clrf	(_day_count)
	bsf	status,0
	rlf	(_day_count),f
	goto	l5302
	
l702:	
	line	373
;PR29.c: 373: }
	goto	l5302
	line	374
	
l697:	
;PR29.c: 374: else if(!RA3)
	btfsc	(43/8),(43)&7
	goto	u4951
	goto	u4950
u4951:
	goto	l704
u4950:
	goto	l705
	line	376
	
l5256:	
;PR29.c: 375: {
;PR29.c: 376: while(!RA3);
	goto	l705
	
l706:	
	
l705:	
	btfss	(43/8),(43)&7
	goto	u4961
	goto	u4960
u4961:
	goto	l705
u4960:
	goto	l5258
	
l707:	
	line	377
	
l5258:	
;PR29.c: 377: if (day_count>1)
	movlw	(02h)
	subwf	(_day_count),w
	skipc
	goto	u4971
	goto	u4970
u4971:
	goto	l5262
u4970:
	line	378
	
l5260:	
;PR29.c: 378: day_count--;
	movlw	low(01h)
	subwf	(_day_count),f
	goto	l5302
	line	379
	
l708:	
	line	380
	
l5262:	
;PR29.c: 379: else
;PR29.c: 380: day_count=5;
	movlw	(05h)
	movwf	(??_mode+0)+0
	movf	(??_mode+0)+0,w
	movwf	(_day_count)
	goto	l5302
	
l709:	
	line	381
;PR29.c: 381: }
	goto	l5302
	line	382
	
l704:	
;PR29.c: 382: else if(!RA4)
	btfsc	(44/8),(44)&7
	goto	u4981
	goto	u4980
u4981:
	goto	l5302
u4980:
	line	384
	
l5264:	
;PR29.c: 383: {
;PR29.c: 384: lcd_clr();
	fcall	_lcd_clr
	line	385
	
l5266:	
;PR29.c: 385: RA1=1;
	bcf	status, 5	;RP0=0, select bank0
	bcf	status, 6	;RP1=0, select bank0
	bsf	(41/8),(41)&7
	line	386
;PR29.c: 386: while(!RA4);
	goto	l712
	
l713:	
	
l712:	
	btfss	(44/8),(44)&7
	goto	u4991
	goto	u4990
u4991:
	goto	l712
u4990:
	goto	l5268
	
l714:	
	line	387
	
l5268:	
;PR29.c: 387: if(day_count==1)
	movf	(_day_count),w
	xorlw	01h
	skipz
	goto	u5001
	goto	u5000
u5001:
	goto	l5272
u5000:
	line	388
	
l5270:	
;PR29.c: 388: { store_eeprom(day_count,0xff);
	movlw	(0FFh)
	movwf	(??_mode+0)+0
	movf	(??_mode+0)+0,w
	movwf	(?_store_eeprom)
	movf	(_day_count),w
	fcall	_store_eeprom
	line	390
;PR29.c: 390: }
	goto	l716
	line	391
	
l715:	
	
l5272:	
;PR29.c: 391: else if (day_count==2)
	bcf	status, 5	;RP0=0, select bank0
	bcf	status, 6	;RP1=0, select bank0
	movf	(_day_count),w
	xorlw	02h
	skipz
	goto	u5011
	goto	u5010
u5011:
	goto	l5276
u5010:
	line	392
	
l5274:	
;PR29.c: 392: { store_eeprom(day_count,0xff);
	movlw	(0FFh)
	movwf	(??_mode+0)+0
	movf	(??_mode+0)+0,w
	movwf	(?_store_eeprom)
	movf	(_day_count),w
	fcall	_store_eeprom
	line	394
;PR29.c: 394: }
	goto	l716
	line	395
	
l717:	
	
l5276:	
;PR29.c: 395: else if (day_count==3)
	bcf	status, 5	;RP0=0, select bank0
	bcf	status, 6	;RP1=0, select bank0
	movf	(_day_count),w
	xorlw	03h
	skipz
	goto	u5021
	goto	u5020
u5021:
	goto	l5280
u5020:
	line	396
	
l5278:	
;PR29.c: 396: { store_eeprom(day_count,0xff);
	movlw	(0FFh)
	movwf	(??_mode+0)+0
	movf	(??_mode+0)+0,w
	movwf	(?_store_eeprom)
	movf	(_day_count),w
	fcall	_store_eeprom
	line	398
;PR29.c: 398: }
	goto	l716
	line	399
	
l719:	
	
l5280:	
;PR29.c: 399: else if (day_count==4)
	bcf	status, 5	;RP0=0, select bank0
	bcf	status, 6	;RP1=0, select bank0
	movf	(_day_count),w
	xorlw	04h
	skipz
	goto	u5031
	goto	u5030
u5031:
	goto	l5284
u5030:
	line	400
	
l5282:	
;PR29.c: 400: { store_eeprom(day_count,0xff);
	movlw	(0FFh)
	movwf	(??_mode+0)+0
	movf	(??_mode+0)+0,w
	movwf	(?_store_eeprom)
	movf	(_day_count),w
	fcall	_store_eeprom
	line	402
;PR29.c: 402: }
	goto	l716
	line	403
	
l721:	
	
l5284:	
;PR29.c: 403: else if (day_count==5)
	bcf	status, 5	;RP0=0, select bank0
	bcf	status, 6	;RP1=0, select bank0
	movf	(_day_count),w
	xorlw	05h
	skipz
	goto	u5041
	goto	u5040
u5041:
	goto	l716
u5040:
	line	404
	
l5286:	
;PR29.c: 404: { store_eeprom(day_count,0xff);
	movlw	(0FFh)
	movwf	(??_mode+0)+0
	movf	(??_mode+0)+0,w
	movwf	(?_store_eeprom)
	movf	(_day_count),w
	fcall	_store_eeprom
	goto	l716
	line	406
	
l723:	
	goto	l716
	line	407
	
l722:	
	goto	l716
	
l720:	
	goto	l716
	
l718:	
	
l716:	
;PR29.c: 406: }
;PR29.c: 407: lcd_goto(0);
	movlw	(0)
	fcall	_lcd_goto
	line	408
	
l5288:	
;PR29.c: 408: send_string("Day ");
	movlw	low(STR_19|8000h)
	movwf	(?_send_string)
	movlw	high(STR_19|8000h)
	movwf	((?_send_string))+1
	fcall	_send_string
	line	409
	
l5290:	
;PR29.c: 409: lcd_goto(4);
	movlw	(04h)
	fcall	_lcd_goto
	line	410
	
l5292:	
;PR29.c: 410: send_char(0x30 + day_count);
	bcf	status, 5	;RP0=0, select bank0
	bcf	status, 6	;RP1=0, select bank0
	movf	(_day_count),w
	addlw	030h
	fcall	_send_char
	line	411
	
l5294:	
;PR29.c: 411: lcd_goto(20);
	movlw	(014h)
	fcall	_lcd_goto
	line	412
;PR29.c: 412: send_string("Selected");
	movlw	low(STR_20|8000h)
	movwf	(?_send_string)
	movlw	high(STR_20|8000h)
	movwf	((?_send_string))+1
	fcall	_send_string
	line	413
	
l5296:	
;PR29.c: 413: delay(200000);
	movlw	0
	movwf	(?_delay+3)
	movlw	03h
	movwf	(?_delay+2)
	movlw	0Dh
	movwf	(?_delay+1)
	movlw	040h
	movwf	(?_delay)

	fcall	_delay
	line	414
	
l5298:	
;PR29.c: 414: RA1=0;
	bcf	status, 5	;RP0=0, select bank0
	bcf	status, 6	;RP1=0, select bank0
	bcf	(41/8),(41)&7
	line	415
	
l5300:	
;PR29.c: 415: day_enter=1;
	bsf	(_day_enter/8),(_day_enter)&7
	goto	l5302
	line	416
	
l711:	
	goto	l5302
	line	417
	
l710:	
	goto	l5302
	
l703:	
	
l5302:	
;PR29.c: 416: }
;PR29.c: 417: lcd_goto(0);
	movlw	(0)
	fcall	_lcd_goto
	line	418
;PR29.c: 418: send_string("Today is Day ");
	movlw	low(STR_21|8000h)
	movwf	(?_send_string)
	movlw	high(STR_21|8000h)
	movwf	((?_send_string))+1
	fcall	_send_string
	line	419
	
l5304:	
;PR29.c: 419: lcd_goto(13);
	movlw	(0Dh)
	fcall	_lcd_goto
	line	420
	
l5306:	
;PR29.c: 420: send_char(0x30+day_count);
	bcf	status, 5	;RP0=0, select bank0
	bcf	status, 6	;RP1=0, select bank0
	movf	(_day_count),w
	addlw	030h
	fcall	_send_char
	line	421
	
l5308:	
;PR29.c: 421: lcd_goto(14);
	movlw	(0Eh)
	fcall	_lcd_goto
	line	422
	
l5310:	
;PR29.c: 422: send_string("/5");
	movlw	low(STR_22|8000h)
	movwf	(?_send_string)
	movlw	high(STR_22|8000h)
	movwf	((?_send_string))+1
	fcall	_send_string
	line	423
;PR29.c: 423: lcd_goto(20);
	movlw	(014h)
	fcall	_lcd_goto
	line	424
	
l5312:	
;PR29.c: 424: send_string("Press 3 to set  ");
	movlw	low(STR_23|8000h)
	movwf	(?_send_string)
	movlw	high(STR_23|8000h)
	movwf	((?_send_string))+1
	fcall	_send_string
	goto	l5314
	line	425
	
l695:	
	line	364
	
l5314:	
	bcf	status, 5	;RP0=0, select bank0
	bcf	status, 6	;RP1=0, select bank0
	btfss	(_day_enter/8),(_day_enter)&7
	goto	u5051
	goto	u5050
u5051:
	goto	l696
u5050:
	
l724:	
	line	426
;PR29.c: 425: }
;PR29.c: 426: day_enter=0;
	bcf	(_day_enter/8),(_day_enter)&7
	line	427
;PR29.c: 427: }
	goto	l725
	line	428
	
l694:	
	
l5316:	
;PR29.c: 428: else if (data==2)
	movf	(mode@data),w
	xorlw	02h
	skipz
	goto	u5061
	goto	u5060
u5061:
	goto	l5354
u5060:
	line	430
	
l5318:	
;PR29.c: 429: {
;PR29.c: 430: delay(10000);
	movlw	0
	movwf	(?_delay+3)
	movlw	0
	movwf	(?_delay+2)
	movlw	027h
	movwf	(?_delay+1)
	movlw	010h
	movwf	(?_delay)

	fcall	_delay
	line	432
;PR29.c: 432: while(location_enter==0)
	goto	l5352
	
l728:	
	line	434
	
l5320:	
;PR29.c: 433: {
;PR29.c: 434: lcd_goto(0);
	movlw	(0)
	fcall	_lcd_goto
	line	435
	
l5322:	
;PR29.c: 435: send_string("Choose User     ");
	movlw	low(STR_24|8000h)
	movwf	(?_send_string)
	movlw	high(STR_24|8000h)
	movwf	((?_send_string))+1
	fcall	_send_string
	line	436
	
l5324:	
;PR29.c: 436: lcd_goto(20);
	movlw	(014h)
	fcall	_lcd_goto
	line	437
;PR29.c: 437: send_string("User ");
	movlw	low(STR_25|8000h)
	movwf	(?_send_string)
	movlw	high(STR_25|8000h)
	movwf	((?_send_string))+1
	fcall	_send_string
	line	438
	
l5326:	
;PR29.c: 438: lcd_goto(25);
	movlw	(019h)
	fcall	_lcd_goto
	line	439
	
l5328:	
;PR29.c: 439: send_char(0x30 + location);
	bcf	status, 5	;RP0=0, select bank0
	bcf	status, 6	;RP1=0, select bank0
	movf	(_location),w
	addlw	030h
	fcall	_send_char
	line	440
	
l5330:	
;PR29.c: 440: if(!RA2)
	bcf	status, 5	;RP0=0, select bank0
	bcf	status, 6	;RP1=0, select bank0
	btfsc	(42/8),(42)&7
	goto	u5071
	goto	u5070
u5071:
	goto	l729
u5070:
	goto	l730
	line	442
	
l5332:	
;PR29.c: 441: {
;PR29.c: 442: while(!RA2);
	goto	l730
	
l731:	
	
l730:	
	btfss	(42/8),(42)&7
	goto	u5081
	goto	u5080
u5081:
	goto	l730
u5080:
	goto	l5334
	
l732:	
	line	443
	
l5334:	
;PR29.c: 443: if (location<5)
	movlw	(05h)
	subwf	(_location),w
	skipnc
	goto	u5091
	goto	u5090
u5091:
	goto	l5338
u5090:
	line	444
	
l5336:	
;PR29.c: 444: location++;
	movlw	(01h)
	movwf	(??_mode+0)+0
	movf	(??_mode+0)+0,w
	addwf	(_location),f
	goto	l5352
	line	445
	
l733:	
	line	446
	
l5338:	
;PR29.c: 445: else
;PR29.c: 446: location=1;
	clrf	(_location)
	bsf	status,0
	rlf	(_location),f
	goto	l5352
	
l734:	
	line	447
;PR29.c: 447: }
	goto	l5352
	line	448
	
l729:	
;PR29.c: 448: else if(!RA3)
	btfsc	(43/8),(43)&7
	goto	u5101
	goto	u5100
u5101:
	goto	l736
u5100:
	goto	l737
	line	450
	
l5340:	
;PR29.c: 449: {
;PR29.c: 450: while(!RA3);
	goto	l737
	
l738:	
	
l737:	
	btfss	(43/8),(43)&7
	goto	u5111
	goto	u5110
u5111:
	goto	l737
u5110:
	goto	l5342
	
l739:	
	line	451
	
l5342:	
;PR29.c: 451: if (location>1)
	movlw	(02h)
	subwf	(_location),w
	skipc
	goto	u5121
	goto	u5120
u5121:
	goto	l5346
u5120:
	line	452
	
l5344:	
;PR29.c: 452: location--;
	movlw	low(01h)
	subwf	(_location),f
	goto	l5352
	line	453
	
l740:	
	line	454
	
l5346:	
;PR29.c: 453: else
;PR29.c: 454: location=5;
	movlw	(05h)
	movwf	(??_mode+0)+0
	movf	(??_mode+0)+0,w
	movwf	(_location)
	goto	l5352
	
l741:	
	line	455
;PR29.c: 455: }
	goto	l5352
	line	456
	
l736:	
;PR29.c: 456: else if(!RA4)
	btfsc	(44/8),(44)&7
	goto	u5131
	goto	u5130
u5131:
	goto	l5352
u5130:
	goto	l744
	line	458
	
l5348:	
;PR29.c: 457: {
;PR29.c: 458: while(!RA4);
	goto	l744
	
l745:	
	
l744:	
	btfss	(44/8),(44)&7
	goto	u5141
	goto	u5140
u5141:
	goto	l744
u5140:
	goto	l5350
	
l746:	
	line	459
	
l5350:	
;PR29.c: 459: AddNew(location);
	movf	(_location),w
	fcall	_AddNew
	goto	l5352
	line	460
	
l743:	
	goto	l5352
	line	461
	
l742:	
	goto	l5352
	
l735:	
	goto	l5352
	
l727:	
	line	432
	
l5352:	
	bcf	status, 5	;RP0=0, select bank0
	bcf	status, 6	;RP1=0, select bank0
	btfss	(_location_enter/8),(_location_enter)&7
	goto	u5151
	goto	u5150
u5151:
	goto	l5320
u5150:
	goto	l725
	
l747:	
	line	462
;PR29.c: 460: }
;PR29.c: 461: }
;PR29.c: 462: }
	goto	l725
	line	463
	
l726:	
	
l5354:	
;PR29.c: 463: else if (data==3)
	movf	(mode@data),w
	xorlw	03h
	skipz
	goto	u5161
	goto	u5160
u5161:
	goto	l5396
u5160:
	line	465
	
l5356:	
;PR29.c: 464: {
;PR29.c: 465: delay(10000);
	movlw	0
	movwf	(?_delay+3)
	movlw	0
	movwf	(?_delay+2)
	movlw	027h
	movwf	(?_delay+1)
	movlw	010h
	movwf	(?_delay)

	fcall	_delay
	line	467
;PR29.c: 467: while(location_enter==0)
	goto	l5394
	
l751:	
	line	469
	
l5358:	
;PR29.c: 468: {
;PR29.c: 469: lcd_goto(0);
	movlw	(0)
	fcall	_lcd_goto
	line	470
	
l5360:	
;PR29.c: 470: send_string("Choose User     ");
	movlw	low(STR_26|8000h)
	movwf	(?_send_string)
	movlw	high(STR_26|8000h)
	movwf	((?_send_string))+1
	fcall	_send_string
	line	471
	
l5362:	
;PR29.c: 471: lcd_goto(20);
	movlw	(014h)
	fcall	_lcd_goto
	line	472
;PR29.c: 472: send_string("User ");
	movlw	low(STR_27|8000h)
	movwf	(?_send_string)
	movlw	high(STR_27|8000h)
	movwf	((?_send_string))+1
	fcall	_send_string
	line	473
	
l5364:	
;PR29.c: 473: lcd_goto(25);
	movlw	(019h)
	fcall	_lcd_goto
	line	474
	
l5366:	
;PR29.c: 474: send_char(0x30 + location);
	bcf	status, 5	;RP0=0, select bank0
	bcf	status, 6	;RP1=0, select bank0
	movf	(_location),w
	addlw	030h
	fcall	_send_char
	line	475
	
l5368:	
;PR29.c: 475: if(!RA2)
	bcf	status, 5	;RP0=0, select bank0
	bcf	status, 6	;RP1=0, select bank0
	btfsc	(42/8),(42)&7
	goto	u5171
	goto	u5170
u5171:
	goto	l752
u5170:
	goto	l753
	line	477
	
l5370:	
;PR29.c: 476: {
;PR29.c: 477: while(!RA2);
	goto	l753
	
l754:	
	
l753:	
	btfss	(42/8),(42)&7
	goto	u5181
	goto	u5180
u5181:
	goto	l753
u5180:
	goto	l5372
	
l755:	
	line	478
	
l5372:	
;PR29.c: 478: if (location<5)
	movlw	(05h)
	subwf	(_location),w
	skipnc
	goto	u5191
	goto	u5190
u5191:
	goto	l5376
u5190:
	line	479
	
l5374:	
;PR29.c: 479: location++;
	movlw	(01h)
	movwf	(??_mode+0)+0
	movf	(??_mode+0)+0,w
	addwf	(_location),f
	goto	l5394
	line	480
	
l756:	
	line	481
	
l5376:	
;PR29.c: 480: else
;PR29.c: 481: location=1;
	clrf	(_location)
	bsf	status,0
	rlf	(_location),f
	goto	l5394
	
l757:	
	line	482
;PR29.c: 482: }
	goto	l5394
	line	483
	
l752:	
;PR29.c: 483: else if(!RA3)
	btfsc	(43/8),(43)&7
	goto	u5201
	goto	u5200
u5201:
	goto	l759
u5200:
	goto	l760
	line	485
	
l5378:	
;PR29.c: 484: {
;PR29.c: 485: while(!RA3);
	goto	l760
	
l761:	
	
l760:	
	btfss	(43/8),(43)&7
	goto	u5211
	goto	u5210
u5211:
	goto	l760
u5210:
	goto	l5380
	
l762:	
	line	486
	
l5380:	
;PR29.c: 486: if (location>1)
	movlw	(02h)
	subwf	(_location),w
	skipc
	goto	u5221
	goto	u5220
u5221:
	goto	l5384
u5220:
	line	487
	
l5382:	
;PR29.c: 487: location--;
	movlw	low(01h)
	subwf	(_location),f
	goto	l5394
	line	488
	
l763:	
	line	489
	
l5384:	
;PR29.c: 488: else
;PR29.c: 489: location=5;
	movlw	(05h)
	movwf	(??_mode+0)+0
	movf	(??_mode+0)+0,w
	movwf	(_location)
	goto	l5394
	
l764:	
	line	490
;PR29.c: 490: }
	goto	l5394
	line	491
	
l759:	
;PR29.c: 491: else if(!RA4)
	btfsc	(44/8),(44)&7
	goto	u5231
	goto	u5230
u5231:
	goto	l5394
u5230:
	goto	l767
	line	493
	
l5386:	
;PR29.c: 492: {
;PR29.c: 493: while(!RA4);
	goto	l767
	
l768:	
	
l767:	
	btfss	(44/8),(44)&7
	goto	u5241
	goto	u5240
u5241:
	goto	l767
u5240:
	goto	l5388
	
l769:	
	line	494
	
l5388:	
;PR29.c: 494: send_cmd(0x04,0x00,location,0x03);
	clrc
	movlw	0
	btfsc	status,0
	movlw	1
	movwf	(?_send_cmd)
	movf	(_location),w
	movwf	(??_mode+0)+0
	movf	(??_mode+0)+0,w
	movwf	0+(?_send_cmd)+01h
	movlw	(03h)
	movwf	(??_mode+1)+0
	movf	(??_mode+1)+0,w
	movwf	0+(?_send_cmd)+02h
	movlw	(04h)
	fcall	_send_cmd
	line	495
;PR29.c: 495: delay(10);
	movlw	0
	movwf	(?_delay+3)
	movlw	0
	movwf	(?_delay+2)
	movlw	0
	movwf	(?_delay+1)
	movlw	0Ah
	movwf	(?_delay)

	fcall	_delay
	line	496
	
l5390:	
;PR29.c: 496: receive_reply();
	fcall	_receive_reply
	line	497
	
l5392:	
;PR29.c: 497: location_enter=1;
	bcf	status, 5	;RP0=0, select bank0
	bcf	status, 6	;RP1=0, select bank0
	bsf	(_location_enter/8),(_location_enter)&7
	goto	l5394
	line	498
	
l766:	
	goto	l5394
	line	499
	
l765:	
	goto	l5394
	
l758:	
	goto	l5394
	
l750:	
	line	467
	
l5394:	
	bcf	status, 5	;RP0=0, select bank0
	bcf	status, 6	;RP1=0, select bank0
	btfss	(_location_enter/8),(_location_enter)&7
	goto	u5251
	goto	u5250
u5251:
	goto	l5358
u5250:
	goto	l725
	
l770:	
	line	500
;PR29.c: 498: }
;PR29.c: 499: }
;PR29.c: 500: }
	goto	l725
	line	501
	
l749:	
	
l5396:	
;PR29.c: 501: else if (data==4)
	movf	(mode@data),w
	xorlw	04h
	skipz
	goto	u5261
	goto	u5260
u5261:
	goto	l5420
u5260:
	line	503
	
l5398:	
;PR29.c: 502: {
;PR29.c: 503: send_cmd(0x05,0x00,location,0x03);
	clrc
	movlw	0
	btfsc	status,0
	movlw	1
	movwf	(?_send_cmd)
	movf	(_location),w
	movwf	(??_mode+0)+0
	movf	(??_mode+0)+0,w
	movwf	0+(?_send_cmd)+01h
	movlw	(03h)
	movwf	(??_mode+1)+0
	movf	(??_mode+1)+0,w
	movwf	0+(?_send_cmd)+02h
	movlw	(05h)
	fcall	_send_cmd
	line	504
;PR29.c: 504: delay(10);
	movlw	0
	movwf	(?_delay+3)
	movlw	0
	movwf	(?_delay+2)
	movlw	0
	movwf	(?_delay+1)
	movlw	0Ah
	movwf	(?_delay)

	fcall	_delay
	line	505
	
l5400:	
;PR29.c: 505: receive_reply();
	fcall	_receive_reply
	line	506
	
l5402:	
;PR29.c: 506: if(error!=1)
	bcf	status, 5	;RP0=0, select bank0
	bcf	status, 6	;RP1=0, select bank0
	btfsc	(_error/8),(_error)&7
	goto	u5271
	goto	u5270
u5271:
	goto	l725
u5270:
	goto	l5404
	line	509
;PR29.c: 507: {
;PR29.c: 509: do{
	
l774:	
	line	510
	
l5404:	
;PR29.c: 510: lcd_goto(0);
	movlw	(0)
	fcall	_lcd_goto
	line	511
	
l5406:	
;PR29.c: 511: send_string("New Admin Needed");
	movlw	low(STR_28|8000h)
	movwf	(?_send_string)
	movlw	high(STR_28|8000h)
	movwf	((?_send_string))+1
	fcall	_send_string
	line	512
	
l5408:	
;PR29.c: 512: delay(200000);
	movlw	0
	movwf	(?_delay+3)
	movlw	03h
	movwf	(?_delay+2)
	movlw	0Dh
	movwf	(?_delay+1)
	movlw	040h
	movwf	(?_delay)

	fcall	_delay
	line	513
	
l5410:	
;PR29.c: 513: lcd_goto(0);
	movlw	(0)
	fcall	_lcd_goto
	line	514
	
l5412:	
;PR29.c: 514: send_string("New Admin       ");
	movlw	low(STR_29|8000h)
	movwf	(?_send_string)
	movlw	high(STR_29|8000h)
	movwf	((?_send_string))+1
	fcall	_send_string
	line	515
;PR29.c: 515: lcd_goto(20);
	movlw	(014h)
	fcall	_lcd_goto
	line	516
	
l5414:	
;PR29.c: 516: send_string("Standby         ");
	movlw	low(STR_30|8000h)
	movwf	(?_send_string)
	movlw	high(STR_30|8000h)
	movwf	((?_send_string))+1
	fcall	_send_string
	line	517
	
l5416:	
;PR29.c: 517: delay(200000);
	movlw	0
	movwf	(?_delay+3)
	movlw	03h
	movwf	(?_delay+2)
	movlw	0Dh
	movwf	(?_delay+1)
	movlw	040h
	movwf	(?_delay)

	fcall	_delay
	line	518
;PR29.c: 518: AddNew(0xFF);
	movlw	(0FFh)
	fcall	_AddNew
	line	519
	
l5418:	
;PR29.c: 519: }while(error==1) ;
	bcf	status, 5	;RP0=0, select bank0
	bcf	status, 6	;RP1=0, select bank0
	btfsc	(_error/8),(_error)&7
	goto	u5281
	goto	u5280
u5281:
	goto	l5404
u5280:
	goto	l725
	
l775:	
	goto	l725
	line	520
	
l773:	
	line	523
;PR29.c: 520: }
;PR29.c: 523: }
	goto	l725
	line	525
	
l772:	
	
l5420:	
;PR29.c: 525: else if(data==5)
	movf	(mode@data),w
	xorlw	05h
	skipz
	goto	u5291
	goto	u5290
u5291:
	goto	l5454
u5290:
	line	527
	
l5422:	
;PR29.c: 526: {
;PR29.c: 527: lcd_goto(0);
	movlw	(0)
	fcall	_lcd_goto
	line	528
	
l5424:	
;PR29.c: 528: send_string("Verification of ");
	movlw	low(STR_31|8000h)
	movwf	(?_send_string)
	movlw	high(STR_31|8000h)
	movwf	((?_send_string))+1
	fcall	_send_string
	line	529
	
l5426:	
;PR29.c: 529: lcd_goto(20);
	movlw	(014h)
	fcall	_lcd_goto
	line	530
;PR29.c: 530: send_string("Formal Admin    ") ;
	movlw	low(STR_32|8000h)
	movwf	(?_send_string)
	movlw	high(STR_32|8000h)
	movwf	((?_send_string))+1
	fcall	_send_string
	line	531
	
l5428:	
;PR29.c: 531: delay(200000);
	movlw	0
	movwf	(?_delay+3)
	movlw	03h
	movwf	(?_delay+2)
	movlw	0Dh
	movwf	(?_delay+1)
	movlw	040h
	movwf	(?_delay)

	fcall	_delay
	line	532
	
l5430:	
;PR29.c: 532: CheckAdmin();
	fcall	_CheckAdmin
	line	533
	
l5432:	
;PR29.c: 533: if(error==0)
	bcf	status, 5	;RP0=0, select bank0
	bcf	status, 6	;RP1=0, select bank0
	btfsc	(_error/8),(_error)&7
	goto	u5301
	goto	u5300
u5301:
	goto	l725
u5300:
	line	535
	
l5434:	
;PR29.c: 534: {
;PR29.c: 535: lcd_goto(0);
	movlw	(0)
	fcall	_lcd_goto
	line	536
	
l5436:	
;PR29.c: 536: send_string("Deleting...");
	movlw	low(STR_33|8000h)
	movwf	(?_send_string)
	movlw	high(STR_33|8000h)
	movwf	((?_send_string))+1
	fcall	_send_string
	line	537
	
l5438:	
;PR29.c: 537: delay(50000);
	movlw	0
	movwf	(?_delay+3)
	movlw	0
	movwf	(?_delay+2)
	movlw	0C3h
	movwf	(?_delay+1)
	movlw	050h
	movwf	(?_delay)

	fcall	_delay
	line	538
	
l5440:	
;PR29.c: 538: send_cmd(0x04,0x00,0xFF,0x00);
	clrc
	movlw	0
	btfsc	status,0
	movlw	1
	movwf	(?_send_cmd)
	movlw	(0FFh)
	bcf	status, 5	;RP0=0, select bank0
	bcf	status, 6	;RP1=0, select bank0
	movwf	(??_mode+0)+0
	movf	(??_mode+0)+0,w
	movwf	0+(?_send_cmd)+01h
	clrc
	movlw	0
	btfsc	status,0
	movlw	1
	movwf	0+(?_send_cmd)+02h
	movlw	(04h)
	fcall	_send_cmd
	line	539
	
l5442:	
;PR29.c: 539: receive_reply();
	fcall	_receive_reply
	line	540
;PR29.c: 540: do{
	
l779:	
	line	541
;PR29.c: 541: lcd_goto(0);
	movlw	(0)
	fcall	_lcd_goto
	line	542
	
l5444:	
;PR29.c: 542: send_string("New Admin       ");
	movlw	low(STR_34|8000h)
	movwf	(?_send_string)
	movlw	high(STR_34|8000h)
	movwf	((?_send_string))+1
	fcall	_send_string
	line	543
	
l5446:	
;PR29.c: 543: lcd_goto(20);
	movlw	(014h)
	fcall	_lcd_goto
	line	544
;PR29.c: 544: send_string("Standby         ");
	movlw	low(STR_35|8000h)
	movwf	(?_send_string)
	movlw	high(STR_35|8000h)
	movwf	((?_send_string))+1
	fcall	_send_string
	line	545
	
l5448:	
;PR29.c: 545: delay(200000);
	movlw	0
	movwf	(?_delay+3)
	movlw	03h
	movwf	(?_delay+2)
	movlw	0Dh
	movwf	(?_delay+1)
	movlw	040h
	movwf	(?_delay)

	fcall	_delay
	line	546
	
l5450:	
;PR29.c: 546: AddNew(0xFF);
	movlw	(0FFh)
	fcall	_AddNew
	line	547
	
l5452:	
;PR29.c: 547: }while(error==1) ;
	bcf	status, 5	;RP0=0, select bank0
	bcf	status, 6	;RP1=0, select bank0
	btfsc	(_error/8),(_error)&7
	goto	u5311
	goto	u5310
u5311:
	goto	l779
u5310:
	goto	l725
	
l780:	
	goto	l725
	line	548
	
l778:	
	line	549
;PR29.c: 548: }
;PR29.c: 549: }
	goto	l725
	line	550
	
l777:	
	
l5454:	
;PR29.c: 550: else if(data==6)
	movf	(mode@data),w
	xorlw	06h
	skipz
	goto	u5321
	goto	u5320
u5321:
	goto	l5458
u5320:
	line	552
	
l5456:	
;PR29.c: 551: {
;PR29.c: 552: view_attendance();
	fcall	_view_attendance
	line	553
;PR29.c: 553: }
	goto	l725
	line	554
	
l782:	
	
l5458:	
;PR29.c: 554: else if(data==7)
	bcf	status, 5	;RP0=0, select bank0
	bcf	status, 6	;RP1=0, select bank0
	movf	(mode@data),w
	xorlw	07h
	skipz
	goto	u5331
	goto	u5330
u5331:
	goto	l5472
u5330:
	line	556
	
l5460:	
;PR29.c: 555: {
;PR29.c: 556: RA1=1;
	bsf	(41/8),(41)&7
	line	557
	
l5462:	
;PR29.c: 557: clear_attendance();
	fcall	_clear_attendance
	line	558
;PR29.c: 558: lcd_goto(0);
	movlw	(0)
	fcall	_lcd_goto
	line	559
	
l5464:	
;PR29.c: 559: send_string("Attendance      ");
	movlw	low(STR_36|8000h)
	movwf	(?_send_string)
	movlw	high(STR_36|8000h)
	movwf	((?_send_string))+1
	fcall	_send_string
	line	560
	
l5466:	
;PR29.c: 560: lcd_goto(20);
	movlw	(014h)
	fcall	_lcd_goto
	line	561
;PR29.c: 561: send_string("Cleared         ");
	movlw	low(STR_37|8000h)
	movwf	(?_send_string)
	movlw	high(STR_37|8000h)
	movwf	((?_send_string))+1
	fcall	_send_string
	line	562
	
l5468:	
;PR29.c: 562: delay(200000);
	movlw	0
	movwf	(?_delay+3)
	movlw	03h
	movwf	(?_delay+2)
	movlw	0Dh
	movwf	(?_delay+1)
	movlw	040h
	movwf	(?_delay)

	fcall	_delay
	line	563
	
l5470:	
;PR29.c: 563: RA1=0;
	bcf	status, 5	;RP0=0, select bank0
	bcf	status, 6	;RP1=0, select bank0
	bcf	(41/8),(41)&7
	line	564
;PR29.c: 564: }
	goto	l725
	line	565
	
l784:	
	
l5472:	
;PR29.c: 565: else if(data==8)
	movf	(mode@data),w
	xorlw	08h
	skipz
	goto	u5341
	goto	u5340
u5341:
	goto	l725
u5340:
	goto	l5530
	line	568
	
l5474:	
;PR29.c: 566: {
;PR29.c: 568: while(export_select==0)
	goto	l5530
	
l788:	
	line	570
	
l5476:	
;PR29.c: 569: {
;PR29.c: 570: lcd_goto(0);
	movlw	(0)
	fcall	_lcd_goto
	line	571
	
l5478:	
;PR29.c: 571: send_string("1. Export to GUI");
	movlw	low(STR_38|8000h)
	movwf	(?_send_string)
	movlw	high(STR_38|8000h)
	movwf	((?_send_string))+1
	fcall	_send_string
	line	572
	
l5480:	
;PR29.c: 572: lcd_goto(20);
	movlw	(014h)
	fcall	_lcd_goto
	line	573
;PR29.c: 573: send_string("2. Export to HT ");
	movlw	low(STR_39|8000h)
	movwf	(?_send_string)
	movlw	high(STR_39|8000h)
	movwf	((?_send_string))+1
	fcall	_send_string
	line	574
	
l5482:	
;PR29.c: 574: if(!RA2)
	bcf	status, 5	;RP0=0, select bank0
	bcf	status, 6	;RP1=0, select bank0
	btfsc	(42/8),(42)&7
	goto	u5351
	goto	u5350
u5351:
	goto	l5506
u5350:
	goto	l790
	line	576
	
l5484:	
;PR29.c: 575: {
;PR29.c: 576: while(!RA2);
	goto	l790
	
l791:	
	
l790:	
	btfss	(42/8),(42)&7
	goto	u5361
	goto	u5360
u5361:
	goto	l790
u5360:
	goto	l5486
	
l792:	
	line	577
	
l5486:	
;PR29.c: 577: lcd_clr();
	fcall	_lcd_clr
	line	578
;PR29.c: 578: lcd_goto(0);
	movlw	(0)
	fcall	_lcd_goto
	line	579
	
l5488:	
;PR29.c: 579: send_string("Uploading...    ");
	movlw	low(STR_40|8000h)
	movwf	(?_send_string)
	movlw	high(STR_40|8000h)
	movwf	((?_send_string))+1
	fcall	_send_string
	line	580
	
l5490:	
;PR29.c: 580: RA0=1;
	bcf	status, 5	;RP0=0, select bank0
	bcf	status, 6	;RP1=0, select bank0
	bsf	(40/8),(40)&7
	line	581
	
l5492:	
;PR29.c: 581: delay(150000);
	movlw	0
	movwf	(?_delay+3)
	movlw	02h
	movwf	(?_delay+2)
	movlw	049h
	movwf	(?_delay+1)
	movlw	0F0h
	movwf	(?_delay)

	fcall	_delay
	line	582
	
l5494:	
;PR29.c: 582: upload_GUI();
	fcall	_upload_GUI
	line	583
	
l5496:	
;PR29.c: 583: lcd_goto(20);
	movlw	(014h)
	fcall	_lcd_goto
	line	584
	
l5498:	
;PR29.c: 584: send_string("Done            ");
	movlw	low(STR_41|8000h)
	movwf	(?_send_string)
	movlw	high(STR_41|8000h)
	movwf	((?_send_string))+1
	fcall	_send_string
	line	585
	
l5500:	
;PR29.c: 585: delay(100000);
	movlw	0
	movwf	(?_delay+3)
	movlw	01h
	movwf	(?_delay+2)
	movlw	086h
	movwf	(?_delay+1)
	movlw	0A0h
	movwf	(?_delay)

	fcall	_delay
	line	586
	
l5502:	
;PR29.c: 586: RA0=0;
	bcf	status, 5	;RP0=0, select bank0
	bcf	status, 6	;RP1=0, select bank0
	bcf	(40/8),(40)&7
	line	587
	
l5504:	
;PR29.c: 587: export_select=1;
	bsf	(_export_select/8),(_export_select)&7
	goto	l5506
	line	589
	
l789:	
	line	590
	
l5506:	
;PR29.c: 589: }
;PR29.c: 590: if(!RA3)
	btfsc	(43/8),(43)&7
	goto	u5371
	goto	u5370
u5371:
	goto	l5530
u5370:
	goto	l794
	line	592
	
l5508:	
;PR29.c: 591: {
;PR29.c: 592: while(!RA3);
	goto	l794
	
l795:	
	
l794:	
	btfss	(43/8),(43)&7
	goto	u5381
	goto	u5380
u5381:
	goto	l794
u5380:
	goto	l5510
	
l796:	
	line	593
	
l5510:	
;PR29.c: 593: lcd_clr();
	fcall	_lcd_clr
	line	594
;PR29.c: 594: lcd_goto(0);
	movlw	(0)
	fcall	_lcd_goto
	line	595
	
l5512:	
;PR29.c: 595: send_string("Uploading...    ");
	movlw	low(STR_42|8000h)
	movwf	(?_send_string)
	movlw	high(STR_42|8000h)
	movwf	((?_send_string))+1
	fcall	_send_string
	line	596
	
l5514:	
;PR29.c: 596: RA0=1;
	bcf	status, 5	;RP0=0, select bank0
	bcf	status, 6	;RP1=0, select bank0
	bsf	(40/8),(40)&7
	line	597
	
l5516:	
;PR29.c: 597: delay(150000);
	movlw	0
	movwf	(?_delay+3)
	movlw	02h
	movwf	(?_delay+2)
	movlw	049h
	movwf	(?_delay+1)
	movlw	0F0h
	movwf	(?_delay)

	fcall	_delay
	line	598
	
l5518:	
;PR29.c: 598: upload_HT();
	fcall	_upload_HT
	line	599
	
l5520:	
;PR29.c: 599: lcd_goto(20);
	movlw	(014h)
	fcall	_lcd_goto
	line	600
	
l5522:	
;PR29.c: 600: send_string("Done            ");
	movlw	low(STR_43|8000h)
	movwf	(?_send_string)
	movlw	high(STR_43|8000h)
	movwf	((?_send_string))+1
	fcall	_send_string
	line	601
	
l5524:	
;PR29.c: 601: delay(100000);
	movlw	0
	movwf	(?_delay+3)
	movlw	01h
	movwf	(?_delay+2)
	movlw	086h
	movwf	(?_delay+1)
	movlw	0A0h
	movwf	(?_delay)

	fcall	_delay
	line	602
	
l5526:	
;PR29.c: 602: RA0=0;
	bcf	status, 5	;RP0=0, select bank0
	bcf	status, 6	;RP1=0, select bank0
	bcf	(40/8),(40)&7
	line	603
	
l5528:	
;PR29.c: 603: export_select=1;
	bsf	(_export_select/8),(_export_select)&7
	goto	l5530
	line	605
	
l793:	
	goto	l5530
	line	606
	
l787:	
	line	568
	
l5530:	
	btfss	(_export_select/8),(_export_select)&7
	goto	u5391
	goto	u5390
u5391:
	goto	l5476
u5390:
	
l797:	
	line	607
;PR29.c: 605: }
;PR29.c: 606: }
;PR29.c: 607: export_select=0;
	bcf	(_export_select/8),(_export_select)&7
	goto	l725
	line	608
	
l786:	
	goto	l725
	line	609
	
l785:	
	goto	l725
	
l783:	
	goto	l725
	
l781:	
	goto	l725
	
l776:	
	goto	l725
	
l771:	
	goto	l725
	
l748:	
	
l725:	
;PR29.c: 608: }
;PR29.c: 609: mode_enter=0;
	bcf	status, 5	;RP0=0, select bank0
	bcf	status, 6	;RP1=0, select bank0
	bcf	(_mode_enter/8),(_mode_enter)&7
	line	610
;PR29.c: 610: location_enter=0;
	bcf	(_location_enter/8),(_location_enter)&7
	line	611
;PR29.c: 611: error=0;
	bcf	(_error/8),(_error)&7
	line	612
	
l798:	
	return
	opt stack 0
GLOBAL	__end_of_mode
	__end_of_mode:
;; =============== function _mode ends ============

	signat	_mode,4216
	global	_ResetAdmin
psect	text562,local,class=CODE,delta=2
global __ptext562
__ptext562:

;; *************** function _ResetAdmin *****************
;; Defined at:
;;		line 1176 in file "C:\Users\Phang\Desktop\9.80\PR 29\PR29.c"
;; Parameters:    Size  Location     Type
;;		None
;; Auto vars:     Size  Location     Type
;;		None
;; Return value:  Size  Location     Type
;;		None               void
;; Registers used:
;;		wreg, fsr0l, fsr0h, status,2, status,0, btemp+1, pclath, cstack
;; Tracked objects:
;;		On entry : 0/0
;;		On exit  : 0/0
;;		Unchanged: 0/0
;; Data sizes:     COMMON   BANK0   BANK1   BANK3   BANK2
;;      Params:         0       0       0       0       0
;;      Locals:         0       0       0       0       0
;;      Temps:          0       1       0       0       0
;;      Totals:         0       1       0       0       0
;;Total ram usage:        1 bytes
;; Hardware stack levels used:    1
;; Hardware stack levels required when called:    6
;; This function calls:
;;		_lcd_goto
;;		_send_string
;;		_delay
;;		_send_cmd
;;		_receive_reply
;;		_AddNew
;; This function is called by:
;;		_main
;; This function uses a non-reentrant model
;;
psect	text562
	file	"C:\Users\Phang\Desktop\9.80\PR 29\PR29.c"
	line	1176
	global	__size_of_ResetAdmin
	__size_of_ResetAdmin	equ	__end_of_ResetAdmin-_ResetAdmin
	
_ResetAdmin:	
	opt	stack 1
; Regs used in _ResetAdmin: [wreg-fsr0h+status,2+status,0+btemp+1+pclath+cstack]
	line	1177
	
l5220:	
;PR29.c: 1177: lcd_goto(0);
	movlw	(0)
	fcall	_lcd_goto
	line	1178
	
l5222:	
;PR29.c: 1178: send_string("Resetting Admin...");
	movlw	low(STR_66|8000h)
	movwf	(?_send_string)
	movlw	high(STR_66|8000h)
	movwf	((?_send_string))+1
	fcall	_send_string
	line	1179
	
l5224:	
;PR29.c: 1179: delay(200000);
	movlw	0
	movwf	(?_delay+3)
	movlw	03h
	movwf	(?_delay+2)
	movlw	0Dh
	movwf	(?_delay+1)
	movlw	040h
	movwf	(?_delay)

	fcall	_delay
	line	1180
	
l5226:	
;PR29.c: 1180: send_cmd(0x04,0x00,0xFF,0x00);
	clrc
	movlw	0
	btfsc	status,0
	movlw	1
	movwf	(?_send_cmd)
	movlw	(0FFh)
	bcf	status, 5	;RP0=0, select bank0
	bcf	status, 6	;RP1=0, select bank0
	movwf	(??_ResetAdmin+0)+0
	movf	(??_ResetAdmin+0)+0,w
	movwf	0+(?_send_cmd)+01h
	clrc
	movlw	0
	btfsc	status,0
	movlw	1
	movwf	0+(?_send_cmd)+02h
	movlw	(04h)
	fcall	_send_cmd
	line	1181
	
l5228:	
;PR29.c: 1181: receive_reply();
	fcall	_receive_reply
	line	1182
;PR29.c: 1182: lcd_goto(0);
	movlw	(0)
	fcall	_lcd_goto
	line	1183
	
l5230:	
;PR29.c: 1183: send_string("New Admin Needed");
	movlw	low(STR_67|8000h)
	movwf	(?_send_string)
	movlw	high(STR_67|8000h)
	movwf	((?_send_string))+1
	fcall	_send_string
	line	1184
	
l5232:	
;PR29.c: 1184: delay(200000);
	movlw	0
	movwf	(?_delay+3)
	movlw	03h
	movwf	(?_delay+2)
	movlw	0Dh
	movwf	(?_delay+1)
	movlw	040h
	movwf	(?_delay)

	fcall	_delay
	goto	l5234
	line	1185
;PR29.c: 1185: do{
	
l978:	
	line	1186
	
l5234:	
;PR29.c: 1186: lcd_goto(0);
	movlw	(0)
	fcall	_lcd_goto
	line	1187
	
l5236:	
;PR29.c: 1187: send_string("New Admin       ");
	movlw	low(STR_68|8000h)
	movwf	(?_send_string)
	movlw	high(STR_68|8000h)
	movwf	((?_send_string))+1
	fcall	_send_string
	line	1188
;PR29.c: 1188: lcd_goto(20);
	movlw	(014h)
	fcall	_lcd_goto
	line	1189
	
l5238:	
;PR29.c: 1189: send_string("Standby");
	movlw	low(STR_69|8000h)
	movwf	(?_send_string)
	movlw	high(STR_69|8000h)
	movwf	((?_send_string))+1
	fcall	_send_string
	line	1190
	
l5240:	
;PR29.c: 1190: delay(200000);
	movlw	0
	movwf	(?_delay+3)
	movlw	03h
	movwf	(?_delay+2)
	movlw	0Dh
	movwf	(?_delay+1)
	movlw	040h
	movwf	(?_delay)

	fcall	_delay
	line	1191
;PR29.c: 1191: AddNew(0xff);
	movlw	(0FFh)
	fcall	_AddNew
	line	1192
	
l5242:	
;PR29.c: 1192: } while(error==1) ;
	bcf	status, 5	;RP0=0, select bank0
	bcf	status, 6	;RP1=0, select bank0
	btfsc	(_error/8),(_error)&7
	goto	u4901
	goto	u4900
u4901:
	goto	l5234
u4900:
	goto	l980
	
l979:	
	line	1193
	
l980:	
	return
	opt stack 0
GLOBAL	__end_of_ResetAdmin
	__end_of_ResetAdmin:
;; =============== function _ResetAdmin ends ============

	signat	_ResetAdmin,88
	global	_AddNew
psect	text563,local,class=CODE,delta=2
global __ptext563
__ptext563:

;; *************** function _AddNew *****************
;; Defined at:
;;		line 761 in file "C:\Users\Phang\Desktop\9.80\PR 29\PR29.c"
;; Parameters:    Size  Location     Type
;;  data            1    wreg     unsigned char 
;; Auto vars:     Size  Location     Type
;;  data            1    6[BANK0 ] unsigned char 
;; Return value:  Size  Location     Type
;;		None               void
;; Registers used:
;;		wreg, fsr0l, fsr0h, status,2, status,0, btemp+1, pclath, cstack
;; Tracked objects:
;;		On entry : 0/0
;;		On exit  : 0/0
;;		Unchanged: 0/0
;; Data sizes:     COMMON   BANK0   BANK1   BANK3   BANK2
;;      Params:         0       0       0       0       0
;;      Locals:         0       1       0       0       0
;;      Temps:          0       2       0       0       0
;;      Totals:         0       3       0       0       0
;;Total ram usage:        3 bytes
;; Hardware stack levels used:    1
;; Hardware stack levels required when called:    5
;; This function calls:
;;		_send_cmd
;;		_lcd_goto
;;		_send_string
;;		_delay
;;		_receive_reply
;;		_lcd_clr
;; This function is called by:
;;		_mode
;;		_ResetAdmin
;; This function uses a non-reentrant model
;;
psect	text563
	file	"C:\Users\Phang\Desktop\9.80\PR 29\PR29.c"
	line	761
	global	__size_of_AddNew
	__size_of_AddNew	equ	__end_of_AddNew-_AddNew
	
_AddNew:	
	opt	stack 1
; Regs used in _AddNew: [wreg-fsr0h+status,2+status,0+btemp+1+pclath+cstack]
;AddNew@data stored from wreg
	bcf	status, 5	;RP0=0, select bank0
	bcf	status, 6	;RP1=0, select bank0
	movwf	(AddNew@data)
	line	762
	
l5184:	
;PR29.c: 762: send_cmd(0x01,0x00,data,0x03);
	clrc
	movlw	0
	btfsc	status,0
	movlw	1
	movwf	(?_send_cmd)
	movf	(AddNew@data),w
	movwf	(??_AddNew+0)+0
	movf	(??_AddNew+0)+0,w
	movwf	0+(?_send_cmd)+01h
	movlw	(03h)
	movwf	(??_AddNew+1)+0
	movf	(??_AddNew+1)+0,w
	movwf	0+(?_send_cmd)+02h
	movlw	(01h)
	fcall	_send_cmd
	line	763
;PR29.c: 763: lcd_goto(0);
	movlw	(0)
	fcall	_lcd_goto
	line	764
	
l5186:	
;PR29.c: 764: send_string("Place your thumb");
	movlw	low(STR_59|8000h)
	movwf	(?_send_string)
	movlw	high(STR_59|8000h)
	movwf	((?_send_string))+1
	fcall	_send_string
	line	765
	
l5188:	
;PR29.c: 765: lcd_goto(20);
	movlw	(014h)
	fcall	_lcd_goto
	line	766
;PR29.c: 766: send_string("on the window");
	movlw	low(STR_60|8000h)
	movwf	(?_send_string)
	movlw	high(STR_60|8000h)
	movwf	((?_send_string))+1
	fcall	_send_string
	line	767
	
l5190:	
;PR29.c: 767: delay(5000);
	movlw	0
	movwf	(?_delay+3)
	movlw	0
	movwf	(?_delay+2)
	movlw	013h
	movwf	(?_delay+1)
	movlw	088h
	movwf	(?_delay)

	fcall	_delay
	line	768
	
l5192:	
;PR29.c: 768: receive_reply();
	fcall	_receive_reply
	line	769
	
l5194:	
;PR29.c: 769: location_enter=1;
	bcf	status, 5	;RP0=0, select bank0
	bcf	status, 6	;RP1=0, select bank0
	bsf	(_location_enter/8),(_location_enter)&7
	line	770
	
l5196:	
;PR29.c: 770: if(!error)
	btfsc	(_error/8),(_error)&7
	goto	u4881
	goto	u4880
u4881:
	goto	l835
u4880:
	line	772
	
l5198:	
;PR29.c: 771: {
;PR29.c: 772: lcd_clr();
	fcall	_lcd_clr
	line	773
;PR29.c: 773: lcd_goto(0);
	movlw	(0)
	fcall	_lcd_goto
	line	774
	
l5200:	
;PR29.c: 774: send_string("Scanning...     ");
	movlw	low(STR_61|8000h)
	movwf	(?_send_string)
	movlw	high(STR_61|8000h)
	movwf	((?_send_string))+1
	fcall	_send_string
	line	775
	
l5202:	
;PR29.c: 775: lcd_goto(20);
	movlw	(014h)
	fcall	_lcd_goto
	line	776
;PR29.c: 776: send_string("Verification 1/2");
	movlw	low(STR_62|8000h)
	movwf	(?_send_string)
	movlw	high(STR_62|8000h)
	movwf	((?_send_string))+1
	fcall	_send_string
	line	777
	
l5204:	
;PR29.c: 777: send_cmd(0x02,0x00,data,0x03);
	clrc
	movlw	0
	btfsc	status,0
	movlw	1
	movwf	(?_send_cmd)
	bcf	status, 5	;RP0=0, select bank0
	bcf	status, 6	;RP1=0, select bank0
	movf	(AddNew@data),w
	movwf	(??_AddNew+0)+0
	movf	(??_AddNew+0)+0,w
	movwf	0+(?_send_cmd)+01h
	movlw	(03h)
	movwf	(??_AddNew+1)+0
	movf	(??_AddNew+1)+0,w
	movwf	0+(?_send_cmd)+02h
	movlw	(02h)
	fcall	_send_cmd
	line	778
	
l5206:	
;PR29.c: 778: receive_reply();
	fcall	_receive_reply
	line	779
	
l5208:	
;PR29.c: 779: if(!error)
	bcf	status, 5	;RP0=0, select bank0
	bcf	status, 6	;RP1=0, select bank0
	btfsc	(_error/8),(_error)&7
	goto	u4891
	goto	u4890
u4891:
	goto	l835
u4890:
	line	781
	
l5210:	
;PR29.c: 780: {
;PR29.c: 781: lcd_clr();
	fcall	_lcd_clr
	line	782
;PR29.c: 782: lcd_goto(0);
	movlw	(0)
	fcall	_lcd_goto
	line	783
	
l5212:	
;PR29.c: 783: send_string("Scanning...     ");
	movlw	low(STR_63|8000h)
	movwf	(?_send_string)
	movlw	high(STR_63|8000h)
	movwf	((?_send_string))+1
	fcall	_send_string
	line	784
	
l5214:	
;PR29.c: 784: lcd_goto(20);
	movlw	(014h)
	fcall	_lcd_goto
	line	785
;PR29.c: 785: send_string("Verification 2/2");
	movlw	low(STR_64|8000h)
	movwf	(?_send_string)
	movlw	high(STR_64|8000h)
	movwf	((?_send_string))+1
	fcall	_send_string
	line	786
	
l5216:	
;PR29.c: 786: send_cmd(0x03,0x00,data,0x03);
	clrc
	movlw	0
	btfsc	status,0
	movlw	1
	movwf	(?_send_cmd)
	bcf	status, 5	;RP0=0, select bank0
	bcf	status, 6	;RP1=0, select bank0
	movf	(AddNew@data),w
	movwf	(??_AddNew+0)+0
	movf	(??_AddNew+0)+0,w
	movwf	0+(?_send_cmd)+01h
	movlw	(03h)
	movwf	(??_AddNew+1)+0
	movf	(??_AddNew+1)+0,w
	movwf	0+(?_send_cmd)+02h
	movlw	(03h)
	fcall	_send_cmd
	line	787
	
l5218:	
;PR29.c: 787: receive_reply();
	fcall	_receive_reply
	goto	l835
	line	788
	
l834:	
	goto	l835
	line	790
	
l833:	
	line	792
	
l835:	
	return
	opt stack 0
GLOBAL	__end_of_AddNew
	__end_of_AddNew:
;; =============== function _AddNew ends ============

	signat	_AddNew,4216
	global	_CheckAdmin
psect	text564,local,class=CODE,delta=2
global __ptext564
__ptext564:

;; *************** function _CheckAdmin *****************
;; Defined at:
;;		line 749 in file "C:\Users\Phang\Desktop\9.80\PR 29\PR29.c"
;; Parameters:    Size  Location     Type
;;		None
;; Auto vars:     Size  Location     Type
;;		None
;; Return value:  Size  Location     Type
;;		None               void
;; Registers used:
;;		wreg, fsr0l, fsr0h, status,2, status,0, btemp+1, pclath, cstack
;; Tracked objects:
;;		On entry : 0/0
;;		On exit  : 0/0
;;		Unchanged: 0/0
;; Data sizes:     COMMON   BANK0   BANK1   BANK3   BANK2
;;      Params:         0       0       0       0       0
;;      Locals:         0       0       0       0       0
;;      Temps:          0       1       0       0       0
;;      Totals:         0       1       0       0       0
;;Total ram usage:        1 bytes
;; Hardware stack levels used:    1
;; Hardware stack levels required when called:    5
;; This function calls:
;;		_send_cmd
;;		_lcd_goto
;;		_send_string
;;		_delay
;;		_receive_reply
;; This function is called by:
;;		_main
;;		_mode
;; This function uses a non-reentrant model
;;
psect	text564
	file	"C:\Users\Phang\Desktop\9.80\PR 29\PR29.c"
	line	749
	global	__size_of_CheckAdmin
	__size_of_CheckAdmin	equ	__end_of_CheckAdmin-_CheckAdmin
	
_CheckAdmin:	
	opt	stack 1
; Regs used in _CheckAdmin: [wreg-fsr0h+status,2+status,0+btemp+1+pclath+cstack]
	line	750
	
l5174:	
;PR29.c: 750: send_cmd(0x0b,0x00,0xFF,0x00);
	clrc
	movlw	0
	btfsc	status,0
	movlw	1
	movwf	(?_send_cmd)
	movlw	(0FFh)
	bcf	status, 5	;RP0=0, select bank0
	bcf	status, 6	;RP1=0, select bank0
	movwf	(??_CheckAdmin+0)+0
	movf	(??_CheckAdmin+0)+0,w
	movwf	0+(?_send_cmd)+01h
	clrc
	movlw	0
	btfsc	status,0
	movlw	1
	movwf	0+(?_send_cmd)+02h
	movlw	(0Bh)
	fcall	_send_cmd
	line	751
;PR29.c: 751: lcd_goto(0);
	movlw	(0)
	fcall	_lcd_goto
	line	752
	
l5176:	
;PR29.c: 752: send_string("Place your thumb");
	movlw	low(STR_57|8000h)
	movwf	(?_send_string)
	movlw	high(STR_57|8000h)
	movwf	((?_send_string))+1
	fcall	_send_string
	line	753
	
l5178:	
;PR29.c: 753: lcd_goto(20);
	movlw	(014h)
	fcall	_lcd_goto
	line	754
;PR29.c: 754: send_string("on the window");
	movlw	low(STR_58|8000h)
	movwf	(?_send_string)
	movlw	high(STR_58|8000h)
	movwf	((?_send_string))+1
	fcall	_send_string
	line	755
	
l5180:	
;PR29.c: 755: delay(100);
	movlw	0
	movwf	(?_delay+3)
	movlw	0
	movwf	(?_delay+2)
	movlw	0
	movwf	(?_delay+1)
	movlw	064h
	movwf	(?_delay)

	fcall	_delay
	line	756
	
l5182:	
;PR29.c: 756: receive_reply();
	fcall	_receive_reply
	line	757
	
l830:	
	return
	opt stack 0
GLOBAL	__end_of_CheckAdmin
	__end_of_CheckAdmin:
;; =============== function _CheckAdmin ends ============

	signat	_CheckAdmin,88
	global	_receive_reply
psect	text565,local,class=CODE,delta=2
global __ptext565
__ptext565:

;; *************** function _receive_reply *****************
;; Defined at:
;;		line 729 in file "C:\Users\Phang\Desktop\9.80\PR 29\PR29.c"
;; Parameters:    Size  Location     Type
;;		None
;; Auto vars:     Size  Location     Type
;;  i               1    3[BANK0 ] unsigned char 
;; Return value:  Size  Location     Type
;;		None               void
;; Registers used:
;;		wreg, fsr0l, fsr0h, status,2, status,0, btemp+1, pclath, cstack
;; Tracked objects:
;;		On entry : 0/0
;;		On exit  : 0/0
;;		Unchanged: 0/0
;; Data sizes:     COMMON   BANK0   BANK1   BANK3   BANK2
;;      Params:         0       0       0       0       0
;;      Locals:         0       1       0       0       0
;;      Temps:          0       2       0       0       0
;;      Totals:         0       3       0       0       0
;;Total ram usage:        3 bytes
;; Hardware stack levels used:    1
;; Hardware stack levels required when called:    4
;; This function calls:
;;		_uart_receive
;;		_display_status
;;		_delay
;; This function is called by:
;;		_main
;;		_mode
;;		_CheckAdmin
;;		_AddNew
;;		_ResetAdmin
;; This function uses a non-reentrant model
;;
psect	text565
	file	"C:\Users\Phang\Desktop\9.80\PR 29\PR29.c"
	line	729
	global	__size_of_receive_reply
	__size_of_receive_reply	equ	__end_of_receive_reply-_receive_reply
	
_receive_reply:	
	opt	stack 1
; Regs used in _receive_reply: [wreg-fsr0h+status,2+status,0+btemp+1+pclath+cstack]
	line	732
	
l5158:	
;PR29.c: 731: unsigned char i;
;PR29.c: 732: for(i=0;i<8;i++)
	clrc
	movlw	0
	btfsc	status,0
	movlw	1
	bcf	status, 5	;RP0=0, select bank0
	bcf	status, 6	;RP1=0, select bank0
	movwf	(receive_reply@i)
	
l5160:	
	movlw	(08h)
	subwf	(receive_reply@i),w
	skipc
	goto	u4861
	goto	u4860
u4861:
	goto	l5164
u4860:
	goto	l5170
	
l5162:	
	goto	l5170
	line	733
	
l820:	
	
l5164:	
;PR29.c: 733: array_resp[i]=uart_receive();
	fcall	_uart_receive
	bcf	status, 5	;RP0=0, select bank0
	bcf	status, 6	;RP1=0, select bank0
	movwf	(??_receive_reply+0)+0
	movf	(receive_reply@i),w
	addlw	_array_resp&0ffh
	movwf	fsr0
	movf	(??_receive_reply+0)+0,w
	bcf	status, 7	;select IRP bank0
	movwf	indf
	line	732
	
l5166:	
	movlw	(01h)
	movwf	(??_receive_reply+0)+0
	movf	(??_receive_reply+0)+0,w
	addwf	(receive_reply@i),f
	
l5168:	
	movlw	(08h)
	subwf	(receive_reply@i),w
	skipc
	goto	u4871
	goto	u4870
u4871:
	goto	l5164
u4870:
	goto	l5170
	
l821:	
	line	734
	
l5170:	
;PR29.c: 734: display_status(array_resp[1],array_resp[3],array_resp[4]);
	movf	0+(_array_resp)+03h,w
	movwf	(??_receive_reply+0)+0
	movf	(??_receive_reply+0)+0,w
	movwf	(?_display_status)
	movf	0+(_array_resp)+04h,w
	movwf	(??_receive_reply+1)+0
	movf	(??_receive_reply+1)+0,w
	movwf	0+(?_display_status)+01h
	movf	0+(_array_resp)+01h,w
	fcall	_display_status
	line	735
	
l5172:	
;PR29.c: 735: delay(1000);
	movlw	0
	movwf	(?_delay+3)
	movlw	0
	movwf	(?_delay+2)
	movlw	03h
	movwf	(?_delay+1)
	movlw	0E8h
	movwf	(?_delay)

	fcall	_delay
	line	737
	
l822:	
	return
	opt stack 0
GLOBAL	__end_of_receive_reply
	__end_of_receive_reply:
;; =============== function _receive_reply ends ============

	signat	_receive_reply,88
	global	_display_status
psect	text566,local,class=CODE,delta=2
global __ptext566
__ptext566:

;; *************** function _display_status *****************
;; Defined at:
;;		line 616 in file "C:\Users\Phang\Desktop\9.80\PR 29\PR29.c"
;; Parameters:    Size  Location     Type
;;  type            1    wreg     unsigned char 
;;  data0           1   12[COMMON] unsigned char 
;;  data            1   13[COMMON] unsigned char 
;; Auto vars:     Size  Location     Type
;;  type            1    0[BANK0 ] unsigned char 
;; Return value:  Size  Location     Type
;;		None               void
;; Registers used:
;;		wreg, fsr0l, fsr0h, status,2, status,0, btemp+1, pclath, cstack
;; Tracked objects:
;;		On entry : 0/0
;;		On exit  : 0/0
;;		Unchanged: 0/0
;; Data sizes:     COMMON   BANK0   BANK1   BANK3   BANK2
;;      Params:         2       0       0       0       0
;;      Locals:         0       1       0       0       0
;;      Temps:          0       0       0       0       0
;;      Totals:         2       1       0       0       0
;;Total ram usage:        3 bytes
;; Hardware stack levels used:    1
;; Hardware stack levels required when called:    3
;; This function calls:
;;		_lcd_clr
;;		_lcd_goto
;;		_send_string
;;		_delay
;;		_send_char
;; This function is called by:
;;		_receive_reply
;; This function uses a non-reentrant model
;;
psect	text566
	file	"C:\Users\Phang\Desktop\9.80\PR 29\PR29.c"
	line	616
	global	__size_of_display_status
	__size_of_display_status	equ	__end_of_display_status-_display_status
	
_display_status:	
	opt	stack 1
; Regs used in _display_status: [wreg-fsr0h+status,2+status,0+btemp+1+pclath+cstack]
;display_status@type stored from wreg
	bcf	status, 5	;RP0=0, select bank0
	bcf	status, 6	;RP1=0, select bank0
	movwf	(display_status@type)
	line	617
	
l5024:	
;PR29.c: 617: lcd_clr();
	fcall	_lcd_clr
	line	618
;PR29.c: 618: switch(data)
	goto	l5156
	line	620
;PR29.c: 619: {
;PR29.c: 620: case 0x00: RA1=1;
	
l802:	
	bcf	status, 5	;RP0=0, select bank0
	bcf	status, 6	;RP1=0, select bank0
	bsf	(41/8),(41)&7
	line	621
	
l5026:	
;PR29.c: 621: if((type != 1) && (type != 2))
	movf	(display_status@type),w
	xorlw	01h
	skipnz
	goto	u4811
	goto	u4810
u4811:
	goto	l5034
u4810:
	
l5028:	
	movf	(display_status@type),w
	xorlw	02h
	skipnz
	goto	u4821
	goto	u4820
u4821:
	goto	l5034
u4820:
	line	622
	
l5030:	
;PR29.c: 622: { lcd_goto(20);
	movlw	(014h)
	fcall	_lcd_goto
	line	623
	
l5032:	
;PR29.c: 623: send_string("Successful      ");
	movlw	low(STR_44|8000h)
	movwf	(?_send_string)
	movlw	high(STR_44|8000h)
	movwf	((?_send_string))+1
	fcall	_send_string
	line	624
;PR29.c: 624: }
	goto	l5050
	line	625
	
l803:	
	
l5034:	
;PR29.c: 625: else if (type ==1)
	bcf	status, 5	;RP0=0, select bank0
	bcf	status, 6	;RP1=0, select bank0
	movf	(display_status@type),w
	xorlw	01h
	skipz
	goto	u4831
	goto	u4830
u4831:
	goto	l5042
u4830:
	line	627
	
l5036:	
;PR29.c: 626: {
;PR29.c: 627: lcd_goto(0);
	movlw	(0)
	fcall	_lcd_goto
	line	628
	
l5038:	
;PR29.c: 628: send_string("Scanning...     ");
	movlw	low(STR_45|8000h)
	movwf	(?_send_string)
	movlw	high(STR_45|8000h)
	movwf	((?_send_string))+1
	fcall	_send_string
	line	629
	
l5040:	
;PR29.c: 629: lcd_goto(20);
	movlw	(014h)
	fcall	_lcd_goto
	line	630
;PR29.c: 630: send_string("Verification 1/2");
	movlw	low(STR_46|8000h)
	movwf	(?_send_string)
	movlw	high(STR_46|8000h)
	movwf	((?_send_string))+1
	fcall	_send_string
	line	631
;PR29.c: 631: }
	goto	l5050
	line	632
	
l805:	
	
l5042:	
;PR29.c: 632: else if (type ==2)
	bcf	status, 5	;RP0=0, select bank0
	bcf	status, 6	;RP1=0, select bank0
	movf	(display_status@type),w
	xorlw	02h
	skipz
	goto	u4841
	goto	u4840
u4841:
	goto	l5050
u4840:
	line	634
	
l5044:	
;PR29.c: 633: {
;PR29.c: 634: lcd_goto(0);
	movlw	(0)
	fcall	_lcd_goto
	line	635
	
l5046:	
;PR29.c: 635: send_string("Scanning...     ");
	movlw	low(STR_47|8000h)
	movwf	(?_send_string)
	movlw	high(STR_47|8000h)
	movwf	((?_send_string))+1
	fcall	_send_string
	line	636
	
l5048:	
;PR29.c: 636: lcd_goto(20);
	movlw	(014h)
	fcall	_lcd_goto
	line	637
;PR29.c: 637: send_string("Verification 2/2");
	movlw	low(STR_48|8000h)
	movwf	(?_send_string)
	movlw	high(STR_48|8000h)
	movwf	((?_send_string))+1
	fcall	_send_string
	goto	l5050
	line	638
	
l807:	
	goto	l5050
	line	639
	
l806:	
	goto	l5050
	
l804:	
	
l5050:	
;PR29.c: 638: }
;PR29.c: 639: delay(200000);
	movlw	0
	movwf	(?_delay+3)
	movlw	03h
	movwf	(?_delay+2)
	movlw	0Dh
	movwf	(?_delay+1)
	movlw	040h
	movwf	(?_delay)

	fcall	_delay
	line	640
	
l5052:	
;PR29.c: 640: RA1=0;
	bcf	status, 5	;RP0=0, select bank0
	bcf	status, 6	;RP1=0, select bank0
	bcf	(41/8),(41)&7
	line	641
	
l5054:	
;PR29.c: 641: error=0;
	bcf	(_error/8),(_error)&7
	line	642
	
l5056:	
;PR29.c: 642: lcd_clr();
	fcall	_lcd_clr
	line	643
;PR29.c: 643: break;
	goto	l817
	line	645
;PR29.c: 645: case 0X01: RA0=1;
	
l809:	
	bcf	status, 5	;RP0=0, select bank0
	bcf	status, 6	;RP1=0, select bank0
	bsf	(40/8),(40)&7
	line	646
;PR29.c: 646: RA5=1;
	bsf	(45/8),(45)&7
	line	647
	
l5058:	
;PR29.c: 647: lcd_goto(20);
	movlw	(014h)
	fcall	_lcd_goto
	line	648
	
l5060:	
;PR29.c: 648: send_string("Failed");
	movlw	low(STR_49|8000h)
	movwf	(?_send_string)
	movlw	high(STR_49|8000h)
	movwf	((?_send_string))+1
	fcall	_send_string
	line	649
	
l5062:	
;PR29.c: 649: delay(200000);
	movlw	0
	movwf	(?_delay+3)
	movlw	03h
	movwf	(?_delay+2)
	movlw	0Dh
	movwf	(?_delay+1)
	movlw	040h
	movwf	(?_delay)

	fcall	_delay
	line	650
	
l5064:	
;PR29.c: 650: RA5=0;
	bcf	status, 5	;RP0=0, select bank0
	bcf	status, 6	;RP1=0, select bank0
	bcf	(45/8),(45)&7
	line	651
	
l5066:	
;PR29.c: 651: RA0=0;
	bcf	(40/8),(40)&7
	line	652
	
l5068:	
;PR29.c: 652: error=1;
	bsf	(_error/8),(_error)&7
	line	653
	
l5070:	
;PR29.c: 653: lcd_clr();
	fcall	_lcd_clr
	line	654
;PR29.c: 654: break;
	goto	l817
	line	656
;PR29.c: 656: case 0x08: RA0=1;
	
l810:	
	bcf	status, 5	;RP0=0, select bank0
	bcf	status, 6	;RP1=0, select bank0
	bsf	(40/8),(40)&7
	line	657
;PR29.c: 657: RA5=1;
	bsf	(45/8),(45)&7
	line	658
	
l5072:	
;PR29.c: 658: lcd_goto(20);
	movlw	(014h)
	fcall	_lcd_goto
	line	659
	
l5074:	
;PR29.c: 659: send_string("Timeout");
	movlw	low(STR_50|8000h)
	movwf	(?_send_string)
	movlw	high(STR_50|8000h)
	movwf	((?_send_string))+1
	fcall	_send_string
	line	660
	
l5076:	
;PR29.c: 660: delay(200000);
	movlw	0
	movwf	(?_delay+3)
	movlw	03h
	movwf	(?_delay+2)
	movlw	0Dh
	movwf	(?_delay+1)
	movlw	040h
	movwf	(?_delay)

	fcall	_delay
	line	661
	
l5078:	
;PR29.c: 661: RA5=0;
	bcf	status, 5	;RP0=0, select bank0
	bcf	status, 6	;RP1=0, select bank0
	bcf	(45/8),(45)&7
	line	662
	
l5080:	
;PR29.c: 662: RA0=0;
	bcf	(40/8),(40)&7
	line	663
	
l5082:	
;PR29.c: 663: error=1;
	bsf	(_error/8),(_error)&7
	line	664
	
l5084:	
;PR29.c: 664: lcd_clr();
	fcall	_lcd_clr
	line	665
;PR29.c: 665: break;
	goto	l817
	line	667
;PR29.c: 667: case 0x07: RA0=1;
	
l811:	
	bcf	status, 5	;RP0=0, select bank0
	bcf	status, 6	;RP1=0, select bank0
	bsf	(40/8),(40)&7
	line	668
;PR29.c: 668: RA5=1;
	bsf	(45/8),(45)&7
	line	669
	
l5086:	
;PR29.c: 669: lcd_goto(20);
	movlw	(014h)
	fcall	_lcd_goto
	line	670
	
l5088:	
;PR29.c: 670: send_string("User Exist");
	movlw	low(STR_51|8000h)
	movwf	(?_send_string)
	movlw	high(STR_51|8000h)
	movwf	((?_send_string))+1
	fcall	_send_string
	line	671
	
l5090:	
;PR29.c: 671: delay(200000);
	movlw	0
	movwf	(?_delay+3)
	movlw	03h
	movwf	(?_delay+2)
	movlw	0Dh
	movwf	(?_delay+1)
	movlw	040h
	movwf	(?_delay)

	fcall	_delay
	line	672
	
l5092:	
;PR29.c: 672: RA5=0;
	bcf	status, 5	;RP0=0, select bank0
	bcf	status, 6	;RP1=0, select bank0
	bcf	(45/8),(45)&7
	line	673
	
l5094:	
;PR29.c: 673: RA0=0;
	bcf	(40/8),(40)&7
	line	674
	
l5096:	
;PR29.c: 674: error=1;
	bsf	(_error/8),(_error)&7
	line	675
	
l5098:	
;PR29.c: 675: lcd_clr();
	fcall	_lcd_clr
	line	676
;PR29.c: 676: break;
	goto	l817
	line	678
;PR29.c: 678: case 0x05: RA0=1;
	
l812:	
	bcf	status, 5	;RP0=0, select bank0
	bcf	status, 6	;RP1=0, select bank0
	bsf	(40/8),(40)&7
	line	679
;PR29.c: 679: RA5=1;
	bsf	(45/8),(45)&7
	line	680
	
l5100:	
;PR29.c: 680: lcd_goto(20);
	movlw	(014h)
	fcall	_lcd_goto
	line	681
	
l5102:	
;PR29.c: 681: send_string("Access Denied");
	movlw	low(STR_52|8000h)
	movwf	(?_send_string)
	movlw	high(STR_52|8000h)
	movwf	((?_send_string))+1
	fcall	_send_string
	line	682
	
l5104:	
;PR29.c: 682: delay(200000);
	movlw	0
	movwf	(?_delay+3)
	movlw	03h
	movwf	(?_delay+2)
	movlw	0Dh
	movwf	(?_delay+1)
	movlw	040h
	movwf	(?_delay)

	fcall	_delay
	line	683
	
l5106:	
;PR29.c: 683: RA5=0;
	bcf	status, 5	;RP0=0, select bank0
	bcf	status, 6	;RP1=0, select bank0
	bcf	(45/8),(45)&7
	line	684
	
l5108:	
;PR29.c: 684: RA0=0;
	bcf	(40/8),(40)&7
	line	685
	
l5110:	
;PR29.c: 685: error=1;
	bsf	(_error/8),(_error)&7
	line	686
	
l5112:	
;PR29.c: 686: lcd_clr();
	fcall	_lcd_clr
	line	687
;PR29.c: 687: break;
	goto	l817
	line	689
;PR29.c: 689: case 0x03: RA1=1;
	
l813:	
	bcf	status, 5	;RP0=0, select bank0
	bcf	status, 6	;RP1=0, select bank0
	bsf	(41/8),(41)&7
	line	690
	
l5114:	
;PR29.c: 690: if(data0!=0xFF)
	movf	(display_status@data0),w
	xorlw	0FFh
	skipnz
	goto	u4851
	goto	u4850
u4851:
	goto	l5128
u4850:
	line	692
	
l5116:	
;PR29.c: 691: {
;PR29.c: 692: lcd_goto(0);
	movlw	(0)
	fcall	_lcd_goto
	line	693
	
l5118:	
;PR29.c: 693: send_string("Hello User ");
	movlw	low(STR_53|8000h)
	movwf	(?_send_string)
	movlw	high(STR_53|8000h)
	movwf	((?_send_string))+1
	fcall	_send_string
	line	694
	
l5120:	
;PR29.c: 694: lcd_goto(11);
	movlw	(0Bh)
	fcall	_lcd_goto
	line	695
	
l5122:	
;PR29.c: 695: send_char(0x30 + data0);
	movf	(display_status@data0),w
	addlw	030h
	fcall	_send_char
	line	696
	
l5124:	
;PR29.c: 696: lcd_goto(20);
	movlw	(014h)
	fcall	_lcd_goto
	line	697
;PR29.c: 697: send_string("Welcome");
	movlw	low(STR_54|8000h)
	movwf	(?_send_string)
	movlw	high(STR_54|8000h)
	movwf	((?_send_string))+1
	fcall	_send_string
	line	698
	
l5126:	
;PR29.c: 698: error=0;
	bcf	status, 5	;RP0=0, select bank0
	bcf	status, 6	;RP1=0, select bank0
	bcf	(_error/8),(_error)&7
	line	699
;PR29.c: 699: }
	goto	l5132
	line	700
	
l814:	
	line	702
	
l5128:	
;PR29.c: 700: else
;PR29.c: 701: {
;PR29.c: 702: lcd_goto(0);
	movlw	(0)
	fcall	_lcd_goto
	line	703
	
l5130:	
;PR29.c: 703: send_string("Hello Admin");
	movlw	low(STR_55|8000h)
	movwf	(?_send_string)
	movlw	high(STR_55|8000h)
	movwf	((?_send_string))+1
	fcall	_send_string
	goto	l5132
	line	704
	
l815:	
	line	705
	
l5132:	
;PR29.c: 704: }
;PR29.c: 705: delay(200000);
	movlw	0
	movwf	(?_delay+3)
	movlw	03h
	movwf	(?_delay+2)
	movlw	0Dh
	movwf	(?_delay+1)
	movlw	040h
	movwf	(?_delay)

	fcall	_delay
	line	706
	
l5134:	
;PR29.c: 706: RA1=0;
	bcf	status, 5	;RP0=0, select bank0
	bcf	status, 6	;RP1=0, select bank0
	bcf	(41/8),(41)&7
	line	707
	
l5136:	
;PR29.c: 707: lcd_clr();
	fcall	_lcd_clr
	line	708
;PR29.c: 708: break;
	goto	l817
	line	711
;PR29.c: 711: default: RA0=1;
	
l816:	
	bcf	status, 5	;RP0=0, select bank0
	bcf	status, 6	;RP1=0, select bank0
	bsf	(40/8),(40)&7
	line	712
;PR29.c: 712: RA1=1;
	bsf	(41/8),(41)&7
	line	713
;PR29.c: 713: RA5=1;
	bsf	(45/8),(45)&7
	line	714
	
l5138:	
;PR29.c: 714: lcd_goto(20);
	movlw	(014h)
	fcall	_lcd_goto
	line	715
	
l5140:	
;PR29.c: 715: send_string("Error");
	movlw	low(STR_56|8000h)
	movwf	(?_send_string)
	movlw	high(STR_56|8000h)
	movwf	((?_send_string))+1
	fcall	_send_string
	line	716
	
l5142:	
;PR29.c: 716: delay(200000);
	movlw	0
	movwf	(?_delay+3)
	movlw	03h
	movwf	(?_delay+2)
	movlw	0Dh
	movwf	(?_delay+1)
	movlw	040h
	movwf	(?_delay)

	fcall	_delay
	line	717
	
l5144:	
;PR29.c: 717: RA5=0;
	bcf	status, 5	;RP0=0, select bank0
	bcf	status, 6	;RP1=0, select bank0
	bcf	(45/8),(45)&7
	line	718
	
l5146:	
;PR29.c: 718: RA0=0;
	bcf	(40/8),(40)&7
	line	719
	
l5148:	
;PR29.c: 719: RA1=0;
	bcf	(41/8),(41)&7
	line	720
	
l5150:	
;PR29.c: 720: error=1;
	bsf	(_error/8),(_error)&7
	line	721
	
l5152:	
;PR29.c: 721: lcd_clr();
	fcall	_lcd_clr
	line	722
;PR29.c: 722: break;
	goto	l817
	line	724
	
l5154:	
;PR29.c: 724: }
	goto	l817
	line	618
	
l801:	
	
l5156:	
	movf	(display_status@data),w
	; Switch size 1, requested type "space"
; Number of cases is 6, Range of values is 0 to 8
; switch strategies available:
; Name         Bytes Cycles
; simple_byte    19    10 (average)
; direct_byte    46    19 (fixed)
;	Chosen strategy is simple_byte

	xorlw	0^0	; case 0
	skipnz
	goto	l802
	xorlw	1^0	; case 1
	skipnz
	goto	l809
	xorlw	3^1	; case 3
	skipnz
	goto	l813
	xorlw	5^3	; case 5
	skipnz
	goto	l812
	xorlw	7^5	; case 7
	skipnz
	goto	l811
	xorlw	8^7	; case 8
	skipnz
	goto	l810
	goto	l816

	line	724
	
l808:	
	line	725
	
l817:	
	return
	opt stack 0
GLOBAL	__end_of_display_status
	__end_of_display_status:
;; =============== function _display_status ends ============

	signat	_display_status,12408
	global	_upload_HT
psect	text567,local,class=CODE,delta=2
global __ptext567
__ptext567:

;; *************** function _upload_HT *****************
;; Defined at:
;;		line 966 in file "C:\Users\Phang\Desktop\9.80\PR 29\PR29.c"
;; Parameters:    Size  Location     Type
;;		None
;; Auto vars:     Size  Location     Type
;;  array_title    40    0[BANK0 ] unsigned char [40]
;;  count           1   41[BANK0 ] unsigned char 
;;  address         1   40[BANK0 ] unsigned char 
;; Return value:  Size  Location     Type
;;		None               void
;; Registers used:
;;		wreg, fsr0l, fsr0h, status,2, status,0, pclath, cstack
;; Tracked objects:
;;		On entry : 0/0
;;		On exit  : 0/0
;;		Unchanged: 0/0
;; Data sizes:     COMMON   BANK0   BANK1   BANK3   BANK2
;;      Params:         0       0       0       0       0
;;      Locals:         0      42       0       0       0
;;      Temps:          4       0       0       0       0
;;      Totals:         4      42       0       0       0
;;Total ram usage:       46 bytes
;; Hardware stack levels used:    1
;; Hardware stack levels required when called:    2
;; This function calls:
;;		_uart_write
;;		_allign
;;		_get_eeprom
;; This function is called by:
;;		_mode
;; This function uses a non-reentrant model
;;
psect	text567
	file	"C:\Users\Phang\Desktop\9.80\PR 29\PR29.c"
	line	966
	global	__size_of_upload_HT
	__size_of_upload_HT	equ	__end_of_upload_HT-_upload_HT
	
_upload_HT:	
	opt	stack 4
; Regs used in _upload_HT: [wreg-fsr0h+status,2+status,0+pclath+cstack]
	line	969
	
l4796:	
;PR29.c: 967: unsigned char address;
;PR29.c: 968: unsigned char count;
;PR29.c: 969: unsigned char array_title[40]= {"+-+-+- Attendance List -+-+- Cytron PR29"};
	movlw	(upload_HT@array_title)&0ffh
	movwf	fsr0
	movlw	low(upload_HT@F567)
	movwf	(??_upload_HT+0)+0
	movf	fsr0,w
	movwf	((??_upload_HT+0)+0+1)
	movlw	40
	movwf	((??_upload_HT+0)+0+2)
u4530:
	movf	(??_upload_HT+0)+0,w
	movwf	fsr0
	bcf	status, 7	;select IRP bank1
	
	movf	indf,w
	movwf	((??_upload_HT+0)+0+3)
	incf	(??_upload_HT+0)+0,f
	movf	((??_upload_HT+0)+0+1),w
	movwf	fsr0
	
	movf	((??_upload_HT+0)+0+3),w
	movwf	indf
	incf	((??_upload_HT+0)+0+1),f
	decfsz	((??_upload_HT+0)+0+2),f
	goto	u4530
	line	971
	
l4798:	
;PR29.c: 971: for(count=0;count<40;count++)
	clrc
	movlw	0
	btfsc	status,0
	movlw	1
	bcf	status, 5	;RP0=0, select bank0
	bcf	status, 6	;RP1=0, select bank0
	movwf	(upload_HT@count)
	
l4800:	
	movlw	(028h)
	subwf	(upload_HT@count),w
	skipc
	goto	u4541
	goto	u4540
u4541:
	goto	l4804
u4540:
	goto	l4810
	
l4802:	
	goto	l4810
	line	972
	
l885:	
	
l4804:	
;PR29.c: 972: uart_write(2,array_title[count]);
	movf	(upload_HT@count),w
	addlw	upload_HT@array_title&0ffh
	movwf	fsr0
	bcf	status, 7	;select IRP bank0
	movf	indf,w
	movwf	(??_upload_HT+0)+0
	movf	(??_upload_HT+0)+0,w
	movwf	(?_uart_write)
	movlw	(02h)
	fcall	_uart_write
	line	971
	
l4806:	
	movlw	(01h)
	movwf	(??_upload_HT+0)+0
	movf	(??_upload_HT+0)+0,w
	bcf	status, 5	;RP0=0, select bank0
	bcf	status, 6	;RP1=0, select bank0
	addwf	(upload_HT@count),f
	
l4808:	
	movlw	(028h)
	subwf	(upload_HT@count),w
	skipc
	goto	u4551
	goto	u4550
u4551:
	goto	l4804
u4550:
	goto	l4810
	
l886:	
	line	973
	
l4810:	
;PR29.c: 973: for(count=0;count<20;count++)
	clrc
	movlw	0
	btfsc	status,0
	movlw	1
	movwf	(upload_HT@count)
	
l4812:	
	movlw	(014h)
	subwf	(upload_HT@count),w
	skipc
	goto	u4561
	goto	u4560
u4561:
	goto	l4816
u4560:
	goto	l4822
	
l4814:	
	goto	l4822
	line	974
	
l887:	
	
l4816:	
;PR29.c: 974: { uart_write(2,'+');
	movlw	(02Bh)
	movwf	(??_upload_HT+0)+0
	movf	(??_upload_HT+0)+0,w
	movwf	(?_uart_write)
	movlw	(02h)
	fcall	_uart_write
	line	975
;PR29.c: 975: uart_write(2,'-');
	movlw	(02Dh)
	movwf	(??_upload_HT+0)+0
	movf	(??_upload_HT+0)+0,w
	movwf	(?_uart_write)
	movlw	(02h)
	fcall	_uart_write
	line	973
	
l4818:	
	movlw	(01h)
	movwf	(??_upload_HT+0)+0
	movf	(??_upload_HT+0)+0,w
	bcf	status, 5	;RP0=0, select bank0
	bcf	status, 6	;RP1=0, select bank0
	addwf	(upload_HT@count),f
	
l4820:	
	movlw	(014h)
	subwf	(upload_HT@count),w
	skipc
	goto	u4571
	goto	u4570
u4571:
	goto	l4816
u4570:
	goto	l4822
	
l888:	
	line	977
	
l4822:	
;PR29.c: 976: }
;PR29.c: 977: for(count=0;count<80;count++)
	clrc
	movlw	0
	btfsc	status,0
	movlw	1
	movwf	(upload_HT@count)
	
l4824:	
	movlw	(050h)
	subwf	(upload_HT@count),w
	skipc
	goto	u4581
	goto	u4580
u4581:
	goto	l4828
u4580:
	goto	l4834
	
l4826:	
	goto	l4834
	line	978
	
l889:	
	
l4828:	
;PR29.c: 978: uart_write(2,' ');
	movlw	(020h)
	movwf	(??_upload_HT+0)+0
	movf	(??_upload_HT+0)+0,w
	movwf	(?_uart_write)
	movlw	(02h)
	fcall	_uart_write
	line	977
	
l4830:	
	movlw	(01h)
	movwf	(??_upload_HT+0)+0
	movf	(??_upload_HT+0)+0,w
	bcf	status, 5	;RP0=0, select bank0
	bcf	status, 6	;RP1=0, select bank0
	addwf	(upload_HT@count),f
	
l4832:	
	movlw	(050h)
	subwf	(upload_HT@count),w
	skipc
	goto	u4591
	goto	u4590
u4591:
	goto	l4828
u4590:
	goto	l4834
	
l890:	
	line	979
	
l4834:	
;PR29.c: 979: uart_write(2,'U');
	movlw	(055h)
	movwf	(??_upload_HT+0)+0
	movf	(??_upload_HT+0)+0,w
	movwf	(?_uart_write)
	movlw	(02h)
	fcall	_uart_write
	line	980
;PR29.c: 980: uart_write(2,'s');
	movlw	(073h)
	movwf	(??_upload_HT+0)+0
	movf	(??_upload_HT+0)+0,w
	movwf	(?_uart_write)
	movlw	(02h)
	fcall	_uart_write
	line	981
;PR29.c: 981: uart_write(2,'e');
	movlw	(065h)
	movwf	(??_upload_HT+0)+0
	movf	(??_upload_HT+0)+0,w
	movwf	(?_uart_write)
	movlw	(02h)
	fcall	_uart_write
	line	982
;PR29.c: 982: uart_write(2,'r');
	movlw	(072h)
	movwf	(??_upload_HT+0)+0
	movf	(??_upload_HT+0)+0,w
	movwf	(?_uart_write)
	movlw	(02h)
	fcall	_uart_write
	line	983
	
l4836:	
;PR29.c: 983: for(count=1;count<6;count++)
	bcf	status, 5	;RP0=0, select bank0
	bcf	status, 6	;RP1=0, select bank0
	clrf	(upload_HT@count)
	bsf	status,0
	rlf	(upload_HT@count),f
	
l4838:	
	movlw	(06h)
	subwf	(upload_HT@count),w
	skipc
	goto	u4601
	goto	u4600
u4601:
	goto	l4842
u4600:
	goto	l4848
	
l4840:	
	goto	l4848
	line	984
	
l891:	
	line	985
	
l4842:	
;PR29.c: 984: {
;PR29.c: 985: uart_write(2,' ');
	movlw	(020h)
	movwf	(??_upload_HT+0)+0
	movf	(??_upload_HT+0)+0,w
	movwf	(?_uart_write)
	movlw	(02h)
	fcall	_uart_write
	line	986
;PR29.c: 986: uart_write(2,0x30+count);
	bcf	status, 5	;RP0=0, select bank0
	bcf	status, 6	;RP1=0, select bank0
	movf	(upload_HT@count),w
	addlw	030h
	movwf	(??_upload_HT+0)+0
	movf	(??_upload_HT+0)+0,w
	movwf	(?_uart_write)
	movlw	(02h)
	fcall	_uart_write
	line	983
	
l4844:	
	movlw	(01h)
	movwf	(??_upload_HT+0)+0
	movf	(??_upload_HT+0)+0,w
	bcf	status, 5	;RP0=0, select bank0
	bcf	status, 6	;RP1=0, select bank0
	addwf	(upload_HT@count),f
	
l4846:	
	movlw	(06h)
	subwf	(upload_HT@count),w
	skipc
	goto	u4611
	goto	u4610
u4611:
	goto	l4842
u4610:
	goto	l4848
	
l892:	
	line	988
	
l4848:	
;PR29.c: 987: }
;PR29.c: 988: allign();
	fcall	_allign
	line	990
	
l4850:	
;PR29.c: 990: address=0x00;
	clrc
	movlw	0
	btfsc	status,0
	movlw	1
	bcf	status, 5	;RP0=0, select bank0
	bcf	status, 6	;RP1=0, select bank0
	movwf	(upload_HT@address)
	line	991
	
l4852:	
;PR29.c: 991: count=address;
	movf	(upload_HT@address),w
	movwf	(??_upload_HT+0)+0
	movf	(??_upload_HT+0)+0,w
	movwf	(upload_HT@count)
	line	992
	goto	l4860
	line	993
	
l894:	
	line	994
	
l4854:	
;PR29.c: 993: {
;PR29.c: 994: TEMP=get_eeprom(count);
	bcf	status, 5	;RP0=0, select bank0
	bcf	status, 6	;RP1=0, select bank0
	movf	(upload_HT@count),w
	fcall	_get_eeprom
	movwf	(??_upload_HT+0)+0
	movf	(??_upload_HT+0)+0,w
	bcf	status, 5	;RP0=0, select bank0
	bcf	status, 6	;RP1=0, select bank0
	movwf	(_TEMP)
	line	995
	
l4856:	
;PR29.c: 995: uart_write(2,TEMP);
	movf	(_TEMP),w
	movwf	(??_upload_HT+0)+0
	movf	(??_upload_HT+0)+0,w
	movwf	(?_uart_write)
	movlw	(02h)
	fcall	_uart_write
	line	992
	
l4858:	
	movlw	(01h)
	movwf	(??_upload_HT+0)+0
	movf	(??_upload_HT+0)+0,w
	bcf	status, 5	;RP0=0, select bank0
	bcf	status, 6	;RP1=0, select bank0
	addwf	(upload_HT@count),f
	goto	l4860
	
l893:	
	
l4860:	
	movf	(upload_HT@address),w
	addlw	low(03h)
	movwf	(??_upload_HT+0)+0
	movlw	high(03h)
	skipnc
	movlw	(high(03h)+1)&0ffh
	movwf	((??_upload_HT+0)+0)+1
	movf	1+(??_upload_HT+0)+0,w
	xorlw	80h
	movwf	(??_upload_HT+2)+0
	movlw	80h
	subwf	(??_upload_HT+2)+0,w
	skipz
	goto	u4625
	movf	(upload_HT@count),w
	subwf	0+(??_upload_HT+0)+0,w
u4625:

	skipnc
	goto	u4621
	goto	u4620
u4621:
	goto	l4854
u4620:
	goto	l4862
	
l895:	
	line	997
	
l4862:	
;PR29.c: 996: }
;PR29.c: 997: address=count;
	bcf	status, 5	;RP0=0, select bank0
	bcf	status, 6	;RP1=0, select bank0
	movf	(upload_HT@count),w
	movwf	(??_upload_HT+0)+0
	movf	(??_upload_HT+0)+0,w
	movwf	(upload_HT@address)
	line	998
	goto	l4876
	line	999
	
l897:	
	line	1000
	
l4864:	
;PR29.c: 999: {
;PR29.c: 1000: TEMP=get_eeprom(count);
	bcf	status, 5	;RP0=0, select bank0
	bcf	status, 6	;RP1=0, select bank0
	movf	(upload_HT@count),w
	fcall	_get_eeprom
	movwf	(??_upload_HT+0)+0
	movf	(??_upload_HT+0)+0,w
	bcf	status, 5	;RP0=0, select bank0
	bcf	status, 6	;RP1=0, select bank0
	movwf	(_TEMP)
	line	1001
	
l4866:	
;PR29.c: 1001: uart_write(2,' ');
	movlw	(020h)
	movwf	(??_upload_HT+0)+0
	movf	(??_upload_HT+0)+0,w
	movwf	(?_uart_write)
	movlw	(02h)
	fcall	_uart_write
	line	1002
	
l4868:	
;PR29.c: 1002: if(TEMP==0xff) TEMP=0x30;
	bcf	status, 5	;RP0=0, select bank0
	bcf	status, 6	;RP1=0, select bank0
	movf	(_TEMP),w
	xorlw	0FFh
	skipz
	goto	u4631
	goto	u4630
u4631:
	goto	l4872
u4630:
	
l4870:	
	movlw	(030h)
	movwf	(??_upload_HT+0)+0
	movf	(??_upload_HT+0)+0,w
	movwf	(_TEMP)
	goto	l4872
	
l898:	
	line	1003
	
l4872:	
;PR29.c: 1003: uart_write(2,TEMP);
	movf	(_TEMP),w
	movwf	(??_upload_HT+0)+0
	movf	(??_upload_HT+0)+0,w
	movwf	(?_uart_write)
	movlw	(02h)
	fcall	_uart_write
	line	998
	
l4874:	
	movlw	(01h)
	movwf	(??_upload_HT+0)+0
	movf	(??_upload_HT+0)+0,w
	bcf	status, 5	;RP0=0, select bank0
	bcf	status, 6	;RP1=0, select bank0
	addwf	(upload_HT@count),f
	goto	l4876
	
l896:	
	
l4876:	
	movf	(upload_HT@address),w
	addlw	low(04h)
	movwf	(??_upload_HT+0)+0
	movlw	high(04h)
	skipnc
	movlw	(high(04h)+1)&0ffh
	movwf	((??_upload_HT+0)+0)+1
	movf	1+(??_upload_HT+0)+0,w
	xorlw	80h
	movwf	(??_upload_HT+2)+0
	movlw	80h
	subwf	(??_upload_HT+2)+0,w
	skipz
	goto	u4645
	movf	(upload_HT@count),w
	subwf	0+(??_upload_HT+0)+0,w
u4645:

	skipnc
	goto	u4641
	goto	u4640
u4641:
	goto	l4864
u4640:
	goto	l4878
	
l899:	
	line	1005
	
l4878:	
;PR29.c: 1004: }
;PR29.c: 1005: allign();
	fcall	_allign
	line	1007
	
l4880:	
;PR29.c: 1007: address=0x10;
	movlw	(010h)
	movwf	(??_upload_HT+0)+0
	movf	(??_upload_HT+0)+0,w
	bcf	status, 5	;RP0=0, select bank0
	bcf	status, 6	;RP1=0, select bank0
	movwf	(upload_HT@address)
	line	1008
	
l4882:	
;PR29.c: 1008: count=address;
	movf	(upload_HT@address),w
	movwf	(??_upload_HT+0)+0
	movf	(??_upload_HT+0)+0,w
	movwf	(upload_HT@count)
	line	1009
	goto	l4890
	line	1010
	
l901:	
	line	1011
	
l4884:	
;PR29.c: 1010: {
;PR29.c: 1011: TEMP=get_eeprom(count);
	bcf	status, 5	;RP0=0, select bank0
	bcf	status, 6	;RP1=0, select bank0
	movf	(upload_HT@count),w
	fcall	_get_eeprom
	movwf	(??_upload_HT+0)+0
	movf	(??_upload_HT+0)+0,w
	bcf	status, 5	;RP0=0, select bank0
	bcf	status, 6	;RP1=0, select bank0
	movwf	(_TEMP)
	line	1012
	
l4886:	
;PR29.c: 1012: uart_write(2,TEMP);
	movf	(_TEMP),w
	movwf	(??_upload_HT+0)+0
	movf	(??_upload_HT+0)+0,w
	movwf	(?_uart_write)
	movlw	(02h)
	fcall	_uart_write
	line	1009
	
l4888:	
	movlw	(01h)
	movwf	(??_upload_HT+0)+0
	movf	(??_upload_HT+0)+0,w
	bcf	status, 5	;RP0=0, select bank0
	bcf	status, 6	;RP1=0, select bank0
	addwf	(upload_HT@count),f
	goto	l4890
	
l900:	
	
l4890:	
	movf	(upload_HT@address),w
	addlw	low(03h)
	movwf	(??_upload_HT+0)+0
	movlw	high(03h)
	skipnc
	movlw	(high(03h)+1)&0ffh
	movwf	((??_upload_HT+0)+0)+1
	movf	1+(??_upload_HT+0)+0,w
	xorlw	80h
	movwf	(??_upload_HT+2)+0
	movlw	80h
	subwf	(??_upload_HT+2)+0,w
	skipz
	goto	u4655
	movf	(upload_HT@count),w
	subwf	0+(??_upload_HT+0)+0,w
u4655:

	skipnc
	goto	u4651
	goto	u4650
u4651:
	goto	l4884
u4650:
	goto	l4892
	
l902:	
	line	1014
	
l4892:	
;PR29.c: 1013: }
;PR29.c: 1014: address=count;
	bcf	status, 5	;RP0=0, select bank0
	bcf	status, 6	;RP1=0, select bank0
	movf	(upload_HT@count),w
	movwf	(??_upload_HT+0)+0
	movf	(??_upload_HT+0)+0,w
	movwf	(upload_HT@address)
	line	1015
	goto	l4906
	line	1016
	
l904:	
	line	1017
	
l4894:	
;PR29.c: 1016: {
;PR29.c: 1017: TEMP=get_eeprom(count);
	bcf	status, 5	;RP0=0, select bank0
	bcf	status, 6	;RP1=0, select bank0
	movf	(upload_HT@count),w
	fcall	_get_eeprom
	movwf	(??_upload_HT+0)+0
	movf	(??_upload_HT+0)+0,w
	bcf	status, 5	;RP0=0, select bank0
	bcf	status, 6	;RP1=0, select bank0
	movwf	(_TEMP)
	line	1018
	
l4896:	
;PR29.c: 1018: uart_write(2,' ');
	movlw	(020h)
	movwf	(??_upload_HT+0)+0
	movf	(??_upload_HT+0)+0,w
	movwf	(?_uart_write)
	movlw	(02h)
	fcall	_uart_write
	line	1019
	
l4898:	
;PR29.c: 1019: if(TEMP==0xff) TEMP=0x30;
	bcf	status, 5	;RP0=0, select bank0
	bcf	status, 6	;RP1=0, select bank0
	movf	(_TEMP),w
	xorlw	0FFh
	skipz
	goto	u4661
	goto	u4660
u4661:
	goto	l4902
u4660:
	
l4900:	
	movlw	(030h)
	movwf	(??_upload_HT+0)+0
	movf	(??_upload_HT+0)+0,w
	movwf	(_TEMP)
	goto	l4902
	
l905:	
	line	1020
	
l4902:	
;PR29.c: 1020: uart_write(2,TEMP);
	movf	(_TEMP),w
	movwf	(??_upload_HT+0)+0
	movf	(??_upload_HT+0)+0,w
	movwf	(?_uart_write)
	movlw	(02h)
	fcall	_uart_write
	line	1015
	
l4904:	
	movlw	(01h)
	movwf	(??_upload_HT+0)+0
	movf	(??_upload_HT+0)+0,w
	bcf	status, 5	;RP0=0, select bank0
	bcf	status, 6	;RP1=0, select bank0
	addwf	(upload_HT@count),f
	goto	l4906
	
l903:	
	
l4906:	
	movf	(upload_HT@address),w
	addlw	low(04h)
	movwf	(??_upload_HT+0)+0
	movlw	high(04h)
	skipnc
	movlw	(high(04h)+1)&0ffh
	movwf	((??_upload_HT+0)+0)+1
	movf	1+(??_upload_HT+0)+0,w
	xorlw	80h
	movwf	(??_upload_HT+2)+0
	movlw	80h
	subwf	(??_upload_HT+2)+0,w
	skipz
	goto	u4675
	movf	(upload_HT@count),w
	subwf	0+(??_upload_HT+0)+0,w
u4675:

	skipnc
	goto	u4671
	goto	u4670
u4671:
	goto	l4894
u4670:
	goto	l4908
	
l906:	
	line	1022
	
l4908:	
;PR29.c: 1021: }
;PR29.c: 1022: allign();
	fcall	_allign
	line	1024
	
l4910:	
;PR29.c: 1024: address=0x20;
	movlw	(020h)
	movwf	(??_upload_HT+0)+0
	movf	(??_upload_HT+0)+0,w
	bcf	status, 5	;RP0=0, select bank0
	bcf	status, 6	;RP1=0, select bank0
	movwf	(upload_HT@address)
	line	1025
	
l4912:	
;PR29.c: 1025: count=address;
	movf	(upload_HT@address),w
	movwf	(??_upload_HT+0)+0
	movf	(??_upload_HT+0)+0,w
	movwf	(upload_HT@count)
	line	1026
	goto	l4920
	line	1027
	
l908:	
	line	1028
	
l4914:	
;PR29.c: 1027: {
;PR29.c: 1028: TEMP=get_eeprom(count);
	bcf	status, 5	;RP0=0, select bank0
	bcf	status, 6	;RP1=0, select bank0
	movf	(upload_HT@count),w
	fcall	_get_eeprom
	movwf	(??_upload_HT+0)+0
	movf	(??_upload_HT+0)+0,w
	bcf	status, 5	;RP0=0, select bank0
	bcf	status, 6	;RP1=0, select bank0
	movwf	(_TEMP)
	line	1029
	
l4916:	
;PR29.c: 1029: uart_write(2,TEMP);
	movf	(_TEMP),w
	movwf	(??_upload_HT+0)+0
	movf	(??_upload_HT+0)+0,w
	movwf	(?_uart_write)
	movlw	(02h)
	fcall	_uart_write
	line	1026
	
l4918:	
	movlw	(01h)
	movwf	(??_upload_HT+0)+0
	movf	(??_upload_HT+0)+0,w
	bcf	status, 5	;RP0=0, select bank0
	bcf	status, 6	;RP1=0, select bank0
	addwf	(upload_HT@count),f
	goto	l4920
	
l907:	
	
l4920:	
	movf	(upload_HT@address),w
	addlw	low(03h)
	movwf	(??_upload_HT+0)+0
	movlw	high(03h)
	skipnc
	movlw	(high(03h)+1)&0ffh
	movwf	((??_upload_HT+0)+0)+1
	movf	1+(??_upload_HT+0)+0,w
	xorlw	80h
	movwf	(??_upload_HT+2)+0
	movlw	80h
	subwf	(??_upload_HT+2)+0,w
	skipz
	goto	u4685
	movf	(upload_HT@count),w
	subwf	0+(??_upload_HT+0)+0,w
u4685:

	skipnc
	goto	u4681
	goto	u4680
u4681:
	goto	l4914
u4680:
	goto	l4922
	
l909:	
	line	1031
	
l4922:	
;PR29.c: 1030: }
;PR29.c: 1031: address=count;
	bcf	status, 5	;RP0=0, select bank0
	bcf	status, 6	;RP1=0, select bank0
	movf	(upload_HT@count),w
	movwf	(??_upload_HT+0)+0
	movf	(??_upload_HT+0)+0,w
	movwf	(upload_HT@address)
	line	1032
	goto	l4936
	line	1033
	
l911:	
	line	1034
	
l4924:	
;PR29.c: 1033: {
;PR29.c: 1034: TEMP=get_eeprom(count);
	bcf	status, 5	;RP0=0, select bank0
	bcf	status, 6	;RP1=0, select bank0
	movf	(upload_HT@count),w
	fcall	_get_eeprom
	movwf	(??_upload_HT+0)+0
	movf	(??_upload_HT+0)+0,w
	bcf	status, 5	;RP0=0, select bank0
	bcf	status, 6	;RP1=0, select bank0
	movwf	(_TEMP)
	line	1035
	
l4926:	
;PR29.c: 1035: uart_write(2,' ');
	movlw	(020h)
	movwf	(??_upload_HT+0)+0
	movf	(??_upload_HT+0)+0,w
	movwf	(?_uart_write)
	movlw	(02h)
	fcall	_uart_write
	line	1036
	
l4928:	
;PR29.c: 1036: if(TEMP==0xff) TEMP=0x30;
	bcf	status, 5	;RP0=0, select bank0
	bcf	status, 6	;RP1=0, select bank0
	movf	(_TEMP),w
	xorlw	0FFh
	skipz
	goto	u4691
	goto	u4690
u4691:
	goto	l4932
u4690:
	
l4930:	
	movlw	(030h)
	movwf	(??_upload_HT+0)+0
	movf	(??_upload_HT+0)+0,w
	movwf	(_TEMP)
	goto	l4932
	
l912:	
	line	1037
	
l4932:	
;PR29.c: 1037: uart_write(2,TEMP);
	movf	(_TEMP),w
	movwf	(??_upload_HT+0)+0
	movf	(??_upload_HT+0)+0,w
	movwf	(?_uart_write)
	movlw	(02h)
	fcall	_uart_write
	line	1032
	
l4934:	
	movlw	(01h)
	movwf	(??_upload_HT+0)+0
	movf	(??_upload_HT+0)+0,w
	bcf	status, 5	;RP0=0, select bank0
	bcf	status, 6	;RP1=0, select bank0
	addwf	(upload_HT@count),f
	goto	l4936
	
l910:	
	
l4936:	
	movf	(upload_HT@address),w
	addlw	low(04h)
	movwf	(??_upload_HT+0)+0
	movlw	high(04h)
	skipnc
	movlw	(high(04h)+1)&0ffh
	movwf	((??_upload_HT+0)+0)+1
	movf	1+(??_upload_HT+0)+0,w
	xorlw	80h
	movwf	(??_upload_HT+2)+0
	movlw	80h
	subwf	(??_upload_HT+2)+0,w
	skipz
	goto	u4705
	movf	(upload_HT@count),w
	subwf	0+(??_upload_HT+0)+0,w
u4705:

	skipnc
	goto	u4701
	goto	u4700
u4701:
	goto	l4924
u4700:
	goto	l4938
	
l913:	
	line	1039
	
l4938:	
;PR29.c: 1038: }
;PR29.c: 1039: allign();
	fcall	_allign
	line	1041
	
l4940:	
;PR29.c: 1041: address=0x30;
	movlw	(030h)
	movwf	(??_upload_HT+0)+0
	movf	(??_upload_HT+0)+0,w
	bcf	status, 5	;RP0=0, select bank0
	bcf	status, 6	;RP1=0, select bank0
	movwf	(upload_HT@address)
	line	1042
	
l4942:	
;PR29.c: 1042: count=address;
	movf	(upload_HT@address),w
	movwf	(??_upload_HT+0)+0
	movf	(??_upload_HT+0)+0,w
	movwf	(upload_HT@count)
	line	1043
	goto	l4950
	line	1044
	
l915:	
	line	1045
	
l4944:	
;PR29.c: 1044: {
;PR29.c: 1045: TEMP=get_eeprom(count);
	bcf	status, 5	;RP0=0, select bank0
	bcf	status, 6	;RP1=0, select bank0
	movf	(upload_HT@count),w
	fcall	_get_eeprom
	movwf	(??_upload_HT+0)+0
	movf	(??_upload_HT+0)+0,w
	bcf	status, 5	;RP0=0, select bank0
	bcf	status, 6	;RP1=0, select bank0
	movwf	(_TEMP)
	line	1046
	
l4946:	
;PR29.c: 1046: uart_write(2,TEMP);
	movf	(_TEMP),w
	movwf	(??_upload_HT+0)+0
	movf	(??_upload_HT+0)+0,w
	movwf	(?_uart_write)
	movlw	(02h)
	fcall	_uart_write
	line	1043
	
l4948:	
	movlw	(01h)
	movwf	(??_upload_HT+0)+0
	movf	(??_upload_HT+0)+0,w
	bcf	status, 5	;RP0=0, select bank0
	bcf	status, 6	;RP1=0, select bank0
	addwf	(upload_HT@count),f
	goto	l4950
	
l914:	
	
l4950:	
	movf	(upload_HT@address),w
	addlw	low(03h)
	movwf	(??_upload_HT+0)+0
	movlw	high(03h)
	skipnc
	movlw	(high(03h)+1)&0ffh
	movwf	((??_upload_HT+0)+0)+1
	movf	1+(??_upload_HT+0)+0,w
	xorlw	80h
	movwf	(??_upload_HT+2)+0
	movlw	80h
	subwf	(??_upload_HT+2)+0,w
	skipz
	goto	u4715
	movf	(upload_HT@count),w
	subwf	0+(??_upload_HT+0)+0,w
u4715:

	skipnc
	goto	u4711
	goto	u4710
u4711:
	goto	l4944
u4710:
	goto	l4952
	
l916:	
	line	1048
	
l4952:	
;PR29.c: 1047: }
;PR29.c: 1048: address=count;
	bcf	status, 5	;RP0=0, select bank0
	bcf	status, 6	;RP1=0, select bank0
	movf	(upload_HT@count),w
	movwf	(??_upload_HT+0)+0
	movf	(??_upload_HT+0)+0,w
	movwf	(upload_HT@address)
	line	1049
	goto	l4966
	line	1050
	
l918:	
	line	1051
	
l4954:	
;PR29.c: 1050: {
;PR29.c: 1051: TEMP=get_eeprom(count);
	bcf	status, 5	;RP0=0, select bank0
	bcf	status, 6	;RP1=0, select bank0
	movf	(upload_HT@count),w
	fcall	_get_eeprom
	movwf	(??_upload_HT+0)+0
	movf	(??_upload_HT+0)+0,w
	bcf	status, 5	;RP0=0, select bank0
	bcf	status, 6	;RP1=0, select bank0
	movwf	(_TEMP)
	line	1052
	
l4956:	
;PR29.c: 1052: uart_write(2,' ');
	movlw	(020h)
	movwf	(??_upload_HT+0)+0
	movf	(??_upload_HT+0)+0,w
	movwf	(?_uart_write)
	movlw	(02h)
	fcall	_uart_write
	line	1053
	
l4958:	
;PR29.c: 1053: if(TEMP==0xff) TEMP=0x30;
	bcf	status, 5	;RP0=0, select bank0
	bcf	status, 6	;RP1=0, select bank0
	movf	(_TEMP),w
	xorlw	0FFh
	skipz
	goto	u4721
	goto	u4720
u4721:
	goto	l4962
u4720:
	
l4960:	
	movlw	(030h)
	movwf	(??_upload_HT+0)+0
	movf	(??_upload_HT+0)+0,w
	movwf	(_TEMP)
	goto	l4962
	
l919:	
	line	1054
	
l4962:	
;PR29.c: 1054: uart_write(2,TEMP);
	movf	(_TEMP),w
	movwf	(??_upload_HT+0)+0
	movf	(??_upload_HT+0)+0,w
	movwf	(?_uart_write)
	movlw	(02h)
	fcall	_uart_write
	line	1049
	
l4964:	
	movlw	(01h)
	movwf	(??_upload_HT+0)+0
	movf	(??_upload_HT+0)+0,w
	bcf	status, 5	;RP0=0, select bank0
	bcf	status, 6	;RP1=0, select bank0
	addwf	(upload_HT@count),f
	goto	l4966
	
l917:	
	
l4966:	
	movf	(upload_HT@address),w
	addlw	low(04h)
	movwf	(??_upload_HT+0)+0
	movlw	high(04h)
	skipnc
	movlw	(high(04h)+1)&0ffh
	movwf	((??_upload_HT+0)+0)+1
	movf	1+(??_upload_HT+0)+0,w
	xorlw	80h
	movwf	(??_upload_HT+2)+0
	movlw	80h
	subwf	(??_upload_HT+2)+0,w
	skipz
	goto	u4735
	movf	(upload_HT@count),w
	subwf	0+(??_upload_HT+0)+0,w
u4735:

	skipnc
	goto	u4731
	goto	u4730
u4731:
	goto	l4954
u4730:
	goto	l4968
	
l920:	
	line	1056
	
l4968:	
;PR29.c: 1055: }
;PR29.c: 1056: allign();
	fcall	_allign
	line	1058
	
l4970:	
;PR29.c: 1058: address=0x40;
	movlw	(040h)
	movwf	(??_upload_HT+0)+0
	movf	(??_upload_HT+0)+0,w
	bcf	status, 5	;RP0=0, select bank0
	bcf	status, 6	;RP1=0, select bank0
	movwf	(upload_HT@address)
	line	1059
	
l4972:	
;PR29.c: 1059: count=address;
	movf	(upload_HT@address),w
	movwf	(??_upload_HT+0)+0
	movf	(??_upload_HT+0)+0,w
	movwf	(upload_HT@count)
	line	1060
	goto	l4980
	line	1061
	
l922:	
	line	1062
	
l4974:	
;PR29.c: 1061: {
;PR29.c: 1062: TEMP=get_eeprom(count);
	bcf	status, 5	;RP0=0, select bank0
	bcf	status, 6	;RP1=0, select bank0
	movf	(upload_HT@count),w
	fcall	_get_eeprom
	movwf	(??_upload_HT+0)+0
	movf	(??_upload_HT+0)+0,w
	bcf	status, 5	;RP0=0, select bank0
	bcf	status, 6	;RP1=0, select bank0
	movwf	(_TEMP)
	line	1063
	
l4976:	
;PR29.c: 1063: uart_write(2,TEMP);
	movf	(_TEMP),w
	movwf	(??_upload_HT+0)+0
	movf	(??_upload_HT+0)+0,w
	movwf	(?_uart_write)
	movlw	(02h)
	fcall	_uart_write
	line	1060
	
l4978:	
	movlw	(01h)
	movwf	(??_upload_HT+0)+0
	movf	(??_upload_HT+0)+0,w
	bcf	status, 5	;RP0=0, select bank0
	bcf	status, 6	;RP1=0, select bank0
	addwf	(upload_HT@count),f
	goto	l4980
	
l921:	
	
l4980:	
	movf	(upload_HT@address),w
	addlw	low(03h)
	movwf	(??_upload_HT+0)+0
	movlw	high(03h)
	skipnc
	movlw	(high(03h)+1)&0ffh
	movwf	((??_upload_HT+0)+0)+1
	movf	1+(??_upload_HT+0)+0,w
	xorlw	80h
	movwf	(??_upload_HT+2)+0
	movlw	80h
	subwf	(??_upload_HT+2)+0,w
	skipz
	goto	u4745
	movf	(upload_HT@count),w
	subwf	0+(??_upload_HT+0)+0,w
u4745:

	skipnc
	goto	u4741
	goto	u4740
u4741:
	goto	l4974
u4740:
	goto	l4982
	
l923:	
	line	1065
	
l4982:	
;PR29.c: 1064: }
;PR29.c: 1065: address=count;
	bcf	status, 5	;RP0=0, select bank0
	bcf	status, 6	;RP1=0, select bank0
	movf	(upload_HT@count),w
	movwf	(??_upload_HT+0)+0
	movf	(??_upload_HT+0)+0,w
	movwf	(upload_HT@address)
	line	1066
	goto	l4996
	line	1067
	
l925:	
	line	1068
	
l4984:	
;PR29.c: 1067: {
;PR29.c: 1068: TEMP=get_eeprom(count);
	bcf	status, 5	;RP0=0, select bank0
	bcf	status, 6	;RP1=0, select bank0
	movf	(upload_HT@count),w
	fcall	_get_eeprom
	movwf	(??_upload_HT+0)+0
	movf	(??_upload_HT+0)+0,w
	bcf	status, 5	;RP0=0, select bank0
	bcf	status, 6	;RP1=0, select bank0
	movwf	(_TEMP)
	line	1069
	
l4986:	
;PR29.c: 1069: uart_write(2,0xff);
	movlw	(0FFh)
	movwf	(??_upload_HT+0)+0
	movf	(??_upload_HT+0)+0,w
	movwf	(?_uart_write)
	movlw	(02h)
	fcall	_uart_write
	line	1070
	
l4988:	
;PR29.c: 1070: if(TEMP==0xff) TEMP=0x30;
	bcf	status, 5	;RP0=0, select bank0
	bcf	status, 6	;RP1=0, select bank0
	movf	(_TEMP),w
	xorlw	0FFh
	skipz
	goto	u4751
	goto	u4750
u4751:
	goto	l4992
u4750:
	
l4990:	
	movlw	(030h)
	movwf	(??_upload_HT+0)+0
	movf	(??_upload_HT+0)+0,w
	movwf	(_TEMP)
	goto	l4992
	
l926:	
	line	1071
	
l4992:	
;PR29.c: 1071: uart_write(2,TEMP);
	movf	(_TEMP),w
	movwf	(??_upload_HT+0)+0
	movf	(??_upload_HT+0)+0,w
	movwf	(?_uart_write)
	movlw	(02h)
	fcall	_uart_write
	line	1066
	
l4994:	
	movlw	(01h)
	movwf	(??_upload_HT+0)+0
	movf	(??_upload_HT+0)+0,w
	bcf	status, 5	;RP0=0, select bank0
	bcf	status, 6	;RP1=0, select bank0
	addwf	(upload_HT@count),f
	goto	l4996
	
l924:	
	
l4996:	
	movf	(upload_HT@address),w
	addlw	low(04h)
	movwf	(??_upload_HT+0)+0
	movlw	high(04h)
	skipnc
	movlw	(high(04h)+1)&0ffh
	movwf	((??_upload_HT+0)+0)+1
	movf	1+(??_upload_HT+0)+0,w
	xorlw	80h
	movwf	(??_upload_HT+2)+0
	movlw	80h
	subwf	(??_upload_HT+2)+0,w
	skipz
	goto	u4765
	movf	(upload_HT@count),w
	subwf	0+(??_upload_HT+0)+0,w
u4765:

	skipnc
	goto	u4761
	goto	u4760
u4761:
	goto	l4984
u4760:
	goto	l4998
	
l927:	
	line	1073
	
l4998:	
;PR29.c: 1072: }
;PR29.c: 1073: allign();
	fcall	_allign
	line	1074
	
l5000:	
;PR29.c: 1074: for(count=0;count<80;count++)
	clrc
	movlw	0
	btfsc	status,0
	movlw	1
	bcf	status, 5	;RP0=0, select bank0
	bcf	status, 6	;RP1=0, select bank0
	movwf	(upload_HT@count)
	
l5002:	
	movlw	(050h)
	subwf	(upload_HT@count),w
	skipc
	goto	u4771
	goto	u4770
u4771:
	goto	l5006
u4770:
	goto	l5012
	
l5004:	
	goto	l5012
	line	1075
	
l928:	
	
l5006:	
;PR29.c: 1075: uart_write(2,' ');
	movlw	(020h)
	movwf	(??_upload_HT+0)+0
	movf	(??_upload_HT+0)+0,w
	movwf	(?_uart_write)
	movlw	(02h)
	fcall	_uart_write
	line	1074
	
l5008:	
	movlw	(01h)
	movwf	(??_upload_HT+0)+0
	movf	(??_upload_HT+0)+0,w
	bcf	status, 5	;RP0=0, select bank0
	bcf	status, 6	;RP1=0, select bank0
	addwf	(upload_HT@count),f
	
l5010:	
	movlw	(050h)
	subwf	(upload_HT@count),w
	skipc
	goto	u4781
	goto	u4780
u4781:
	goto	l5006
u4780:
	goto	l5012
	
l929:	
	line	1076
	
l5012:	
;PR29.c: 1076: for(count=0;count<40;count++)
	clrc
	movlw	0
	btfsc	status,0
	movlw	1
	movwf	(upload_HT@count)
	
l5014:	
	movlw	(028h)
	subwf	(upload_HT@count),w
	skipc
	goto	u4791
	goto	u4790
u4791:
	goto	l5018
u4790:
	goto	l932
	
l5016:	
	goto	l932
	line	1077
	
l930:	
	
l5018:	
;PR29.c: 1077: { uart_write(2,'+');
	movlw	(02Bh)
	movwf	(??_upload_HT+0)+0
	movf	(??_upload_HT+0)+0,w
	movwf	(?_uart_write)
	movlw	(02h)
	fcall	_uart_write
	line	1078
;PR29.c: 1078: uart_write(2,'-');
	movlw	(02Dh)
	movwf	(??_upload_HT+0)+0
	movf	(??_upload_HT+0)+0,w
	movwf	(?_uart_write)
	movlw	(02h)
	fcall	_uart_write
	line	1076
	
l5020:	
	movlw	(01h)
	movwf	(??_upload_HT+0)+0
	movf	(??_upload_HT+0)+0,w
	bcf	status, 5	;RP0=0, select bank0
	bcf	status, 6	;RP1=0, select bank0
	addwf	(upload_HT@count),f
	
l5022:	
	movlw	(028h)
	subwf	(upload_HT@count),w
	skipc
	goto	u4801
	goto	u4800
u4801:
	goto	l5018
u4800:
	goto	l932
	
l931:	
	line	1081
	
l932:	
	return
	opt stack 0
GLOBAL	__end_of_upload_HT
	__end_of_upload_HT:
;; =============== function _upload_HT ends ============

	signat	_upload_HT,88
	global	_view_attendance
psect	text568,local,class=CODE,delta=2
global __ptext568
__ptext568:

;; *************** function _view_attendance *****************
;; Defined at:
;;		line 812 in file "C:\Users\Phang\Desktop\9.80\PR 29\PR29.c"
;; Parameters:    Size  Location     Type
;;		None
;; Auto vars:     Size  Location     Type
;;  x               1   13[COMMON] unsigned char 
;; Return value:  Size  Location     Type
;;		None               void
;; Registers used:
;;		wreg, fsr0l, fsr0h, status,2, status,0, btemp+1, pclath, cstack
;; Tracked objects:
;;		On entry : 0/0
;;		On exit  : 0/0
;;		Unchanged: 0/0
;; Data sizes:     COMMON   BANK0   BANK1   BANK3   BANK2
;;      Params:         0       0       0       0       0
;;      Locals:         1       0       0       0       0
;;      Temps:          1       0       0       0       0
;;      Totals:         2       0       0       0       0
;;Total ram usage:        2 bytes
;; Hardware stack levels used:    1
;; Hardware stack levels required when called:    3
;; This function calls:
;;		_lcd_clr
;;		_lcd_goto
;;		_send_string
;;		_get_eeprom
;;		_send_char
;;		_delay
;; This function is called by:
;;		_mode
;; This function uses a non-reentrant model
;;
psect	text568
	file	"C:\Users\Phang\Desktop\9.80\PR 29\PR29.c"
	line	812
	global	__size_of_view_attendance
	__size_of_view_attendance	equ	__end_of_view_attendance-_view_attendance
	
_view_attendance:	
	opt	stack 3
; Regs used in _view_attendance: [wreg-fsr0h+status,2+status,0+btemp+1+pclath+cstack]
	line	813
	
l4670:	
;PR29.c: 813: lcd_clr();
	fcall	_lcd_clr
	line	814
;PR29.c: 814: lcd_goto(0);
	movlw	(0)
	fcall	_lcd_goto
	line	815
	
l4672:	
;PR29.c: 815: send_string("User 1 2 3 4 5 ");
	movlw	low(STR_65|8000h)
	movwf	(?_send_string)
	movlw	high(STR_65|8000h)
	movwf	((?_send_string))+1
	fcall	_send_string
	line	816
	
l4674:	
;PR29.c: 816: lcd_goto(20);
	movlw	(014h)
	fcall	_lcd_goto
	line	818
	
l4676:	
;PR29.c: 817: unsigned char x;
;PR29.c: 818: for(x=0; x<4; x++)
	clrc
	movlw	0
	btfsc	status,0
	movlw	1
	movwf	(view_attendance@x)
	
l4678:	
	movlw	(04h)
	subwf	(view_attendance@x),w
	skipc
	goto	u4331
	goto	u4330
u4331:
	goto	l4682
u4330:
	goto	l4688
	
l4680:	
	goto	l4688
	line	819
	
l854:	
	
l4682:	
;PR29.c: 819: { TEMP=get_eeprom(x);
	movf	(view_attendance@x),w
	fcall	_get_eeprom
	movwf	(??_view_attendance+0)+0
	movf	(??_view_attendance+0)+0,w
	bcf	status, 5	;RP0=0, select bank0
	bcf	status, 6	;RP1=0, select bank0
	movwf	(_TEMP)
	line	820
;PR29.c: 820: send_char(TEMP);
	movf	(_TEMP),w
	fcall	_send_char
	line	818
	
l4684:	
	movlw	(01h)
	movwf	(??_view_attendance+0)+0
	movf	(??_view_attendance+0)+0,w
	addwf	(view_attendance@x),f
	
l4686:	
	movlw	(04h)
	subwf	(view_attendance@x),w
	skipc
	goto	u4341
	goto	u4340
u4341:
	goto	l4682
u4340:
	goto	l4688
	
l855:	
	line	822
	
l4688:	
;PR29.c: 821: }
;PR29.c: 822: for(x=4; x<9; x++)
	movlw	(04h)
	movwf	(??_view_attendance+0)+0
	movf	(??_view_attendance+0)+0,w
	movwf	(view_attendance@x)
	movlw	(09h)
	subwf	(view_attendance@x),w
	skipc
	goto	u4351
	goto	u4350
u4351:
	goto	l4692
u4350:
	goto	l4698
	
l4690:	
	goto	l4698
	line	823
	
l856:	
	
l4692:	
;PR29.c: 823: { send_char(0x20);
	movlw	(020h)
	fcall	_send_char
	line	824
;PR29.c: 824: TEMP=get_eeprom(x);
	movf	(view_attendance@x),w
	fcall	_get_eeprom
	movwf	(??_view_attendance+0)+0
	movf	(??_view_attendance+0)+0,w
	bcf	status, 5	;RP0=0, select bank0
	bcf	status, 6	;RP1=0, select bank0
	movwf	(_TEMP)
	line	825
;PR29.c: 825: send_char(TEMP);
	movf	(_TEMP),w
	fcall	_send_char
	line	822
	
l4694:	
	movlw	(01h)
	movwf	(??_view_attendance+0)+0
	movf	(??_view_attendance+0)+0,w
	addwf	(view_attendance@x),f
	
l4696:	
	movlw	(09h)
	subwf	(view_attendance@x),w
	skipc
	goto	u4361
	goto	u4360
u4361:
	goto	l4692
u4360:
	goto	l4698
	
l857:	
	line	827
	
l4698:	
;PR29.c: 826: }
;PR29.c: 827: delay(300000);
	movlw	0
	movwf	(?_delay+3)
	movlw	04h
	movwf	(?_delay+2)
	movlw	093h
	movwf	(?_delay+1)
	movlw	0E0h
	movwf	(?_delay)

	fcall	_delay
	line	828
;PR29.c: 828: lcd_goto(20);
	movlw	(014h)
	fcall	_lcd_goto
	line	829
	
l4700:	
;PR29.c: 829: for(x=16; x<20; x++)
	movlw	(010h)
	movwf	(??_view_attendance+0)+0
	movf	(??_view_attendance+0)+0,w
	movwf	(view_attendance@x)
	
l4702:	
	movlw	(014h)
	subwf	(view_attendance@x),w
	skipc
	goto	u4371
	goto	u4370
u4371:
	goto	l4706
u4370:
	goto	l4712
	
l4704:	
	goto	l4712
	line	830
	
l858:	
	
l4706:	
;PR29.c: 830: { TEMP=get_eeprom(x);
	movf	(view_attendance@x),w
	fcall	_get_eeprom
	movwf	(??_view_attendance+0)+0
	movf	(??_view_attendance+0)+0,w
	bcf	status, 5	;RP0=0, select bank0
	bcf	status, 6	;RP1=0, select bank0
	movwf	(_TEMP)
	line	831
;PR29.c: 831: send_char(TEMP);
	movf	(_TEMP),w
	fcall	_send_char
	line	829
	
l4708:	
	movlw	(01h)
	movwf	(??_view_attendance+0)+0
	movf	(??_view_attendance+0)+0,w
	addwf	(view_attendance@x),f
	
l4710:	
	movlw	(014h)
	subwf	(view_attendance@x),w
	skipc
	goto	u4381
	goto	u4380
u4381:
	goto	l4706
u4380:
	goto	l4712
	
l859:	
	line	833
	
l4712:	
;PR29.c: 832: }
;PR29.c: 833: for(x=20; x<25; x++)
	movlw	(014h)
	movwf	(??_view_attendance+0)+0
	movf	(??_view_attendance+0)+0,w
	movwf	(view_attendance@x)
	movlw	(019h)
	subwf	(view_attendance@x),w
	skipc
	goto	u4391
	goto	u4390
u4391:
	goto	l4716
u4390:
	goto	l4722
	
l4714:	
	goto	l4722
	line	834
	
l860:	
	
l4716:	
;PR29.c: 834: { send_char(0x20);
	movlw	(020h)
	fcall	_send_char
	line	835
;PR29.c: 835: TEMP=get_eeprom(x);
	movf	(view_attendance@x),w
	fcall	_get_eeprom
	movwf	(??_view_attendance+0)+0
	movf	(??_view_attendance+0)+0,w
	bcf	status, 5	;RP0=0, select bank0
	bcf	status, 6	;RP1=0, select bank0
	movwf	(_TEMP)
	line	836
;PR29.c: 836: send_char(TEMP);
	movf	(_TEMP),w
	fcall	_send_char
	line	833
	
l4718:	
	movlw	(01h)
	movwf	(??_view_attendance+0)+0
	movf	(??_view_attendance+0)+0,w
	addwf	(view_attendance@x),f
	
l4720:	
	movlw	(019h)
	subwf	(view_attendance@x),w
	skipc
	goto	u4401
	goto	u4400
u4401:
	goto	l4716
u4400:
	goto	l4722
	
l861:	
	line	838
	
l4722:	
;PR29.c: 837: }
;PR29.c: 838: delay(300000);
	movlw	0
	movwf	(?_delay+3)
	movlw	04h
	movwf	(?_delay+2)
	movlw	093h
	movwf	(?_delay+1)
	movlw	0E0h
	movwf	(?_delay)

	fcall	_delay
	line	839
;PR29.c: 839: lcd_goto(20);
	movlw	(014h)
	fcall	_lcd_goto
	line	840
	
l4724:	
;PR29.c: 840: for(x=32; x<36; x++)
	movlw	(020h)
	movwf	(??_view_attendance+0)+0
	movf	(??_view_attendance+0)+0,w
	movwf	(view_attendance@x)
	
l4726:	
	movlw	(024h)
	subwf	(view_attendance@x),w
	skipc
	goto	u4411
	goto	u4410
u4411:
	goto	l4730
u4410:
	goto	l4736
	
l4728:	
	goto	l4736
	line	841
	
l862:	
	
l4730:	
;PR29.c: 841: { TEMP=get_eeprom(x);
	movf	(view_attendance@x),w
	fcall	_get_eeprom
	movwf	(??_view_attendance+0)+0
	movf	(??_view_attendance+0)+0,w
	bcf	status, 5	;RP0=0, select bank0
	bcf	status, 6	;RP1=0, select bank0
	movwf	(_TEMP)
	line	842
;PR29.c: 842: send_char(TEMP);
	movf	(_TEMP),w
	fcall	_send_char
	line	840
	
l4732:	
	movlw	(01h)
	movwf	(??_view_attendance+0)+0
	movf	(??_view_attendance+0)+0,w
	addwf	(view_attendance@x),f
	
l4734:	
	movlw	(024h)
	subwf	(view_attendance@x),w
	skipc
	goto	u4421
	goto	u4420
u4421:
	goto	l4730
u4420:
	goto	l4736
	
l863:	
	line	844
	
l4736:	
;PR29.c: 843: }
;PR29.c: 844: for(x=36; x<41; x++)
	movlw	(024h)
	movwf	(??_view_attendance+0)+0
	movf	(??_view_attendance+0)+0,w
	movwf	(view_attendance@x)
	movlw	(029h)
	subwf	(view_attendance@x),w
	skipc
	goto	u4431
	goto	u4430
u4431:
	goto	l4740
u4430:
	goto	l4746
	
l4738:	
	goto	l4746
	line	845
	
l864:	
	
l4740:	
;PR29.c: 845: { send_char(0x20);
	movlw	(020h)
	fcall	_send_char
	line	846
;PR29.c: 846: TEMP=get_eeprom(x);
	movf	(view_attendance@x),w
	fcall	_get_eeprom
	movwf	(??_view_attendance+0)+0
	movf	(??_view_attendance+0)+0,w
	bcf	status, 5	;RP0=0, select bank0
	bcf	status, 6	;RP1=0, select bank0
	movwf	(_TEMP)
	line	847
;PR29.c: 847: send_char(TEMP);
	movf	(_TEMP),w
	fcall	_send_char
	line	844
	
l4742:	
	movlw	(01h)
	movwf	(??_view_attendance+0)+0
	movf	(??_view_attendance+0)+0,w
	addwf	(view_attendance@x),f
	
l4744:	
	movlw	(029h)
	subwf	(view_attendance@x),w
	skipc
	goto	u4441
	goto	u4440
u4441:
	goto	l4740
u4440:
	goto	l4746
	
l865:	
	line	849
	
l4746:	
;PR29.c: 848: }
;PR29.c: 849: delay(300000);
	movlw	0
	movwf	(?_delay+3)
	movlw	04h
	movwf	(?_delay+2)
	movlw	093h
	movwf	(?_delay+1)
	movlw	0E0h
	movwf	(?_delay)

	fcall	_delay
	line	850
;PR29.c: 850: lcd_goto(20);
	movlw	(014h)
	fcall	_lcd_goto
	line	851
	
l4748:	
;PR29.c: 851: for(x=48; x<52; x++)
	movlw	(030h)
	movwf	(??_view_attendance+0)+0
	movf	(??_view_attendance+0)+0,w
	movwf	(view_attendance@x)
	
l4750:	
	movlw	(034h)
	subwf	(view_attendance@x),w
	skipc
	goto	u4451
	goto	u4450
u4451:
	goto	l4754
u4450:
	goto	l4760
	
l4752:	
	goto	l4760
	line	852
	
l866:	
	
l4754:	
;PR29.c: 852: { TEMP=get_eeprom(x);
	movf	(view_attendance@x),w
	fcall	_get_eeprom
	movwf	(??_view_attendance+0)+0
	movf	(??_view_attendance+0)+0,w
	bcf	status, 5	;RP0=0, select bank0
	bcf	status, 6	;RP1=0, select bank0
	movwf	(_TEMP)
	line	853
;PR29.c: 853: send_char(TEMP);
	movf	(_TEMP),w
	fcall	_send_char
	line	851
	
l4756:	
	movlw	(01h)
	movwf	(??_view_attendance+0)+0
	movf	(??_view_attendance+0)+0,w
	addwf	(view_attendance@x),f
	
l4758:	
	movlw	(034h)
	subwf	(view_attendance@x),w
	skipc
	goto	u4461
	goto	u4460
u4461:
	goto	l4754
u4460:
	goto	l4760
	
l867:	
	line	855
	
l4760:	
;PR29.c: 854: }
;PR29.c: 855: for(x=52; x<57; x++)
	movlw	(034h)
	movwf	(??_view_attendance+0)+0
	movf	(??_view_attendance+0)+0,w
	movwf	(view_attendance@x)
	movlw	(039h)
	subwf	(view_attendance@x),w
	skipc
	goto	u4471
	goto	u4470
u4471:
	goto	l4764
u4470:
	goto	l4770
	
l4762:	
	goto	l4770
	line	856
	
l868:	
	
l4764:	
;PR29.c: 856: { send_char(0x20);
	movlw	(020h)
	fcall	_send_char
	line	857
;PR29.c: 857: TEMP=get_eeprom(x);
	movf	(view_attendance@x),w
	fcall	_get_eeprom
	movwf	(??_view_attendance+0)+0
	movf	(??_view_attendance+0)+0,w
	bcf	status, 5	;RP0=0, select bank0
	bcf	status, 6	;RP1=0, select bank0
	movwf	(_TEMP)
	line	858
;PR29.c: 858: send_char(TEMP);
	movf	(_TEMP),w
	fcall	_send_char
	line	855
	
l4766:	
	movlw	(01h)
	movwf	(??_view_attendance+0)+0
	movf	(??_view_attendance+0)+0,w
	addwf	(view_attendance@x),f
	
l4768:	
	movlw	(039h)
	subwf	(view_attendance@x),w
	skipc
	goto	u4481
	goto	u4480
u4481:
	goto	l4764
u4480:
	goto	l4770
	
l869:	
	line	860
	
l4770:	
;PR29.c: 859: }
;PR29.c: 860: delay(300000);
	movlw	0
	movwf	(?_delay+3)
	movlw	04h
	movwf	(?_delay+2)
	movlw	093h
	movwf	(?_delay+1)
	movlw	0E0h
	movwf	(?_delay)

	fcall	_delay
	line	861
;PR29.c: 861: lcd_goto(20);
	movlw	(014h)
	fcall	_lcd_goto
	line	862
	
l4772:	
;PR29.c: 862: for(x=64; x<68; x++)
	movlw	(040h)
	movwf	(??_view_attendance+0)+0
	movf	(??_view_attendance+0)+0,w
	movwf	(view_attendance@x)
	
l4774:	
	movlw	(044h)
	subwf	(view_attendance@x),w
	skipc
	goto	u4491
	goto	u4490
u4491:
	goto	l4778
u4490:
	goto	l4784
	
l4776:	
	goto	l4784
	line	863
	
l870:	
	
l4778:	
;PR29.c: 863: { TEMP=get_eeprom(x);
	movf	(view_attendance@x),w
	fcall	_get_eeprom
	movwf	(??_view_attendance+0)+0
	movf	(??_view_attendance+0)+0,w
	bcf	status, 5	;RP0=0, select bank0
	bcf	status, 6	;RP1=0, select bank0
	movwf	(_TEMP)
	line	864
;PR29.c: 864: send_char(TEMP);
	movf	(_TEMP),w
	fcall	_send_char
	line	862
	
l4780:	
	movlw	(01h)
	movwf	(??_view_attendance+0)+0
	movf	(??_view_attendance+0)+0,w
	addwf	(view_attendance@x),f
	
l4782:	
	movlw	(044h)
	subwf	(view_attendance@x),w
	skipc
	goto	u4501
	goto	u4500
u4501:
	goto	l4778
u4500:
	goto	l4784
	
l871:	
	line	866
	
l4784:	
;PR29.c: 865: }
;PR29.c: 866: for(x=68; x<73; x++)
	movlw	(044h)
	movwf	(??_view_attendance+0)+0
	movf	(??_view_attendance+0)+0,w
	movwf	(view_attendance@x)
	movlw	(049h)
	subwf	(view_attendance@x),w
	skipc
	goto	u4511
	goto	u4510
u4511:
	goto	l4788
u4510:
	goto	l4794
	
l4786:	
	goto	l4794
	line	867
	
l872:	
	
l4788:	
;PR29.c: 867: { send_char(0x20);
	movlw	(020h)
	fcall	_send_char
	line	868
;PR29.c: 868: TEMP=get_eeprom(x);
	movf	(view_attendance@x),w
	fcall	_get_eeprom
	movwf	(??_view_attendance+0)+0
	movf	(??_view_attendance+0)+0,w
	bcf	status, 5	;RP0=0, select bank0
	bcf	status, 6	;RP1=0, select bank0
	movwf	(_TEMP)
	line	869
;PR29.c: 869: send_char(TEMP);
	movf	(_TEMP),w
	fcall	_send_char
	line	866
	
l4790:	
	movlw	(01h)
	movwf	(??_view_attendance+0)+0
	movf	(??_view_attendance+0)+0,w
	addwf	(view_attendance@x),f
	
l4792:	
	movlw	(049h)
	subwf	(view_attendance@x),w
	skipc
	goto	u4521
	goto	u4520
u4521:
	goto	l4788
u4520:
	goto	l4794
	
l873:	
	line	871
	
l4794:	
;PR29.c: 870: }
;PR29.c: 871: delay(300000);
	movlw	0
	movwf	(?_delay+3)
	movlw	04h
	movwf	(?_delay+2)
	movlw	093h
	movwf	(?_delay+1)
	movlw	0E0h
	movwf	(?_delay)

	fcall	_delay
	line	873
	
l874:	
	return
	opt stack 0
GLOBAL	__end_of_view_attendance
	__end_of_view_attendance:
;; =============== function _view_attendance ends ============

	signat	_view_attendance,88
	global	_allign
psect	text569,local,class=CODE,delta=2
global __ptext569
__ptext569:

;; *************** function _allign *****************
;; Defined at:
;;		line 1168 in file "C:\Users\Phang\Desktop\9.80\PR 29\PR29.c"
;; Parameters:    Size  Location     Type
;;		None
;; Auto vars:     Size  Location     Type
;;  Allign          1    6[COMMON] unsigned char 
;; Return value:  Size  Location     Type
;;		None               void
;; Registers used:
;;		wreg, fsr0l, fsr0h, status,2, status,0, pclath, cstack
;; Tracked objects:
;;		On entry : 0/0
;;		On exit  : 0/0
;;		Unchanged: 0/0
;; Data sizes:     COMMON   BANK0   BANK1   BANK3   BANK2
;;      Params:         0       0       0       0       0
;;      Locals:         1       0       0       0       0
;;      Temps:          1       0       0       0       0
;;      Totals:         2       0       0       0       0
;;Total ram usage:        2 bytes
;; Hardware stack levels used:    1
;; Hardware stack levels required when called:    1
;; This function calls:
;;		_uart_write
;; This function is called by:
;;		_upload_HT
;; This function uses a non-reentrant model
;;
psect	text569
	file	"C:\Users\Phang\Desktop\9.80\PR 29\PR29.c"
	line	1168
	global	__size_of_allign
	__size_of_allign	equ	__end_of_allign-_allign
	
_allign:	
	opt	stack 4
; Regs used in _allign: [wreg-fsr0h+status,2+status,0+pclath+cstack]
	line	1170
	
l4658:	
;PR29.c: 1169: unsigned char Allign;
;PR29.c: 1170: for(Allign=0;Allign<66;Allign++)
	clrc
	movlw	0
	btfsc	status,0
	movlw	1
	movwf	(allign@Allign)
	
l4660:	
	movlw	(042h)
	subwf	(allign@Allign),w
	skipc
	goto	u4311
	goto	u4310
u4311:
	goto	l4664
u4310:
	goto	l975
	
l4662:	
	goto	l975
	line	1171
	
l973:	
	
l4664:	
;PR29.c: 1171: uart_write(2,' ');
	movlw	(020h)
	movwf	(??_allign+0)+0
	movf	(??_allign+0)+0,w
	movwf	(?_uart_write)
	movlw	(02h)
	fcall	_uart_write
	line	1170
	
l4666:	
	movlw	(01h)
	movwf	(??_allign+0)+0
	movf	(??_allign+0)+0,w
	addwf	(allign@Allign),f
	
l4668:	
	movlw	(042h)
	subwf	(allign@Allign),w
	skipc
	goto	u4321
	goto	u4320
u4321:
	goto	l4664
u4320:
	goto	l975
	
l974:	
	line	1172
	
l975:	
	return
	opt stack 0
GLOBAL	__end_of_allign
	__end_of_allign:
;; =============== function _allign ends ============

	signat	_allign,88
	global	_upload_GUI
psect	text570,local,class=CODE,delta=2
global __ptext570
__ptext570:

;; *************** function _upload_GUI *****************
;; Defined at:
;;		line 1085 in file "C:\Users\Phang\Desktop\9.80\PR 29\PR29.c"
;; Parameters:    Size  Location     Type
;;		None
;; Auto vars:     Size  Location     Type
;;  count           1    9[COMMON] unsigned char 
;;  address         1    8[COMMON] unsigned char 
;; Return value:  Size  Location     Type
;;		None               void
;; Registers used:
;;		wreg, fsr0l, fsr0h, status,2, status,0, pclath, cstack
;; Tracked objects:
;;		On entry : 0/0
;;		On exit  : 0/0
;;		Unchanged: 0/0
;; Data sizes:     COMMON   BANK0   BANK1   BANK3   BANK2
;;      Params:         0       0       0       0       0
;;      Locals:         2       0       0       0       0
;;      Temps:          3       0       0       0       0
;;      Totals:         5       0       0       0       0
;;Total ram usage:        5 bytes
;; Hardware stack levels used:    1
;; Hardware stack levels required when called:    1
;; This function calls:
;;		_get_eeprom
;;		_uart_write
;; This function is called by:
;;		_mode
;; This function uses a non-reentrant model
;;
psect	text570
	file	"C:\Users\Phang\Desktop\9.80\PR 29\PR29.c"
	line	1085
	global	__size_of_upload_GUI
	__size_of_upload_GUI	equ	__end_of_upload_GUI-_upload_GUI
	
_upload_GUI:	
	opt	stack 5
; Regs used in _upload_GUI: [wreg-fsr0h+status,2+status,0+pclath+cstack]
	line	1089
	
l4536:	
;PR29.c: 1086: unsigned char address;
;PR29.c: 1087: unsigned char count;
;PR29.c: 1089: address=0x00;
	clrc
	movlw	0
	btfsc	status,0
	movlw	1
	movwf	(upload_GUI@address)
	line	1090
	
l4538:	
;PR29.c: 1090: count=address;
	movf	(upload_GUI@address),w
	movwf	(??_upload_GUI+0)+0
	movf	(??_upload_GUI+0)+0,w
	movwf	(upload_GUI@count)
	line	1091
	goto	l4546
	line	1092
	
l936:	
	line	1093
	
l4540:	
;PR29.c: 1092: {
;PR29.c: 1093: TEMP=get_eeprom(count);
	movf	(upload_GUI@count),w
	fcall	_get_eeprom
	movwf	(??_upload_GUI+0)+0
	movf	(??_upload_GUI+0)+0,w
	bcf	status, 5	;RP0=0, select bank0
	bcf	status, 6	;RP1=0, select bank0
	movwf	(_TEMP)
	line	1094
	
l4542:	
;PR29.c: 1094: uart_write(2,TEMP);
	movf	(_TEMP),w
	movwf	(??_upload_GUI+0)+0
	movf	(??_upload_GUI+0)+0,w
	movwf	(?_uart_write)
	movlw	(02h)
	fcall	_uart_write
	line	1091
	
l4544:	
	movlw	(01h)
	movwf	(??_upload_GUI+0)+0
	movf	(??_upload_GUI+0)+0,w
	addwf	(upload_GUI@count),f
	goto	l4546
	
l935:	
	
l4546:	
	movf	(upload_GUI@address),w
	addlw	low(03h)
	movwf	(??_upload_GUI+0)+0
	movlw	high(03h)
	skipnc
	movlw	(high(03h)+1)&0ffh
	movwf	((??_upload_GUI+0)+0)+1
	movf	1+(??_upload_GUI+0)+0,w
	xorlw	80h
	movwf	(??_upload_GUI+2)+0
	movlw	80h
	subwf	(??_upload_GUI+2)+0,w
	skipz
	goto	u4165
	movf	(upload_GUI@count),w
	subwf	0+(??_upload_GUI+0)+0,w
u4165:

	skipnc
	goto	u4161
	goto	u4160
u4161:
	goto	l4540
u4160:
	goto	l4548
	
l937:	
	line	1096
	
l4548:	
;PR29.c: 1095: }
;PR29.c: 1096: address=count;
	movf	(upload_GUI@count),w
	movwf	(??_upload_GUI+0)+0
	movf	(??_upload_GUI+0)+0,w
	movwf	(upload_GUI@address)
	line	1097
	goto	l4560
	line	1098
	
l939:	
	line	1099
	
l4550:	
;PR29.c: 1098: {
;PR29.c: 1099: TEMP=get_eeprom(count);
	movf	(upload_GUI@count),w
	fcall	_get_eeprom
	movwf	(??_upload_GUI+0)+0
	movf	(??_upload_GUI+0)+0,w
	bcf	status, 5	;RP0=0, select bank0
	bcf	status, 6	;RP1=0, select bank0
	movwf	(_TEMP)
	line	1100
	
l4552:	
;PR29.c: 1100: if(TEMP==0xff) TEMP=0x30;
	movf	(_TEMP),w
	xorlw	0FFh
	skipz
	goto	u4171
	goto	u4170
u4171:
	goto	l4556
u4170:
	
l4554:	
	movlw	(030h)
	movwf	(??_upload_GUI+0)+0
	movf	(??_upload_GUI+0)+0,w
	movwf	(_TEMP)
	goto	l4556
	
l940:	
	line	1101
	
l4556:	
;PR29.c: 1101: uart_write(2,TEMP);
	movf	(_TEMP),w
	movwf	(??_upload_GUI+0)+0
	movf	(??_upload_GUI+0)+0,w
	movwf	(?_uart_write)
	movlw	(02h)
	fcall	_uart_write
	line	1097
	
l4558:	
	movlw	(01h)
	movwf	(??_upload_GUI+0)+0
	movf	(??_upload_GUI+0)+0,w
	addwf	(upload_GUI@count),f
	goto	l4560
	
l938:	
	
l4560:	
	movf	(upload_GUI@address),w
	addlw	low(04h)
	movwf	(??_upload_GUI+0)+0
	movlw	high(04h)
	skipnc
	movlw	(high(04h)+1)&0ffh
	movwf	((??_upload_GUI+0)+0)+1
	movf	1+(??_upload_GUI+0)+0,w
	xorlw	80h
	movwf	(??_upload_GUI+2)+0
	movlw	80h
	subwf	(??_upload_GUI+2)+0,w
	skipz
	goto	u4185
	movf	(upload_GUI@count),w
	subwf	0+(??_upload_GUI+0)+0,w
u4185:

	skipnc
	goto	u4181
	goto	u4180
u4181:
	goto	l4550
u4180:
	goto	l4562
	
l941:	
	line	1104
	
l4562:	
;PR29.c: 1102: }
;PR29.c: 1104: address=0x10;
	movlw	(010h)
	movwf	(??_upload_GUI+0)+0
	movf	(??_upload_GUI+0)+0,w
	movwf	(upload_GUI@address)
	line	1105
;PR29.c: 1105: count=address;
	movf	(upload_GUI@address),w
	movwf	(??_upload_GUI+0)+0
	movf	(??_upload_GUI+0)+0,w
	movwf	(upload_GUI@count)
	line	1106
	goto	l4570
	line	1107
	
l943:	
	line	1108
	
l4564:	
;PR29.c: 1107: {
;PR29.c: 1108: TEMP=get_eeprom(count);
	movf	(upload_GUI@count),w
	fcall	_get_eeprom
	movwf	(??_upload_GUI+0)+0
	movf	(??_upload_GUI+0)+0,w
	bcf	status, 5	;RP0=0, select bank0
	bcf	status, 6	;RP1=0, select bank0
	movwf	(_TEMP)
	line	1109
	
l4566:	
;PR29.c: 1109: uart_write(2,TEMP);
	movf	(_TEMP),w
	movwf	(??_upload_GUI+0)+0
	movf	(??_upload_GUI+0)+0,w
	movwf	(?_uart_write)
	movlw	(02h)
	fcall	_uart_write
	line	1106
	
l4568:	
	movlw	(01h)
	movwf	(??_upload_GUI+0)+0
	movf	(??_upload_GUI+0)+0,w
	addwf	(upload_GUI@count),f
	goto	l4570
	
l942:	
	
l4570:	
	movf	(upload_GUI@address),w
	addlw	low(03h)
	movwf	(??_upload_GUI+0)+0
	movlw	high(03h)
	skipnc
	movlw	(high(03h)+1)&0ffh
	movwf	((??_upload_GUI+0)+0)+1
	movf	1+(??_upload_GUI+0)+0,w
	xorlw	80h
	movwf	(??_upload_GUI+2)+0
	movlw	80h
	subwf	(??_upload_GUI+2)+0,w
	skipz
	goto	u4195
	movf	(upload_GUI@count),w
	subwf	0+(??_upload_GUI+0)+0,w
u4195:

	skipnc
	goto	u4191
	goto	u4190
u4191:
	goto	l4564
u4190:
	goto	l4572
	
l944:	
	line	1111
	
l4572:	
;PR29.c: 1110: }
;PR29.c: 1111: address=count;
	movf	(upload_GUI@count),w
	movwf	(??_upload_GUI+0)+0
	movf	(??_upload_GUI+0)+0,w
	movwf	(upload_GUI@address)
	line	1112
	goto	l4584
	line	1113
	
l946:	
	line	1114
	
l4574:	
;PR29.c: 1113: {
;PR29.c: 1114: TEMP=get_eeprom(count);
	movf	(upload_GUI@count),w
	fcall	_get_eeprom
	movwf	(??_upload_GUI+0)+0
	movf	(??_upload_GUI+0)+0,w
	bcf	status, 5	;RP0=0, select bank0
	bcf	status, 6	;RP1=0, select bank0
	movwf	(_TEMP)
	line	1115
	
l4576:	
;PR29.c: 1115: if(TEMP==0xff) TEMP=0x30;
	movf	(_TEMP),w
	xorlw	0FFh
	skipz
	goto	u4201
	goto	u4200
u4201:
	goto	l4580
u4200:
	
l4578:	
	movlw	(030h)
	movwf	(??_upload_GUI+0)+0
	movf	(??_upload_GUI+0)+0,w
	movwf	(_TEMP)
	goto	l4580
	
l947:	
	line	1116
	
l4580:	
;PR29.c: 1116: uart_write(2,TEMP);
	movf	(_TEMP),w
	movwf	(??_upload_GUI+0)+0
	movf	(??_upload_GUI+0)+0,w
	movwf	(?_uart_write)
	movlw	(02h)
	fcall	_uart_write
	line	1112
	
l4582:	
	movlw	(01h)
	movwf	(??_upload_GUI+0)+0
	movf	(??_upload_GUI+0)+0,w
	addwf	(upload_GUI@count),f
	goto	l4584
	
l945:	
	
l4584:	
	movf	(upload_GUI@address),w
	addlw	low(04h)
	movwf	(??_upload_GUI+0)+0
	movlw	high(04h)
	skipnc
	movlw	(high(04h)+1)&0ffh
	movwf	((??_upload_GUI+0)+0)+1
	movf	1+(??_upload_GUI+0)+0,w
	xorlw	80h
	movwf	(??_upload_GUI+2)+0
	movlw	80h
	subwf	(??_upload_GUI+2)+0,w
	skipz
	goto	u4215
	movf	(upload_GUI@count),w
	subwf	0+(??_upload_GUI+0)+0,w
u4215:

	skipnc
	goto	u4211
	goto	u4210
u4211:
	goto	l4574
u4210:
	goto	l4586
	
l948:	
	line	1119
	
l4586:	
;PR29.c: 1117: }
;PR29.c: 1119: address=0x20;
	movlw	(020h)
	movwf	(??_upload_GUI+0)+0
	movf	(??_upload_GUI+0)+0,w
	movwf	(upload_GUI@address)
	line	1120
;PR29.c: 1120: count=address;
	movf	(upload_GUI@address),w
	movwf	(??_upload_GUI+0)+0
	movf	(??_upload_GUI+0)+0,w
	movwf	(upload_GUI@count)
	line	1121
	goto	l4594
	line	1122
	
l950:	
	line	1123
	
l4588:	
;PR29.c: 1122: {
;PR29.c: 1123: TEMP=get_eeprom(count);
	movf	(upload_GUI@count),w
	fcall	_get_eeprom
	movwf	(??_upload_GUI+0)+0
	movf	(??_upload_GUI+0)+0,w
	bcf	status, 5	;RP0=0, select bank0
	bcf	status, 6	;RP1=0, select bank0
	movwf	(_TEMP)
	line	1124
	
l4590:	
;PR29.c: 1124: uart_write(2,TEMP);
	movf	(_TEMP),w
	movwf	(??_upload_GUI+0)+0
	movf	(??_upload_GUI+0)+0,w
	movwf	(?_uart_write)
	movlw	(02h)
	fcall	_uart_write
	line	1121
	
l4592:	
	movlw	(01h)
	movwf	(??_upload_GUI+0)+0
	movf	(??_upload_GUI+0)+0,w
	addwf	(upload_GUI@count),f
	goto	l4594
	
l949:	
	
l4594:	
	movf	(upload_GUI@address),w
	addlw	low(03h)
	movwf	(??_upload_GUI+0)+0
	movlw	high(03h)
	skipnc
	movlw	(high(03h)+1)&0ffh
	movwf	((??_upload_GUI+0)+0)+1
	movf	1+(??_upload_GUI+0)+0,w
	xorlw	80h
	movwf	(??_upload_GUI+2)+0
	movlw	80h
	subwf	(??_upload_GUI+2)+0,w
	skipz
	goto	u4225
	movf	(upload_GUI@count),w
	subwf	0+(??_upload_GUI+0)+0,w
u4225:

	skipnc
	goto	u4221
	goto	u4220
u4221:
	goto	l4588
u4220:
	goto	l4596
	
l951:	
	line	1126
	
l4596:	
;PR29.c: 1125: }
;PR29.c: 1126: address=count;
	movf	(upload_GUI@count),w
	movwf	(??_upload_GUI+0)+0
	movf	(??_upload_GUI+0)+0,w
	movwf	(upload_GUI@address)
	line	1127
	goto	l4608
	line	1128
	
l953:	
	line	1129
	
l4598:	
;PR29.c: 1128: {
;PR29.c: 1129: TEMP=get_eeprom(count);
	movf	(upload_GUI@count),w
	fcall	_get_eeprom
	movwf	(??_upload_GUI+0)+0
	movf	(??_upload_GUI+0)+0,w
	bcf	status, 5	;RP0=0, select bank0
	bcf	status, 6	;RP1=0, select bank0
	movwf	(_TEMP)
	line	1130
	
l4600:	
;PR29.c: 1130: if(TEMP==0xff) TEMP=0x30;
	movf	(_TEMP),w
	xorlw	0FFh
	skipz
	goto	u4231
	goto	u4230
u4231:
	goto	l4604
u4230:
	
l4602:	
	movlw	(030h)
	movwf	(??_upload_GUI+0)+0
	movf	(??_upload_GUI+0)+0,w
	movwf	(_TEMP)
	goto	l4604
	
l954:	
	line	1131
	
l4604:	
;PR29.c: 1131: uart_write(2,TEMP);
	movf	(_TEMP),w
	movwf	(??_upload_GUI+0)+0
	movf	(??_upload_GUI+0)+0,w
	movwf	(?_uart_write)
	movlw	(02h)
	fcall	_uart_write
	line	1127
	
l4606:	
	movlw	(01h)
	movwf	(??_upload_GUI+0)+0
	movf	(??_upload_GUI+0)+0,w
	addwf	(upload_GUI@count),f
	goto	l4608
	
l952:	
	
l4608:	
	movf	(upload_GUI@address),w
	addlw	low(04h)
	movwf	(??_upload_GUI+0)+0
	movlw	high(04h)
	skipnc
	movlw	(high(04h)+1)&0ffh
	movwf	((??_upload_GUI+0)+0)+1
	movf	1+(??_upload_GUI+0)+0,w
	xorlw	80h
	movwf	(??_upload_GUI+2)+0
	movlw	80h
	subwf	(??_upload_GUI+2)+0,w
	skipz
	goto	u4245
	movf	(upload_GUI@count),w
	subwf	0+(??_upload_GUI+0)+0,w
u4245:

	skipnc
	goto	u4241
	goto	u4240
u4241:
	goto	l4598
u4240:
	goto	l4610
	
l955:	
	line	1134
	
l4610:	
;PR29.c: 1132: }
;PR29.c: 1134: address=0x30;
	movlw	(030h)
	movwf	(??_upload_GUI+0)+0
	movf	(??_upload_GUI+0)+0,w
	movwf	(upload_GUI@address)
	line	1135
;PR29.c: 1135: count=address;
	movf	(upload_GUI@address),w
	movwf	(??_upload_GUI+0)+0
	movf	(??_upload_GUI+0)+0,w
	movwf	(upload_GUI@count)
	line	1136
	goto	l4618
	line	1137
	
l957:	
	line	1138
	
l4612:	
;PR29.c: 1137: {
;PR29.c: 1138: TEMP=get_eeprom(count);
	movf	(upload_GUI@count),w
	fcall	_get_eeprom
	movwf	(??_upload_GUI+0)+0
	movf	(??_upload_GUI+0)+0,w
	bcf	status, 5	;RP0=0, select bank0
	bcf	status, 6	;RP1=0, select bank0
	movwf	(_TEMP)
	line	1139
	
l4614:	
;PR29.c: 1139: uart_write(2,TEMP);
	movf	(_TEMP),w
	movwf	(??_upload_GUI+0)+0
	movf	(??_upload_GUI+0)+0,w
	movwf	(?_uart_write)
	movlw	(02h)
	fcall	_uart_write
	line	1136
	
l4616:	
	movlw	(01h)
	movwf	(??_upload_GUI+0)+0
	movf	(??_upload_GUI+0)+0,w
	addwf	(upload_GUI@count),f
	goto	l4618
	
l956:	
	
l4618:	
	movf	(upload_GUI@address),w
	addlw	low(03h)
	movwf	(??_upload_GUI+0)+0
	movlw	high(03h)
	skipnc
	movlw	(high(03h)+1)&0ffh
	movwf	((??_upload_GUI+0)+0)+1
	movf	1+(??_upload_GUI+0)+0,w
	xorlw	80h
	movwf	(??_upload_GUI+2)+0
	movlw	80h
	subwf	(??_upload_GUI+2)+0,w
	skipz
	goto	u4255
	movf	(upload_GUI@count),w
	subwf	0+(??_upload_GUI+0)+0,w
u4255:

	skipnc
	goto	u4251
	goto	u4250
u4251:
	goto	l4612
u4250:
	goto	l4620
	
l958:	
	line	1141
	
l4620:	
;PR29.c: 1140: }
;PR29.c: 1141: address=count;
	movf	(upload_GUI@count),w
	movwf	(??_upload_GUI+0)+0
	movf	(??_upload_GUI+0)+0,w
	movwf	(upload_GUI@address)
	line	1142
	goto	l4632
	line	1143
	
l960:	
	line	1144
	
l4622:	
;PR29.c: 1143: {
;PR29.c: 1144: TEMP=get_eeprom(count);
	movf	(upload_GUI@count),w
	fcall	_get_eeprom
	movwf	(??_upload_GUI+0)+0
	movf	(??_upload_GUI+0)+0,w
	bcf	status, 5	;RP0=0, select bank0
	bcf	status, 6	;RP1=0, select bank0
	movwf	(_TEMP)
	line	1145
	
l4624:	
;PR29.c: 1145: if(TEMP==0xff) TEMP=0x30;
	movf	(_TEMP),w
	xorlw	0FFh
	skipz
	goto	u4261
	goto	u4260
u4261:
	goto	l4628
u4260:
	
l4626:	
	movlw	(030h)
	movwf	(??_upload_GUI+0)+0
	movf	(??_upload_GUI+0)+0,w
	movwf	(_TEMP)
	goto	l4628
	
l961:	
	line	1146
	
l4628:	
;PR29.c: 1146: uart_write(2,TEMP);
	movf	(_TEMP),w
	movwf	(??_upload_GUI+0)+0
	movf	(??_upload_GUI+0)+0,w
	movwf	(?_uart_write)
	movlw	(02h)
	fcall	_uart_write
	line	1142
	
l4630:	
	movlw	(01h)
	movwf	(??_upload_GUI+0)+0
	movf	(??_upload_GUI+0)+0,w
	addwf	(upload_GUI@count),f
	goto	l4632
	
l959:	
	
l4632:	
	movf	(upload_GUI@address),w
	addlw	low(04h)
	movwf	(??_upload_GUI+0)+0
	movlw	high(04h)
	skipnc
	movlw	(high(04h)+1)&0ffh
	movwf	((??_upload_GUI+0)+0)+1
	movf	1+(??_upload_GUI+0)+0,w
	xorlw	80h
	movwf	(??_upload_GUI+2)+0
	movlw	80h
	subwf	(??_upload_GUI+2)+0,w
	skipz
	goto	u4275
	movf	(upload_GUI@count),w
	subwf	0+(??_upload_GUI+0)+0,w
u4275:

	skipnc
	goto	u4271
	goto	u4270
u4271:
	goto	l4622
u4270:
	goto	l4634
	
l962:	
	line	1149
	
l4634:	
;PR29.c: 1147: }
;PR29.c: 1149: address=0x40;
	movlw	(040h)
	movwf	(??_upload_GUI+0)+0
	movf	(??_upload_GUI+0)+0,w
	movwf	(upload_GUI@address)
	line	1150
;PR29.c: 1150: count=address;
	movf	(upload_GUI@address),w
	movwf	(??_upload_GUI+0)+0
	movf	(??_upload_GUI+0)+0,w
	movwf	(upload_GUI@count)
	line	1151
	goto	l4642
	line	1152
	
l964:	
	line	1153
	
l4636:	
;PR29.c: 1152: {
;PR29.c: 1153: TEMP=get_eeprom(count);
	movf	(upload_GUI@count),w
	fcall	_get_eeprom
	movwf	(??_upload_GUI+0)+0
	movf	(??_upload_GUI+0)+0,w
	bcf	status, 5	;RP0=0, select bank0
	bcf	status, 6	;RP1=0, select bank0
	movwf	(_TEMP)
	line	1154
	
l4638:	
;PR29.c: 1154: uart_write(2,TEMP);
	movf	(_TEMP),w
	movwf	(??_upload_GUI+0)+0
	movf	(??_upload_GUI+0)+0,w
	movwf	(?_uart_write)
	movlw	(02h)
	fcall	_uart_write
	line	1151
	
l4640:	
	movlw	(01h)
	movwf	(??_upload_GUI+0)+0
	movf	(??_upload_GUI+0)+0,w
	addwf	(upload_GUI@count),f
	goto	l4642
	
l963:	
	
l4642:	
	movf	(upload_GUI@address),w
	addlw	low(03h)
	movwf	(??_upload_GUI+0)+0
	movlw	high(03h)
	skipnc
	movlw	(high(03h)+1)&0ffh
	movwf	((??_upload_GUI+0)+0)+1
	movf	1+(??_upload_GUI+0)+0,w
	xorlw	80h
	movwf	(??_upload_GUI+2)+0
	movlw	80h
	subwf	(??_upload_GUI+2)+0,w
	skipz
	goto	u4285
	movf	(upload_GUI@count),w
	subwf	0+(??_upload_GUI+0)+0,w
u4285:

	skipnc
	goto	u4281
	goto	u4280
u4281:
	goto	l4636
u4280:
	goto	l4644
	
l965:	
	line	1156
	
l4644:	
;PR29.c: 1155: }
;PR29.c: 1156: address=count;
	movf	(upload_GUI@count),w
	movwf	(??_upload_GUI+0)+0
	movf	(??_upload_GUI+0)+0,w
	movwf	(upload_GUI@address)
	line	1157
	goto	l4656
	line	1158
	
l967:	
	line	1159
	
l4646:	
;PR29.c: 1158: {
;PR29.c: 1159: TEMP=get_eeprom(count);
	movf	(upload_GUI@count),w
	fcall	_get_eeprom
	movwf	(??_upload_GUI+0)+0
	movf	(??_upload_GUI+0)+0,w
	bcf	status, 5	;RP0=0, select bank0
	bcf	status, 6	;RP1=0, select bank0
	movwf	(_TEMP)
	line	1160
	
l4648:	
;PR29.c: 1160: if(TEMP==0xff) TEMP=0x30;
	movf	(_TEMP),w
	xorlw	0FFh
	skipz
	goto	u4291
	goto	u4290
u4291:
	goto	l4652
u4290:
	
l4650:	
	movlw	(030h)
	movwf	(??_upload_GUI+0)+0
	movf	(??_upload_GUI+0)+0,w
	movwf	(_TEMP)
	goto	l4652
	
l968:	
	line	1161
	
l4652:	
;PR29.c: 1161: uart_write(2,TEMP);
	movf	(_TEMP),w
	movwf	(??_upload_GUI+0)+0
	movf	(??_upload_GUI+0)+0,w
	movwf	(?_uart_write)
	movlw	(02h)
	fcall	_uart_write
	line	1157
	
l4654:	
	movlw	(01h)
	movwf	(??_upload_GUI+0)+0
	movf	(??_upload_GUI+0)+0,w
	addwf	(upload_GUI@count),f
	goto	l4656
	
l966:	
	
l4656:	
	movf	(upload_GUI@address),w
	addlw	low(04h)
	movwf	(??_upload_GUI+0)+0
	movlw	high(04h)
	skipnc
	movlw	(high(04h)+1)&0ffh
	movwf	((??_upload_GUI+0)+0)+1
	movf	1+(??_upload_GUI+0)+0,w
	xorlw	80h
	movwf	(??_upload_GUI+2)+0
	movlw	80h
	subwf	(??_upload_GUI+2)+0,w
	skipz
	goto	u4305
	movf	(upload_GUI@count),w
	subwf	0+(??_upload_GUI+0)+0,w
u4305:

	skipnc
	goto	u4301
	goto	u4300
u4301:
	goto	l4646
u4300:
	goto	l970
	
l969:	
	line	1164
	
l970:	
	return
	opt stack 0
GLOBAL	__end_of_upload_GUI
	__end_of_upload_GUI:
;; =============== function _upload_GUI ends ============

	signat	_upload_GUI,88
	global	_send_string
psect	text571,local,class=CODE,delta=2
global __ptext571
__ptext571:

;; *************** function _send_string *****************
;; Defined at:
;;		line 320 in file "C:\Users\Phang\Desktop\9.80\PR 29\PR29.c"
;; Parameters:    Size  Location     Type
;;  s               2    9[COMMON] PTR const unsigned char 
;;		 -> STR_69(8), STR_68(17), STR_67(17), STR_66(19), 
;;		 -> STR_65(16), STR_64(17), STR_63(17), STR_62(17), 
;;		 -> STR_61(17), STR_60(14), STR_59(17), STR_58(14), 
;;		 -> STR_57(17), STR_56(6), STR_55(12), STR_54(8), 
;;		 -> STR_53(12), STR_52(14), STR_51(11), STR_50(8), 
;;		 -> STR_49(7), STR_48(17), STR_47(17), STR_46(17), 
;;		 -> STR_45(17), STR_44(17), STR_43(17), STR_42(17), 
;;		 -> STR_41(17), STR_40(17), STR_39(17), STR_38(17), 
;;		 -> STR_37(17), STR_36(17), STR_35(17), STR_34(17), 
;;		 -> STR_33(12), STR_32(17), STR_31(17), STR_30(17), 
;;		 -> STR_29(17), STR_28(17), STR_27(6), STR_26(17), 
;;		 -> STR_25(6), STR_24(17), STR_23(17), STR_22(3), 
;;		 -> STR_21(14), STR_20(9), STR_19(5), STR_18(14), 
;;		 -> STR_17(17), STR_16(17), STR_15(14), STR_14(17), 
;;		 -> STR_13(17), STR_12(17), STR_11(17), STR_10(17), 
;;		 -> STR_9(17), STR_8(17), STR_7(17), STR_6(3), 
;;		 -> STR_5(7), STR_4(17), STR_3(17), STR_2(6), 
;;		 -> STR_1(13), 
;; Auto vars:     Size  Location     Type
;;  i               1   11[COMMON] unsigned char 
;; Return value:  Size  Location     Type
;;		None               void
;; Registers used:
;;		wreg, fsr0l, fsr0h, status,2, status,0, btemp+1, pclath, cstack
;; Tracked objects:
;;		On entry : 0/0
;;		On exit  : 0/0
;;		Unchanged: 0/0
;; Data sizes:     COMMON   BANK0   BANK1   BANK3   BANK2
;;      Params:         2       0       0       0       0
;;      Locals:         1       0       0       0       0
;;      Temps:          0       0       0       0       0
;;      Totals:         3       0       0       0       0
;;Total ram usage:        3 bytes
;; Hardware stack levels used:    1
;; Hardware stack levels required when called:    2
;; This function calls:
;;		_send_char
;; This function is called by:
;;		_main
;;		_mode
;;		_display_status
;;		_CheckAdmin
;;		_AddNew
;;		_view_attendance
;;		_ResetAdmin
;; This function uses a non-reentrant model
;;
psect	text571
	file	"C:\Users\Phang\Desktop\9.80\PR 29\PR29.c"
	line	320
	global	__size_of_send_string
	__size_of_send_string	equ	__end_of_send_string-_send_string
	
_send_string:	
	opt	stack 3
; Regs used in _send_string: [wreg-fsr0h+status,2+status,0+btemp+1+pclath+cstack]
	line	321
	
l4526:	
;PR29.c: 321: unsigned char i=0;
	clrc
	movlw	0
	btfsc	status,0
	movlw	1
	movwf	(send_string@i)
	line	322
;PR29.c: 322: while (s && *s)send_char (*s++);
	goto	l4532
	
l672:	
	
l4528:	
	movf	(send_string@s+1),w
	bcf	status, 5	;RP0=0, select bank0
	bcf	status, 6	;RP1=0, select bank0
	movwf	btemp+1
	movf	(send_string@s),w
	movwf	fsr0
	fcall	stringtab
	fcall	_send_char
	
l4530:	
	movlw	low(01h)
	addwf	(send_string@s),f
	skipnc
	incf	(send_string@s+1),f
	movlw	high(01h)
	addwf	(send_string@s+1),f
	goto	l4532
	
l671:	
	
l4532:	
	movf	(send_string@s+1),w
	iorwf	(send_string@s),w
	skipnz
	goto	u4141
	goto	u4140
u4141:
	goto	l676
u4140:
	
l4534:	
	movf	(send_string@s+1),w
	bcf	status, 5	;RP0=0, select bank0
	bcf	status, 6	;RP1=0, select bank0
	movwf	btemp+1
	movf	(send_string@s),w
	movwf	fsr0
	fcall	stringtab
	iorlw	0
	skipz
	goto	u4151
	goto	u4150
u4151:
	goto	l4528
u4150:
	goto	l676
	
l674:	
	goto	l676
	
l675:	
	line	324
	
l676:	
	return
	opt stack 0
GLOBAL	__end_of_send_string
	__end_of_send_string:
;; =============== function _send_string ends ============

	signat	_send_string,4216
	global	_lcd_goto
psect	text572,local,class=CODE,delta=2
global __ptext572
__ptext572:

;; *************** function _lcd_goto *****************
;; Defined at:
;;		line 299 in file "C:\Users\Phang\Desktop\9.80\PR 29\PR29.c"
;; Parameters:    Size  Location     Type
;;  data            1    wreg     unsigned char 
;; Auto vars:     Size  Location     Type
;;  data            1   10[COMMON] unsigned char 
;; Return value:  Size  Location     Type
;;		None               void
;; Registers used:
;;		wreg, status,2, status,0, pclath, cstack
;; Tracked objects:
;;		On entry : 0/0
;;		On exit  : 0/0
;;		Unchanged: 0/0
;; Data sizes:     COMMON   BANK0   BANK1   BANK3   BANK2
;;      Params:         0       0       0       0       0
;;      Locals:         1       0       0       0       0
;;      Temps:          1       0       0       0       0
;;      Totals:         2       0       0       0       0
;;Total ram usage:        2 bytes
;; Hardware stack levels used:    1
;; Hardware stack levels required when called:    2
;; This function calls:
;;		_send_config
;; This function is called by:
;;		_main
;;		_mode
;;		_display_status
;;		_CheckAdmin
;;		_AddNew
;;		_view_attendance
;;		_ResetAdmin
;; This function uses a non-reentrant model
;;
psect	text572
	file	"C:\Users\Phang\Desktop\9.80\PR 29\PR29.c"
	line	299
	global	__size_of_lcd_goto
	__size_of_lcd_goto	equ	__end_of_lcd_goto-_lcd_goto
	
_lcd_goto:	
	opt	stack 3
; Regs used in _lcd_goto: [wreg+status,2+status,0+pclath+cstack]
;lcd_goto@data stored from wreg
	movwf	(lcd_goto@data)
	line	300
	
l4518:	
;PR29.c: 300: if(data<16)
	movlw	(010h)
	subwf	(lcd_goto@data),w
	skipnc
	goto	u4131
	goto	u4130
u4131:
	goto	l4522
u4130:
	line	302
	
l4520:	
;PR29.c: 301: {
;PR29.c: 302: send_config(0x80+data);
	movf	(lcd_goto@data),w
	addlw	080h
	fcall	_send_config
	line	303
;PR29.c: 303: }
	goto	l665
	line	304
	
l663:	
	line	306
	
l4522:	
;PR29.c: 304: else
;PR29.c: 305: {
;PR29.c: 306: data=data-20;
	movf	(lcd_goto@data),w
	addlw	0ECh
	movwf	(??_lcd_goto+0)+0
	movf	(??_lcd_goto+0)+0,w
	movwf	(lcd_goto@data)
	line	307
	
l4524:	
;PR29.c: 307: send_config(0xc0+data);
	movf	(lcd_goto@data),w
	addlw	0C0h
	fcall	_send_config
	goto	l665
	line	308
	
l664:	
	line	309
	
l665:	
	return
	opt stack 0
GLOBAL	__end_of_lcd_goto
	__end_of_lcd_goto:
;; =============== function _lcd_goto ends ============

	signat	_lcd_goto,4216
	global	_lcd_clr
psect	text573,local,class=CODE,delta=2
global __ptext573
__ptext573:

;; *************** function _lcd_clr *****************
;; Defined at:
;;		line 313 in file "C:\Users\Phang\Desktop\9.80\PR 29\PR29.c"
;; Parameters:    Size  Location     Type
;;		None
;; Auto vars:     Size  Location     Type
;;		None
;; Return value:  Size  Location     Type
;;		None               void
;; Registers used:
;;		wreg, status,2, status,0, pclath, cstack
;; Tracked objects:
;;		On entry : 0/0
;;		On exit  : 0/0
;;		Unchanged: 0/0
;; Data sizes:     COMMON   BANK0   BANK1   BANK3   BANK2
;;      Params:         0       0       0       0       0
;;      Locals:         0       0       0       0       0
;;      Temps:          0       0       0       0       0
;;      Totals:         0       0       0       0       0
;;Total ram usage:        0 bytes
;; Hardware stack levels used:    1
;; Hardware stack levels required when called:    2
;; This function calls:
;;		_send_config
;;		_delay
;; This function is called by:
;;		_main
;;		_mode
;;		_display_status
;;		_AddNew
;;		_view_attendance
;; This function uses a non-reentrant model
;;
psect	text573
	file	"C:\Users\Phang\Desktop\9.80\PR 29\PR29.c"
	line	313
	global	__size_of_lcd_clr
	__size_of_lcd_clr	equ	__end_of_lcd_clr-_lcd_clr
	
_lcd_clr:	
	opt	stack 3
; Regs used in _lcd_clr: [wreg+status,2+status,0+pclath+cstack]
	line	314
	
l4516:	
;PR29.c: 314: send_config(0x01);
	movlw	(01h)
	fcall	_send_config
	line	315
;PR29.c: 315: delay(600);
	movlw	0
	movwf	(?_delay+3)
	movlw	0
	movwf	(?_delay+2)
	movlw	02h
	movwf	(?_delay+1)
	movlw	058h
	movwf	(?_delay)

	fcall	_delay
	line	316
	
l668:	
	return
	opt stack 0
GLOBAL	__end_of_lcd_clr
	__end_of_lcd_clr:
;; =============== function _lcd_clr ends ============

	signat	_lcd_clr,88
	global	_uart_write
psect	text574,local,class=CODE,delta=2
global __ptext574
__ptext574:

;; *************** function _uart_write *****************
;; Defined at:
;;		line 52 in file "C:\Users\Phang\Desktop\9.80\PR 29\uart_io.c"
;; Parameters:    Size  Location     Type
;;  channel         1    wreg     unsigned char 
;;  data            1    0[COMMON] unsigned char 
;; Auto vars:     Size  Location     Type
;;  channel         1    3[COMMON] unsigned char 
;;  i               1    4[COMMON] unsigned char 
;; Return value:  Size  Location     Type
;;		None               void
;; Registers used:
;;		wreg, fsr0l, fsr0h, status,2, status,0
;; Tracked objects:
;;		On entry : 0/0
;;		On exit  : 0/0
;;		Unchanged: 0/0
;; Data sizes:     COMMON   BANK0   BANK1   BANK3   BANK2
;;      Params:         1       0       0       0       0
;;      Locals:         2       0       0       0       0
;;      Temps:          2       0       0       0       0
;;      Totals:         5       0       0       0       0
;;Total ram usage:        5 bytes
;; Hardware stack levels used:    1
;; This function calls:
;;		Nothing
;; This function is called by:
;;		_upload_HT
;;		_upload_GUI
;;		_allign
;; This function uses a non-reentrant model
;;
psect	text574
	file	"C:\Users\Phang\Desktop\9.80\PR 29\uart_io.c"
	line	52
	global	__size_of_uart_write
	__size_of_uart_write	equ	__end_of_uart_write-_uart_write
	
_uart_write:	
	opt	stack 4
; Regs used in _uart_write: [wreg-fsr0h+status,2+status,0]
;uart_write@channel stored from wreg
	movwf	(uart_write@channel)
	line	55
	
l4488:	
;uart_io.c: 53: unsigned char i;
;uart_io.c: 55: switch(channel)
	goto	l4514
	line	57
;uart_io.c: 56: {
;uart_io.c: 57: case 2:
	
l1486:	
	line	58
;uart_io.c: 58: RC0=0;
	bcf	status, 5	;RP0=0, select bank0
	bcf	status, 6	;RP1=0, select bank0
	bcf	(56/8),(56)&7
	line	59
	
l4490:	
;uart_io.c: 59: _delay((20000000/4)/19200-15);
	opt asmopt_off
movlw	81
movwf	(??_uart_write+0)+0,f
u5807:
decfsz	(??_uart_write+0)+0,f
	goto	u5807
	clrwdt
opt asmopt_on

	line	60
	
l4492:	
;uart_io.c: 60: for(i=1;i>0;i=i<<1)
	clrf	(uart_write@i)
	bsf	status,0
	rlf	(uart_write@i),f
	
l4494:	
	movf	(uart_write@i),f
	skipz
	goto	u4101
	goto	u4100
u4101:
	goto	l4498
u4100:
	goto	l4508
	
l4496:	
	goto	l4508
	line	61
	
l1487:	
	line	62
	
l4498:	
;uart_io.c: 61: {
;uart_io.c: 62: if((data&i)==0)
	movf	(uart_write@data),w
	andwf	(uart_write@i),w
	btfss	status,2
	goto	u4111
	goto	u4110
u4111:
	goto	l1489
u4110:
	line	64
	
l4500:	
;uart_io.c: 63: {
;uart_io.c: 64: RC0=0;
	bcf	status, 5	;RP0=0, select bank0
	bcf	status, 6	;RP1=0, select bank0
	bcf	(56/8),(56)&7
	line	65
	
l4502:	
;uart_io.c: 65: _delay((20000000/4)/19200-21);
	opt asmopt_off
movlw	79
movwf	(??_uart_write+0)+0,f
u5817:
decfsz	(??_uart_write+0)+0,f
	goto	u5817
	clrwdt
opt asmopt_on

	line	66
;uart_io.c: 66: }
	goto	l4506
	line	67
	
l1489:	
	line	69
;uart_io.c: 67: else
;uart_io.c: 68: {
;uart_io.c: 69: RC0=1;
	bcf	status, 5	;RP0=0, select bank0
	bcf	status, 6	;RP1=0, select bank0
	bsf	(56/8),(56)&7
	line	70
	
l4504:	
;uart_io.c: 70: _delay((20000000/4)/19200-20);
	opt asmopt_off
movlw	79
movwf	(??_uart_write+0)+0,f
u5827:
decfsz	(??_uart_write+0)+0,f
	goto	u5827
	nop2	;nop
opt asmopt_on

	goto	l4506
	line	71
	
l1490:	
	line	60
	
l4506:	
	movf	(uart_write@i),w
	movwf	(??_uart_write+0)+0
	addwf	(??_uart_write+0)+0,w
	movwf	(??_uart_write+1)+0
	movf	(??_uart_write+1)+0,w
	movwf	(uart_write@i)
	movf	(uart_write@i),f
	skipz
	goto	u4121
	goto	u4120
u4121:
	goto	l4498
u4120:
	goto	l4508
	
l1488:	
	line	73
	
l4508:	
;uart_io.c: 71: }
;uart_io.c: 72: }
;uart_io.c: 73: _delay(8);
		opt asmopt_off
	nop2	;2 cycle nop
	opt asmopt_on
	opt asmopt_off
	nop2	;2 cycle nop
	opt asmopt_on
	opt asmopt_off
	nop2	;2 cycle nop
	opt asmopt_on
	opt asmopt_off
	nop2	;2 cycle nop
	opt asmopt_on

	line	74
	
l4510:	
;uart_io.c: 74: RC0=1;
	bcf	status, 5	;RP0=0, select bank0
	bcf	status, 6	;RP1=0, select bank0
	bsf	(56/8),(56)&7
	line	75
;uart_io.c: 75: _delay((20000000/4)/19200-3);
	opt asmopt_off
movlw	85
movwf	(??_uart_write+0)+0,f
u5837:
decfsz	(??_uart_write+0)+0,f
	goto	u5837
	clrwdt
opt asmopt_on

	line	76
;uart_io.c: 76: break;
	goto	l1492
	line	77
	
l4512:	
;uart_io.c: 77: }
	goto	l1492
	line	55
	
l1485:	
	
l4514:	
	movf	(uart_write@channel),w
	; Switch size 1, requested type "space"
; Number of cases is 1, Range of values is 2 to 2
; switch strategies available:
; Name         Bytes Cycles
; simple_byte     4     3 (average)
; direct_byte    25    22 (fixed)
;	Chosen strategy is simple_byte

	xorlw	2^0	; case 2
	skipnz
	goto	l1486
	goto	l1492

	line	77
	
l1491:	
	line	78
	
l1492:	
	return
	opt stack 0
GLOBAL	__end_of_uart_write
	__end_of_uart_write:
;; =============== function _uart_write ends ============

	signat	_uart_write,8312
	global	_clear_attendance
psect	text575,local,class=CODE,delta=2
global __ptext575
__ptext575:

;; *************** function _clear_attendance *****************
;; Defined at:
;;		line 911 in file "C:\Users\Phang\Desktop\9.80\PR 29\PR29.c"
;; Parameters:    Size  Location     Type
;;		None
;; Auto vars:     Size  Location     Type
;;		None
;; Return value:  Size  Location     Type
;;		None               void
;; Registers used:
;;		wreg, status,2, status,0, pclath, cstack
;; Tracked objects:
;;		On entry : 0/0
;;		On exit  : 0/0
;;		Unchanged: 0/0
;; Data sizes:     COMMON   BANK0   BANK1   BANK3   BANK2
;;      Params:         0       0       0       0       0
;;      Locals:         0       0       0       0       0
;;      Temps:          1       0       0       0       0
;;      Totals:         1       0       0       0       0
;;Total ram usage:        1 bytes
;; Hardware stack levels used:    1
;; Hardware stack levels required when called:    1
;; This function calls:
;;		_store_eeprom
;; This function is called by:
;;		_mode
;; This function uses a non-reentrant model
;;
psect	text575
	file	"C:\Users\Phang\Desktop\9.80\PR 29\PR29.c"
	line	911
	global	__size_of_clear_attendance
	__size_of_clear_attendance	equ	__end_of_clear_attendance-_clear_attendance
	
_clear_attendance:	
	opt	stack 5
; Regs used in _clear_attendance: [wreg+status,2+status,0+pclath+cstack]
	line	912
	
l4388:	
;PR29.c: 912: day_location=0x00;
	clrc
	movlw	0
	btfsc	status,0
	movlw	1
	bcf	status, 5	;RP0=0, select bank0
	bcf	status, 6	;RP1=0, select bank0
	movwf	(_day_location)
	line	913
	
l4390:	
;PR29.c: 913: store_eeprom('D',day_location);
	movf	(_day_location),w
	movwf	(??_clear_attendance+0)+0
	movf	(??_clear_attendance+0)+0,w
	movwf	(?_store_eeprom)
	movlw	(044h)
	fcall	_store_eeprom
	line	914
	
l4392:	
;PR29.c: 914: store_eeprom('A',day_location+1);
	bcf	status, 5	;RP0=0, select bank0
	bcf	status, 6	;RP1=0, select bank0
	movf	(_day_location),w
	addlw	01h
	movwf	(??_clear_attendance+0)+0
	movf	(??_clear_attendance+0)+0,w
	movwf	(?_store_eeprom)
	movlw	(041h)
	fcall	_store_eeprom
	line	915
	
l4394:	
;PR29.c: 915: store_eeprom('Y',day_location+2);
	bcf	status, 5	;RP0=0, select bank0
	bcf	status, 6	;RP1=0, select bank0
	movf	(_day_location),w
	addlw	02h
	movwf	(??_clear_attendance+0)+0
	movf	(??_clear_attendance+0)+0,w
	movwf	(?_store_eeprom)
	movlw	(059h)
	fcall	_store_eeprom
	line	916
	
l4396:	
;PR29.c: 916: store_eeprom('1',day_location+3);
	bcf	status, 5	;RP0=0, select bank0
	bcf	status, 6	;RP1=0, select bank0
	movf	(_day_location),w
	addlw	03h
	movwf	(??_clear_attendance+0)+0
	movf	(??_clear_attendance+0)+0,w
	movwf	(?_store_eeprom)
	movlw	(031h)
	fcall	_store_eeprom
	line	917
	
l4398:	
;PR29.c: 917: store_eeprom(0xff,day_location+4);
	bcf	status, 5	;RP0=0, select bank0
	bcf	status, 6	;RP1=0, select bank0
	movf	(_day_location),w
	addlw	04h
	movwf	(??_clear_attendance+0)+0
	movf	(??_clear_attendance+0)+0,w
	movwf	(?_store_eeprom)
	movlw	(0FFh)
	fcall	_store_eeprom
	line	918
	
l4400:	
;PR29.c: 918: store_eeprom(0xff,day_location+5);
	bcf	status, 5	;RP0=0, select bank0
	bcf	status, 6	;RP1=0, select bank0
	movf	(_day_location),w
	addlw	05h
	movwf	(??_clear_attendance+0)+0
	movf	(??_clear_attendance+0)+0,w
	movwf	(?_store_eeprom)
	movlw	(0FFh)
	fcall	_store_eeprom
	line	919
	
l4402:	
;PR29.c: 919: store_eeprom(0xff,day_location+6);
	bcf	status, 5	;RP0=0, select bank0
	bcf	status, 6	;RP1=0, select bank0
	movf	(_day_location),w
	addlw	06h
	movwf	(??_clear_attendance+0)+0
	movf	(??_clear_attendance+0)+0,w
	movwf	(?_store_eeprom)
	movlw	(0FFh)
	fcall	_store_eeprom
	line	920
	
l4404:	
;PR29.c: 920: store_eeprom(0xff,day_location+7);
	bcf	status, 5	;RP0=0, select bank0
	bcf	status, 6	;RP1=0, select bank0
	movf	(_day_location),w
	addlw	07h
	movwf	(??_clear_attendance+0)+0
	movf	(??_clear_attendance+0)+0,w
	movwf	(?_store_eeprom)
	movlw	(0FFh)
	fcall	_store_eeprom
	line	921
	
l4406:	
;PR29.c: 921: store_eeprom(0xff,day_location+8);
	bcf	status, 5	;RP0=0, select bank0
	bcf	status, 6	;RP1=0, select bank0
	movf	(_day_location),w
	addlw	08h
	movwf	(??_clear_attendance+0)+0
	movf	(??_clear_attendance+0)+0,w
	movwf	(?_store_eeprom)
	movlw	(0FFh)
	fcall	_store_eeprom
	line	922
	
l4408:	
;PR29.c: 922: day_location=0x10;
	movlw	(010h)
	movwf	(??_clear_attendance+0)+0
	movf	(??_clear_attendance+0)+0,w
	bcf	status, 5	;RP0=0, select bank0
	bcf	status, 6	;RP1=0, select bank0
	movwf	(_day_location)
	line	923
	
l4410:	
;PR29.c: 923: store_eeprom('D',day_location);
	movf	(_day_location),w
	movwf	(??_clear_attendance+0)+0
	movf	(??_clear_attendance+0)+0,w
	movwf	(?_store_eeprom)
	movlw	(044h)
	fcall	_store_eeprom
	line	924
	
l4412:	
;PR29.c: 924: store_eeprom('A',day_location+1);
	bcf	status, 5	;RP0=0, select bank0
	bcf	status, 6	;RP1=0, select bank0
	movf	(_day_location),w
	addlw	01h
	movwf	(??_clear_attendance+0)+0
	movf	(??_clear_attendance+0)+0,w
	movwf	(?_store_eeprom)
	movlw	(041h)
	fcall	_store_eeprom
	line	925
	
l4414:	
;PR29.c: 925: store_eeprom('Y',day_location+2);
	bcf	status, 5	;RP0=0, select bank0
	bcf	status, 6	;RP1=0, select bank0
	movf	(_day_location),w
	addlw	02h
	movwf	(??_clear_attendance+0)+0
	movf	(??_clear_attendance+0)+0,w
	movwf	(?_store_eeprom)
	movlw	(059h)
	fcall	_store_eeprom
	line	926
	
l4416:	
;PR29.c: 926: store_eeprom('2',day_location+3);
	bcf	status, 5	;RP0=0, select bank0
	bcf	status, 6	;RP1=0, select bank0
	movf	(_day_location),w
	addlw	03h
	movwf	(??_clear_attendance+0)+0
	movf	(??_clear_attendance+0)+0,w
	movwf	(?_store_eeprom)
	movlw	(032h)
	fcall	_store_eeprom
	line	927
	
l4418:	
;PR29.c: 927: store_eeprom(0xff,day_location+4);
	bcf	status, 5	;RP0=0, select bank0
	bcf	status, 6	;RP1=0, select bank0
	movf	(_day_location),w
	addlw	04h
	movwf	(??_clear_attendance+0)+0
	movf	(??_clear_attendance+0)+0,w
	movwf	(?_store_eeprom)
	movlw	(0FFh)
	fcall	_store_eeprom
	line	928
	
l4420:	
;PR29.c: 928: store_eeprom(0xff,day_location+5);
	bcf	status, 5	;RP0=0, select bank0
	bcf	status, 6	;RP1=0, select bank0
	movf	(_day_location),w
	addlw	05h
	movwf	(??_clear_attendance+0)+0
	movf	(??_clear_attendance+0)+0,w
	movwf	(?_store_eeprom)
	movlw	(0FFh)
	fcall	_store_eeprom
	line	929
	
l4422:	
;PR29.c: 929: store_eeprom(0xff,day_location+6);
	bcf	status, 5	;RP0=0, select bank0
	bcf	status, 6	;RP1=0, select bank0
	movf	(_day_location),w
	addlw	06h
	movwf	(??_clear_attendance+0)+0
	movf	(??_clear_attendance+0)+0,w
	movwf	(?_store_eeprom)
	movlw	(0FFh)
	fcall	_store_eeprom
	line	930
	
l4424:	
;PR29.c: 930: store_eeprom(0xff,day_location+7);
	bcf	status, 5	;RP0=0, select bank0
	bcf	status, 6	;RP1=0, select bank0
	movf	(_day_location),w
	addlw	07h
	movwf	(??_clear_attendance+0)+0
	movf	(??_clear_attendance+0)+0,w
	movwf	(?_store_eeprom)
	movlw	(0FFh)
	fcall	_store_eeprom
	line	931
	
l4426:	
;PR29.c: 931: store_eeprom(0xff,day_location+8);
	bcf	status, 5	;RP0=0, select bank0
	bcf	status, 6	;RP1=0, select bank0
	movf	(_day_location),w
	addlw	08h
	movwf	(??_clear_attendance+0)+0
	movf	(??_clear_attendance+0)+0,w
	movwf	(?_store_eeprom)
	movlw	(0FFh)
	fcall	_store_eeprom
	line	932
	
l4428:	
;PR29.c: 932: day_location=0x20;
	movlw	(020h)
	movwf	(??_clear_attendance+0)+0
	movf	(??_clear_attendance+0)+0,w
	bcf	status, 5	;RP0=0, select bank0
	bcf	status, 6	;RP1=0, select bank0
	movwf	(_day_location)
	line	933
	
l4430:	
;PR29.c: 933: store_eeprom('D',day_location);
	movf	(_day_location),w
	movwf	(??_clear_attendance+0)+0
	movf	(??_clear_attendance+0)+0,w
	movwf	(?_store_eeprom)
	movlw	(044h)
	fcall	_store_eeprom
	line	934
	
l4432:	
;PR29.c: 934: store_eeprom('A',day_location+1);
	bcf	status, 5	;RP0=0, select bank0
	bcf	status, 6	;RP1=0, select bank0
	movf	(_day_location),w
	addlw	01h
	movwf	(??_clear_attendance+0)+0
	movf	(??_clear_attendance+0)+0,w
	movwf	(?_store_eeprom)
	movlw	(041h)
	fcall	_store_eeprom
	line	935
	
l4434:	
;PR29.c: 935: store_eeprom('Y',day_location+2);
	bcf	status, 5	;RP0=0, select bank0
	bcf	status, 6	;RP1=0, select bank0
	movf	(_day_location),w
	addlw	02h
	movwf	(??_clear_attendance+0)+0
	movf	(??_clear_attendance+0)+0,w
	movwf	(?_store_eeprom)
	movlw	(059h)
	fcall	_store_eeprom
	line	936
	
l4436:	
;PR29.c: 936: store_eeprom('3',day_location+3);
	bcf	status, 5	;RP0=0, select bank0
	bcf	status, 6	;RP1=0, select bank0
	movf	(_day_location),w
	addlw	03h
	movwf	(??_clear_attendance+0)+0
	movf	(??_clear_attendance+0)+0,w
	movwf	(?_store_eeprom)
	movlw	(033h)
	fcall	_store_eeprom
	line	937
	
l4438:	
;PR29.c: 937: store_eeprom(0xff,day_location+4);
	bcf	status, 5	;RP0=0, select bank0
	bcf	status, 6	;RP1=0, select bank0
	movf	(_day_location),w
	addlw	04h
	movwf	(??_clear_attendance+0)+0
	movf	(??_clear_attendance+0)+0,w
	movwf	(?_store_eeprom)
	movlw	(0FFh)
	fcall	_store_eeprom
	line	938
	
l4440:	
;PR29.c: 938: store_eeprom(0xff,day_location+5);
	bcf	status, 5	;RP0=0, select bank0
	bcf	status, 6	;RP1=0, select bank0
	movf	(_day_location),w
	addlw	05h
	movwf	(??_clear_attendance+0)+0
	movf	(??_clear_attendance+0)+0,w
	movwf	(?_store_eeprom)
	movlw	(0FFh)
	fcall	_store_eeprom
	line	939
	
l4442:	
;PR29.c: 939: store_eeprom(0xff,day_location+6);
	bcf	status, 5	;RP0=0, select bank0
	bcf	status, 6	;RP1=0, select bank0
	movf	(_day_location),w
	addlw	06h
	movwf	(??_clear_attendance+0)+0
	movf	(??_clear_attendance+0)+0,w
	movwf	(?_store_eeprom)
	movlw	(0FFh)
	fcall	_store_eeprom
	line	940
	
l4444:	
;PR29.c: 940: store_eeprom(0xff,day_location+7);
	bcf	status, 5	;RP0=0, select bank0
	bcf	status, 6	;RP1=0, select bank0
	movf	(_day_location),w
	addlw	07h
	movwf	(??_clear_attendance+0)+0
	movf	(??_clear_attendance+0)+0,w
	movwf	(?_store_eeprom)
	movlw	(0FFh)
	fcall	_store_eeprom
	line	941
	
l4446:	
;PR29.c: 941: store_eeprom(0xff,day_location+8);
	bcf	status, 5	;RP0=0, select bank0
	bcf	status, 6	;RP1=0, select bank0
	movf	(_day_location),w
	addlw	08h
	movwf	(??_clear_attendance+0)+0
	movf	(??_clear_attendance+0)+0,w
	movwf	(?_store_eeprom)
	movlw	(0FFh)
	fcall	_store_eeprom
	line	942
	
l4448:	
;PR29.c: 942: day_location=0x30;
	movlw	(030h)
	movwf	(??_clear_attendance+0)+0
	movf	(??_clear_attendance+0)+0,w
	bcf	status, 5	;RP0=0, select bank0
	bcf	status, 6	;RP1=0, select bank0
	movwf	(_day_location)
	line	943
	
l4450:	
;PR29.c: 943: store_eeprom('D',day_location);
	movf	(_day_location),w
	movwf	(??_clear_attendance+0)+0
	movf	(??_clear_attendance+0)+0,w
	movwf	(?_store_eeprom)
	movlw	(044h)
	fcall	_store_eeprom
	line	944
	
l4452:	
;PR29.c: 944: store_eeprom('A',day_location+1);
	bcf	status, 5	;RP0=0, select bank0
	bcf	status, 6	;RP1=0, select bank0
	movf	(_day_location),w
	addlw	01h
	movwf	(??_clear_attendance+0)+0
	movf	(??_clear_attendance+0)+0,w
	movwf	(?_store_eeprom)
	movlw	(041h)
	fcall	_store_eeprom
	line	945
	
l4454:	
;PR29.c: 945: store_eeprom('Y',day_location+2);
	bcf	status, 5	;RP0=0, select bank0
	bcf	status, 6	;RP1=0, select bank0
	movf	(_day_location),w
	addlw	02h
	movwf	(??_clear_attendance+0)+0
	movf	(??_clear_attendance+0)+0,w
	movwf	(?_store_eeprom)
	movlw	(059h)
	fcall	_store_eeprom
	line	946
	
l4456:	
;PR29.c: 946: store_eeprom('4',day_location+3);
	bcf	status, 5	;RP0=0, select bank0
	bcf	status, 6	;RP1=0, select bank0
	movf	(_day_location),w
	addlw	03h
	movwf	(??_clear_attendance+0)+0
	movf	(??_clear_attendance+0)+0,w
	movwf	(?_store_eeprom)
	movlw	(034h)
	fcall	_store_eeprom
	line	947
	
l4458:	
;PR29.c: 947: store_eeprom(0xff,day_location+4);
	bcf	status, 5	;RP0=0, select bank0
	bcf	status, 6	;RP1=0, select bank0
	movf	(_day_location),w
	addlw	04h
	movwf	(??_clear_attendance+0)+0
	movf	(??_clear_attendance+0)+0,w
	movwf	(?_store_eeprom)
	movlw	(0FFh)
	fcall	_store_eeprom
	line	948
	
l4460:	
;PR29.c: 948: store_eeprom(0xff,day_location+5);
	bcf	status, 5	;RP0=0, select bank0
	bcf	status, 6	;RP1=0, select bank0
	movf	(_day_location),w
	addlw	05h
	movwf	(??_clear_attendance+0)+0
	movf	(??_clear_attendance+0)+0,w
	movwf	(?_store_eeprom)
	movlw	(0FFh)
	fcall	_store_eeprom
	line	949
	
l4462:	
;PR29.c: 949: store_eeprom(0xff,day_location+6);
	bcf	status, 5	;RP0=0, select bank0
	bcf	status, 6	;RP1=0, select bank0
	movf	(_day_location),w
	addlw	06h
	movwf	(??_clear_attendance+0)+0
	movf	(??_clear_attendance+0)+0,w
	movwf	(?_store_eeprom)
	movlw	(0FFh)
	fcall	_store_eeprom
	line	950
	
l4464:	
;PR29.c: 950: store_eeprom(0xff,day_location+7);
	bcf	status, 5	;RP0=0, select bank0
	bcf	status, 6	;RP1=0, select bank0
	movf	(_day_location),w
	addlw	07h
	movwf	(??_clear_attendance+0)+0
	movf	(??_clear_attendance+0)+0,w
	movwf	(?_store_eeprom)
	movlw	(0FFh)
	fcall	_store_eeprom
	line	951
	
l4466:	
;PR29.c: 951: store_eeprom(0xff,day_location+8);
	bcf	status, 5	;RP0=0, select bank0
	bcf	status, 6	;RP1=0, select bank0
	movf	(_day_location),w
	addlw	08h
	movwf	(??_clear_attendance+0)+0
	movf	(??_clear_attendance+0)+0,w
	movwf	(?_store_eeprom)
	movlw	(0FFh)
	fcall	_store_eeprom
	line	952
	
l4468:	
;PR29.c: 952: day_location=0x40;
	movlw	(040h)
	movwf	(??_clear_attendance+0)+0
	movf	(??_clear_attendance+0)+0,w
	bcf	status, 5	;RP0=0, select bank0
	bcf	status, 6	;RP1=0, select bank0
	movwf	(_day_location)
	line	953
	
l4470:	
;PR29.c: 953: store_eeprom('D',day_location);
	movf	(_day_location),w
	movwf	(??_clear_attendance+0)+0
	movf	(??_clear_attendance+0)+0,w
	movwf	(?_store_eeprom)
	movlw	(044h)
	fcall	_store_eeprom
	line	954
	
l4472:	
;PR29.c: 954: store_eeprom('A',day_location+1);
	bcf	status, 5	;RP0=0, select bank0
	bcf	status, 6	;RP1=0, select bank0
	movf	(_day_location),w
	addlw	01h
	movwf	(??_clear_attendance+0)+0
	movf	(??_clear_attendance+0)+0,w
	movwf	(?_store_eeprom)
	movlw	(041h)
	fcall	_store_eeprom
	line	955
	
l4474:	
;PR29.c: 955: store_eeprom('Y',day_location+2);
	bcf	status, 5	;RP0=0, select bank0
	bcf	status, 6	;RP1=0, select bank0
	movf	(_day_location),w
	addlw	02h
	movwf	(??_clear_attendance+0)+0
	movf	(??_clear_attendance+0)+0,w
	movwf	(?_store_eeprom)
	movlw	(059h)
	fcall	_store_eeprom
	line	956
	
l4476:	
;PR29.c: 956: store_eeprom('5',day_location+3);
	bcf	status, 5	;RP0=0, select bank0
	bcf	status, 6	;RP1=0, select bank0
	movf	(_day_location),w
	addlw	03h
	movwf	(??_clear_attendance+0)+0
	movf	(??_clear_attendance+0)+0,w
	movwf	(?_store_eeprom)
	movlw	(035h)
	fcall	_store_eeprom
	line	957
	
l4478:	
;PR29.c: 957: store_eeprom(0xff,day_location+4);
	bcf	status, 5	;RP0=0, select bank0
	bcf	status, 6	;RP1=0, select bank0
	movf	(_day_location),w
	addlw	04h
	movwf	(??_clear_attendance+0)+0
	movf	(??_clear_attendance+0)+0,w
	movwf	(?_store_eeprom)
	movlw	(0FFh)
	fcall	_store_eeprom
	line	958
	
l4480:	
;PR29.c: 958: store_eeprom(0xff,day_location+5);
	bcf	status, 5	;RP0=0, select bank0
	bcf	status, 6	;RP1=0, select bank0
	movf	(_day_location),w
	addlw	05h
	movwf	(??_clear_attendance+0)+0
	movf	(??_clear_attendance+0)+0,w
	movwf	(?_store_eeprom)
	movlw	(0FFh)
	fcall	_store_eeprom
	line	959
	
l4482:	
;PR29.c: 959: store_eeprom(0xff,day_location+6);
	bcf	status, 5	;RP0=0, select bank0
	bcf	status, 6	;RP1=0, select bank0
	movf	(_day_location),w
	addlw	06h
	movwf	(??_clear_attendance+0)+0
	movf	(??_clear_attendance+0)+0,w
	movwf	(?_store_eeprom)
	movlw	(0FFh)
	fcall	_store_eeprom
	line	960
	
l4484:	
;PR29.c: 960: store_eeprom(0xff,day_location+7);
	bcf	status, 5	;RP0=0, select bank0
	bcf	status, 6	;RP1=0, select bank0
	movf	(_day_location),w
	addlw	07h
	movwf	(??_clear_attendance+0)+0
	movf	(??_clear_attendance+0)+0,w
	movwf	(?_store_eeprom)
	movlw	(0FFh)
	fcall	_store_eeprom
	line	961
	
l4486:	
;PR29.c: 961: store_eeprom(0xff,day_location+8);
	bcf	status, 5	;RP0=0, select bank0
	bcf	status, 6	;RP1=0, select bank0
	movf	(_day_location),w
	addlw	08h
	movwf	(??_clear_attendance+0)+0
	movf	(??_clear_attendance+0)+0,w
	movwf	(?_store_eeprom)
	movlw	(0FFh)
	fcall	_store_eeprom
	line	962
	
l880:	
	return
	opt stack 0
GLOBAL	__end_of_clear_attendance
	__end_of_clear_attendance:
;; =============== function _clear_attendance ends ============

	signat	_clear_attendance,88
	global	_send_char
psect	text576,local,class=CODE,delta=2
global __ptext576
__ptext576:

;; *************** function _send_char *****************
;; Defined at:
;;		line 288 in file "C:\Users\Phang\Desktop\9.80\PR 29\PR29.c"
;; Parameters:    Size  Location     Type
;;  data            1    wreg     unsigned char 
;; Auto vars:     Size  Location     Type
;;  data            1    8[COMMON] unsigned char 
;; Return value:  Size  Location     Type
;;		None               void
;; Registers used:
;;		wreg, status,2, status,0, pclath, cstack
;; Tracked objects:
;;		On entry : 0/0
;;		On exit  : 0/0
;;		Unchanged: 0/0
;; Data sizes:     COMMON   BANK0   BANK1   BANK3   BANK2
;;      Params:         0       0       0       0       0
;;      Locals:         1       0       0       0       0
;;      Temps:          0       0       0       0       0
;;      Totals:         1       0       0       0       0
;;Total ram usage:        1 bytes
;; Hardware stack levels used:    1
;; Hardware stack levels required when called:    1
;; This function calls:
;;		_delay
;; This function is called by:
;;		_main
;;		_send_string
;;		_mode
;;		_display_status
;;		_view_attendance
;; This function uses a non-reentrant model
;;
psect	text576
	file	"C:\Users\Phang\Desktop\9.80\PR 29\PR29.c"
	line	288
	global	__size_of_send_char
	__size_of_send_char	equ	__end_of_send_char-_send_char
	
_send_char:	
	opt	stack 4
; Regs used in _send_char: [wreg+status,2+status,0+pclath+cstack]
;send_char@data stored from wreg
	movwf	(send_char@data)
	line	289
	
l4376:	
;PR29.c: 289: RC4=1;
	bcf	status, 5	;RP0=0, select bank0
	bcf	status, 6	;RP1=0, select bank0
	bsf	(60/8),(60)&7
	line	290
	
l4378:	
;PR29.c: 290: PORTB=data;
	movf	(send_char@data),w
	movwf	(6)	;volatile
	line	291
	
l4380:	
;PR29.c: 291: RC5=1;
	bsf	(61/8),(61)&7
	line	292
	
l4382:	
;PR29.c: 292: delay(10);
	movlw	0
	movwf	(?_delay+3)
	movlw	0
	movwf	(?_delay+2)
	movlw	0
	movwf	(?_delay+1)
	movlw	0Ah
	movwf	(?_delay)

	fcall	_delay
	line	293
	
l4384:	
;PR29.c: 293: RC5=0;
	bcf	status, 5	;RP0=0, select bank0
	bcf	status, 6	;RP1=0, select bank0
	bcf	(61/8),(61)&7
	line	294
	
l4386:	
;PR29.c: 294: delay(10);
	movlw	0
	movwf	(?_delay+3)
	movlw	0
	movwf	(?_delay+2)
	movlw	0
	movwf	(?_delay+1)
	movlw	0Ah
	movwf	(?_delay)

	fcall	_delay
	line	295
	
l660:	
	return
	opt stack 0
GLOBAL	__end_of_send_char
	__end_of_send_char:
;; =============== function _send_char ends ============

	signat	_send_char,4216
	global	_init_attendance
psect	text577,local,class=CODE,delta=2
global __ptext577
__ptext577:

;; *************** function _init_attendance *****************
;; Defined at:
;;		line 877 in file "C:\Users\Phang\Desktop\9.80\PR 29\PR29.c"
;; Parameters:    Size  Location     Type
;;		None
;; Auto vars:     Size  Location     Type
;;		None
;; Return value:  Size  Location     Type
;;		None               void
;; Registers used:
;;		wreg, status,2, status,0, pclath, cstack
;; Tracked objects:
;;		On entry : 0/0
;;		On exit  : 0/0
;;		Unchanged: 0/0
;; Data sizes:     COMMON   BANK0   BANK1   BANK3   BANK2
;;      Params:         0       0       0       0       0
;;      Locals:         0       0       0       0       0
;;      Temps:          1       0       0       0       0
;;      Totals:         1       0       0       0       0
;;Total ram usage:        1 bytes
;; Hardware stack levels used:    1
;; Hardware stack levels required when called:    1
;; This function calls:
;;		_store_eeprom
;; This function is called by:
;;		_main
;; This function uses a non-reentrant model
;;
psect	text577
	file	"C:\Users\Phang\Desktop\9.80\PR 29\PR29.c"
	line	877
	global	__size_of_init_attendance
	__size_of_init_attendance	equ	__end_of_init_attendance-_init_attendance
	
_init_attendance:	
	opt	stack 6
; Regs used in _init_attendance: [wreg+status,2+status,0+pclath+cstack]
	line	878
	
l4326:	
;PR29.c: 878: day_location=0x00;
	clrc
	movlw	0
	btfsc	status,0
	movlw	1
	bcf	status, 5	;RP0=0, select bank0
	bcf	status, 6	;RP1=0, select bank0
	movwf	(_day_location)
	line	879
	
l4328:	
;PR29.c: 879: store_eeprom('D',day_location);
	movf	(_day_location),w
	movwf	(??_init_attendance+0)+0
	movf	(??_init_attendance+0)+0,w
	movwf	(?_store_eeprom)
	movlw	(044h)
	fcall	_store_eeprom
	line	880
	
l4330:	
;PR29.c: 880: store_eeprom('A',day_location+1);
	bcf	status, 5	;RP0=0, select bank0
	bcf	status, 6	;RP1=0, select bank0
	movf	(_day_location),w
	addlw	01h
	movwf	(??_init_attendance+0)+0
	movf	(??_init_attendance+0)+0,w
	movwf	(?_store_eeprom)
	movlw	(041h)
	fcall	_store_eeprom
	line	881
	
l4332:	
;PR29.c: 881: store_eeprom('Y',day_location+2);
	bcf	status, 5	;RP0=0, select bank0
	bcf	status, 6	;RP1=0, select bank0
	movf	(_day_location),w
	addlw	02h
	movwf	(??_init_attendance+0)+0
	movf	(??_init_attendance+0)+0,w
	movwf	(?_store_eeprom)
	movlw	(059h)
	fcall	_store_eeprom
	line	882
	
l4334:	
;PR29.c: 882: store_eeprom('1',day_location+3);
	bcf	status, 5	;RP0=0, select bank0
	bcf	status, 6	;RP1=0, select bank0
	movf	(_day_location),w
	addlw	03h
	movwf	(??_init_attendance+0)+0
	movf	(??_init_attendance+0)+0,w
	movwf	(?_store_eeprom)
	movlw	(031h)
	fcall	_store_eeprom
	line	884
	
l4336:	
;PR29.c: 884: day_location=0x10;
	movlw	(010h)
	movwf	(??_init_attendance+0)+0
	movf	(??_init_attendance+0)+0,w
	bcf	status, 5	;RP0=0, select bank0
	bcf	status, 6	;RP1=0, select bank0
	movwf	(_day_location)
	line	885
	
l4338:	
;PR29.c: 885: store_eeprom('D',day_location);
	movf	(_day_location),w
	movwf	(??_init_attendance+0)+0
	movf	(??_init_attendance+0)+0,w
	movwf	(?_store_eeprom)
	movlw	(044h)
	fcall	_store_eeprom
	line	886
	
l4340:	
;PR29.c: 886: store_eeprom('A',day_location+1);
	bcf	status, 5	;RP0=0, select bank0
	bcf	status, 6	;RP1=0, select bank0
	movf	(_day_location),w
	addlw	01h
	movwf	(??_init_attendance+0)+0
	movf	(??_init_attendance+0)+0,w
	movwf	(?_store_eeprom)
	movlw	(041h)
	fcall	_store_eeprom
	line	887
	
l4342:	
;PR29.c: 887: store_eeprom('Y',day_location+2);
	bcf	status, 5	;RP0=0, select bank0
	bcf	status, 6	;RP1=0, select bank0
	movf	(_day_location),w
	addlw	02h
	movwf	(??_init_attendance+0)+0
	movf	(??_init_attendance+0)+0,w
	movwf	(?_store_eeprom)
	movlw	(059h)
	fcall	_store_eeprom
	line	888
	
l4344:	
;PR29.c: 888: store_eeprom('2',day_location+3);
	bcf	status, 5	;RP0=0, select bank0
	bcf	status, 6	;RP1=0, select bank0
	movf	(_day_location),w
	addlw	03h
	movwf	(??_init_attendance+0)+0
	movf	(??_init_attendance+0)+0,w
	movwf	(?_store_eeprom)
	movlw	(032h)
	fcall	_store_eeprom
	line	890
	
l4346:	
;PR29.c: 890: day_location=0x20;
	movlw	(020h)
	movwf	(??_init_attendance+0)+0
	movf	(??_init_attendance+0)+0,w
	bcf	status, 5	;RP0=0, select bank0
	bcf	status, 6	;RP1=0, select bank0
	movwf	(_day_location)
	line	891
	
l4348:	
;PR29.c: 891: store_eeprom('D',day_location);
	movf	(_day_location),w
	movwf	(??_init_attendance+0)+0
	movf	(??_init_attendance+0)+0,w
	movwf	(?_store_eeprom)
	movlw	(044h)
	fcall	_store_eeprom
	line	892
	
l4350:	
;PR29.c: 892: store_eeprom('A',day_location+1);
	bcf	status, 5	;RP0=0, select bank0
	bcf	status, 6	;RP1=0, select bank0
	movf	(_day_location),w
	addlw	01h
	movwf	(??_init_attendance+0)+0
	movf	(??_init_attendance+0)+0,w
	movwf	(?_store_eeprom)
	movlw	(041h)
	fcall	_store_eeprom
	line	893
	
l4352:	
;PR29.c: 893: store_eeprom('Y',day_location+2);
	bcf	status, 5	;RP0=0, select bank0
	bcf	status, 6	;RP1=0, select bank0
	movf	(_day_location),w
	addlw	02h
	movwf	(??_init_attendance+0)+0
	movf	(??_init_attendance+0)+0,w
	movwf	(?_store_eeprom)
	movlw	(059h)
	fcall	_store_eeprom
	line	894
	
l4354:	
;PR29.c: 894: store_eeprom('3',day_location+3);
	bcf	status, 5	;RP0=0, select bank0
	bcf	status, 6	;RP1=0, select bank0
	movf	(_day_location),w
	addlw	03h
	movwf	(??_init_attendance+0)+0
	movf	(??_init_attendance+0)+0,w
	movwf	(?_store_eeprom)
	movlw	(033h)
	fcall	_store_eeprom
	line	896
	
l4356:	
;PR29.c: 896: day_location=0x30;
	movlw	(030h)
	movwf	(??_init_attendance+0)+0
	movf	(??_init_attendance+0)+0,w
	bcf	status, 5	;RP0=0, select bank0
	bcf	status, 6	;RP1=0, select bank0
	movwf	(_day_location)
	line	897
	
l4358:	
;PR29.c: 897: store_eeprom('D',day_location);
	movf	(_day_location),w
	movwf	(??_init_attendance+0)+0
	movf	(??_init_attendance+0)+0,w
	movwf	(?_store_eeprom)
	movlw	(044h)
	fcall	_store_eeprom
	line	898
	
l4360:	
;PR29.c: 898: store_eeprom('A',day_location+1);
	bcf	status, 5	;RP0=0, select bank0
	bcf	status, 6	;RP1=0, select bank0
	movf	(_day_location),w
	addlw	01h
	movwf	(??_init_attendance+0)+0
	movf	(??_init_attendance+0)+0,w
	movwf	(?_store_eeprom)
	movlw	(041h)
	fcall	_store_eeprom
	line	899
	
l4362:	
;PR29.c: 899: store_eeprom('Y',day_location+2);
	bcf	status, 5	;RP0=0, select bank0
	bcf	status, 6	;RP1=0, select bank0
	movf	(_day_location),w
	addlw	02h
	movwf	(??_init_attendance+0)+0
	movf	(??_init_attendance+0)+0,w
	movwf	(?_store_eeprom)
	movlw	(059h)
	fcall	_store_eeprom
	line	900
	
l4364:	
;PR29.c: 900: store_eeprom('4',day_location+3);
	bcf	status, 5	;RP0=0, select bank0
	bcf	status, 6	;RP1=0, select bank0
	movf	(_day_location),w
	addlw	03h
	movwf	(??_init_attendance+0)+0
	movf	(??_init_attendance+0)+0,w
	movwf	(?_store_eeprom)
	movlw	(034h)
	fcall	_store_eeprom
	line	902
	
l4366:	
;PR29.c: 902: day_location=0x40;
	movlw	(040h)
	movwf	(??_init_attendance+0)+0
	movf	(??_init_attendance+0)+0,w
	bcf	status, 5	;RP0=0, select bank0
	bcf	status, 6	;RP1=0, select bank0
	movwf	(_day_location)
	line	903
	
l4368:	
;PR29.c: 903: store_eeprom('D',day_location);
	movf	(_day_location),w
	movwf	(??_init_attendance+0)+0
	movf	(??_init_attendance+0)+0,w
	movwf	(?_store_eeprom)
	movlw	(044h)
	fcall	_store_eeprom
	line	904
	
l4370:	
;PR29.c: 904: store_eeprom('A',day_location+1);
	bcf	status, 5	;RP0=0, select bank0
	bcf	status, 6	;RP1=0, select bank0
	movf	(_day_location),w
	addlw	01h
	movwf	(??_init_attendance+0)+0
	movf	(??_init_attendance+0)+0,w
	movwf	(?_store_eeprom)
	movlw	(041h)
	fcall	_store_eeprom
	line	905
	
l4372:	
;PR29.c: 905: store_eeprom('Y',day_location+2);
	bcf	status, 5	;RP0=0, select bank0
	bcf	status, 6	;RP1=0, select bank0
	movf	(_day_location),w
	addlw	02h
	movwf	(??_init_attendance+0)+0
	movf	(??_init_attendance+0)+0,w
	movwf	(?_store_eeprom)
	movlw	(059h)
	fcall	_store_eeprom
	line	906
	
l4374:	
;PR29.c: 906: store_eeprom('5',day_location+3);
	bcf	status, 5	;RP0=0, select bank0
	bcf	status, 6	;RP1=0, select bank0
	movf	(_day_location),w
	addlw	03h
	movwf	(??_init_attendance+0)+0
	movf	(??_init_attendance+0)+0,w
	movwf	(?_store_eeprom)
	movlw	(035h)
	fcall	_store_eeprom
	line	908
	
l877:	
	return
	opt stack 0
GLOBAL	__end_of_init_attendance
	__end_of_init_attendance:
;; =============== function _init_attendance ends ============

	signat	_init_attendance,88
	global	_receive_reply_nodisplay
psect	text578,local,class=CODE,delta=2
global __ptext578
__ptext578:

;; *************** function _receive_reply_nodisplay *****************
;; Defined at:
;;		line 741 in file "C:\Users\Phang\Desktop\9.80\PR 29\PR29.c"
;; Parameters:    Size  Location     Type
;;		None
;; Auto vars:     Size  Location     Type
;;  i               1    3[COMMON] unsigned char 
;; Return value:  Size  Location     Type
;;		None               void
;; Registers used:
;;		wreg, fsr0l, fsr0h, status,2, status,0, pclath, cstack
;; Tracked objects:
;;		On entry : 0/0
;;		On exit  : 0/0
;;		Unchanged: 0/0
;; Data sizes:     COMMON   BANK0   BANK1   BANK3   BANK2
;;      Params:         0       0       0       0       0
;;      Locals:         1       0       0       0       0
;;      Temps:          1       0       0       0       0
;;      Totals:         2       0       0       0       0
;;Total ram usage:        2 bytes
;; Hardware stack levels used:    1
;; Hardware stack levels required when called:    1
;; This function calls:
;;		_uart_receive
;; This function is called by:
;;		_main
;; This function uses a non-reentrant model
;;
psect	text578
	file	"C:\Users\Phang\Desktop\9.80\PR 29\PR29.c"
	line	741
	global	__size_of_receive_reply_nodisplay
	__size_of_receive_reply_nodisplay	equ	__end_of_receive_reply_nodisplay-_receive_reply_nodisplay
	
_receive_reply_nodisplay:	
	opt	stack 6
; Regs used in _receive_reply_nodisplay: [wreg-fsr0h+status,2+status,0+pclath+cstack]
	line	743
	
l4314:	
;PR29.c: 742: unsigned char i;
;PR29.c: 743: for(i=0;i<8;i++)
	clrc
	movlw	0
	btfsc	status,0
	movlw	1
	movwf	(receive_reply_nodisplay@i)
	
l4316:	
	movlw	(08h)
	subwf	(receive_reply_nodisplay@i),w
	skipc
	goto	u4081
	goto	u4080
u4081:
	goto	l4320
u4080:
	goto	l827
	
l4318:	
	goto	l827
	line	744
	
l825:	
	
l4320:	
;PR29.c: 744: array_resp[i]=uart_receive();
	fcall	_uart_receive
	movwf	(??_receive_reply_nodisplay+0)+0
	movf	(receive_reply_nodisplay@i),w
	addlw	_array_resp&0ffh
	movwf	fsr0
	movf	(??_receive_reply_nodisplay+0)+0,w
	bcf	status, 7	;select IRP bank0
	movwf	indf
	line	743
	
l4322:	
	movlw	(01h)
	movwf	(??_receive_reply_nodisplay+0)+0
	movf	(??_receive_reply_nodisplay+0)+0,w
	addwf	(receive_reply_nodisplay@i),f
	
l4324:	
	movlw	(08h)
	subwf	(receive_reply_nodisplay@i),w
	skipc
	goto	u4091
	goto	u4090
u4091:
	goto	l4320
u4090:
	goto	l827
	
l826:	
	line	745
	
l827:	
	return
	opt stack 0
GLOBAL	__end_of_receive_reply_nodisplay
	__end_of_receive_reply_nodisplay:
;; =============== function _receive_reply_nodisplay ends ============

	signat	_receive_reply_nodisplay,88
	global	_send_cmd
psect	text579,local,class=CODE,delta=2
global __ptext579
__ptext579:

;; *************** function _send_cmd *****************
;; Defined at:
;;		line 335 in file "C:\Users\Phang\Desktop\9.80\PR 29\PR29.c"
;; Parameters:    Size  Location     Type
;;  CMD             1    wreg     unsigned char 
;;  P1              1    1[COMMON] unsigned char 
;;  P2              1    2[COMMON] unsigned char 
;;  P3              1    3[COMMON] unsigned char 
;; Auto vars:     Size  Location     Type
;;  CMD             1    6[COMMON] unsigned char 
;;  CHK             1    5[COMMON] unsigned char 
;; Return value:  Size  Location     Type
;;		None               void
;; Registers used:
;;		wreg, status,2, status,0, pclath, cstack
;; Tracked objects:
;;		On entry : 0/0
;;		On exit  : 0/0
;;		Unchanged: 0/0
;; Data sizes:     COMMON   BANK0   BANK1   BANK3   BANK2
;;      Params:         3       0       0       0       0
;;      Locals:         2       0       0       0       0
;;      Temps:          1       0       0       0       0
;;      Totals:         6       0       0       0       0
;;Total ram usage:        6 bytes
;; Hardware stack levels used:    1
;; Hardware stack levels required when called:    1
;; This function calls:
;;		_uart_send
;; This function is called by:
;;		_main
;;		_mode
;;		_CheckAdmin
;;		_AddNew
;;		_ResetAdmin
;; This function uses a non-reentrant model
;;
psect	text579
	file	"C:\Users\Phang\Desktop\9.80\PR 29\PR29.c"
	line	335
	global	__size_of_send_cmd
	__size_of_send_cmd	equ	__end_of_send_cmd-_send_cmd
	
_send_cmd:	
	opt	stack 4
; Regs used in _send_cmd: [wreg+status,2+status,0+pclath+cstack]
;send_cmd@CMD stored from wreg
	line	337
	movwf	(send_cmd@CMD)
	
l4296:	
;PR29.c: 336: unsigned char CHK;
;PR29.c: 337: CHK = CMD^P1^P2^P3^0x00;
	movf	(send_cmd@CMD),w
	xorwf	(send_cmd@P1),w
	xorwf	(send_cmd@P2),w
	xorwf	(send_cmd@P3),w
	movwf	(??_send_cmd+0)+0
	movf	(??_send_cmd+0)+0,w
	movwf	(send_cmd@CHK)
	line	338
	
l4298:	
;PR29.c: 338: uart_send(0xF5);
	movlw	(0F5h)
	fcall	_uart_send
	line	339
	
l4300:	
;PR29.c: 339: uart_send(CMD);
	movf	(send_cmd@CMD),w
	fcall	_uart_send
	line	340
	
l4302:	
;PR29.c: 340: uart_send(P1);
	movf	(send_cmd@P1),w
	fcall	_uart_send
	line	341
	
l4304:	
;PR29.c: 341: uart_send(P2);
	movf	(send_cmd@P2),w
	fcall	_uart_send
	line	342
	
l4306:	
;PR29.c: 342: uart_send(P3);
	movf	(send_cmd@P3),w
	fcall	_uart_send
	line	343
	
l4308:	
;PR29.c: 343: uart_send(0x00);
	movlw	(0)
	fcall	_uart_send
	line	344
	
l4310:	
;PR29.c: 344: uart_send(CHK);
	movf	(send_cmd@CHK),w
	fcall	_uart_send
	line	345
	
l4312:	
;PR29.c: 345: uart_send(0xF5);
	movlw	(0F5h)
	fcall	_uart_send
	line	346
	
l685:	
	return
	opt stack 0
GLOBAL	__end_of_send_cmd
	__end_of_send_cmd:
;; =============== function _send_cmd ends ============

	signat	_send_cmd,16504
	global	_send_config
psect	text580,local,class=CODE,delta=2
global __ptext580
__ptext580:

;; *************** function _send_config *****************
;; Defined at:
;;		line 271 in file "C:\Users\Phang\Desktop\9.80\PR 29\PR29.c"
;; Parameters:    Size  Location     Type
;;  data            1    wreg     unsigned char 
;; Auto vars:     Size  Location     Type
;;  data            1    8[COMMON] unsigned char 
;; Return value:  Size  Location     Type
;;		None               void
;; Registers used:
;;		wreg, status,2, status,0, pclath, cstack
;; Tracked objects:
;;		On entry : 0/0
;;		On exit  : 0/0
;;		Unchanged: 0/0
;; Data sizes:     COMMON   BANK0   BANK1   BANK3   BANK2
;;      Params:         0       0       0       0       0
;;      Locals:         1       0       0       0       0
;;      Temps:          0       0       0       0       0
;;      Totals:         1       0       0       0       0
;;Total ram usage:        1 bytes
;; Hardware stack levels used:    1
;; Hardware stack levels required when called:    1
;; This function calls:
;;		_delay
;; This function is called by:
;;		_main
;;		_lcd_goto
;;		_lcd_clr
;; This function uses a non-reentrant model
;;
psect	text580
	file	"C:\Users\Phang\Desktop\9.80\PR 29\PR29.c"
	line	271
	global	__size_of_send_config
	__size_of_send_config	equ	__end_of_send_config-_send_config
	
_send_config:	
	opt	stack 3
; Regs used in _send_config: [wreg+status,2+status,0+pclath+cstack]
;send_config@data stored from wreg
	movwf	(send_config@data)
	line	272
	
l4284:	
;PR29.c: 272: RC4=0;
	bcf	status, 5	;RP0=0, select bank0
	bcf	status, 6	;RP1=0, select bank0
	bcf	(60/8),(60)&7
	line	273
	
l4286:	
;PR29.c: 273: PORTB=data;
	movf	(send_config@data),w
	movwf	(6)	;volatile
	line	274
	
l4288:	
;PR29.c: 274: RC5=1;
	bsf	(61/8),(61)&7
	line	275
	
l4290:	
;PR29.c: 275: delay(50);
	movlw	0
	movwf	(?_delay+3)
	movlw	0
	movwf	(?_delay+2)
	movlw	0
	movwf	(?_delay+1)
	movlw	032h
	movwf	(?_delay)

	fcall	_delay
	line	276
	
l4292:	
;PR29.c: 276: RC5=0;
	bcf	status, 5	;RP0=0, select bank0
	bcf	status, 6	;RP1=0, select bank0
	bcf	(61/8),(61)&7
	line	277
	
l4294:	
;PR29.c: 277: delay(50);
	movlw	0
	movwf	(?_delay+3)
	movlw	0
	movwf	(?_delay+2)
	movlw	0
	movwf	(?_delay+1)
	movlw	032h
	movwf	(?_delay)

	fcall	_delay
	line	278
	
l652:	
	return
	opt stack 0
GLOBAL	__end_of_send_config
	__end_of_send_config:
;; =============== function _send_config ends ============

	signat	_send_config,4216
	global	_uart_receive
psect	text581,local,class=CODE,delta=2
global __ptext581
__ptext581:

;; *************** function _uart_receive *****************
;; Defined at:
;;		line 350 in file "C:\Users\Phang\Desktop\9.80\PR 29\PR29.c"
;; Parameters:    Size  Location     Type
;;		None
;; Auto vars:     Size  Location     Type
;;  rec_data        1    1[COMMON] unsigned char 
;; Return value:  Size  Location     Type
;;                  1    wreg      unsigned char 
;; Registers used:
;;		wreg
;; Tracked objects:
;;		On entry : 0/0
;;		On exit  : 0/0
;;		Unchanged: 0/0
;; Data sizes:     COMMON   BANK0   BANK1   BANK3   BANK2
;;      Params:         0       0       0       0       0
;;      Locals:         1       0       0       0       0
;;      Temps:          1       0       0       0       0
;;      Totals:         2       0       0       0       0
;;Total ram usage:        2 bytes
;; Hardware stack levels used:    1
;; This function calls:
;;		Nothing
;; This function is called by:
;;		_receive_reply
;;		_receive_reply_nodisplay
;; This function uses a non-reentrant model
;;
psect	text581
	file	"C:\Users\Phang\Desktop\9.80\PR 29\PR29.c"
	line	350
	global	__size_of_uart_receive
	__size_of_uart_receive	equ	__end_of_uart_receive-_uart_receive
	
_uart_receive:	
	opt	stack 4
; Regs used in _uart_receive: [wreg]
	line	352
	
l4278:	
;PR29.c: 351: unsigned char rec_data;
;PR29.c: 352: while(RCIF==0);
	goto	l688
	
l689:	
	
l688:	
	bcf	status, 5	;RP0=0, select bank0
	bcf	status, 6	;RP1=0, select bank0
	btfss	(101/8),(101)&7
	goto	u4071
	goto	u4070
u4071:
	goto	l688
u4070:
	goto	l4280
	
l690:	
	line	353
	
l4280:	
;PR29.c: 353: rec_data=RCREG;
	movf	(26),w	;volatile
	movwf	(??_uart_receive+0)+0
	movf	(??_uart_receive+0)+0,w
	movwf	(uart_receive@rec_data)
	line	354
;PR29.c: 354: return rec_data;
	movf	(uart_receive@rec_data),w
	goto	l691
	
l4282:	
	line	355
	
l691:	
	return
	opt stack 0
GLOBAL	__end_of_uart_receive
	__end_of_uart_receive:
;; =============== function _uart_receive ends ============

	signat	_uart_receive,89
	global	_uart_send
psect	text582,local,class=CODE,delta=2
global __ptext582
__ptext582:

;; *************** function _uart_send *****************
;; Defined at:
;;		line 328 in file "C:\Users\Phang\Desktop\9.80\PR 29\PR29.c"
;; Parameters:    Size  Location     Type
;;  data            1    wreg     unsigned char 
;; Auto vars:     Size  Location     Type
;;  data            1    0[COMMON] unsigned char 
;; Return value:  Size  Location     Type
;;		None               void
;; Registers used:
;;		wreg
;; Tracked objects:
;;		On entry : 0/0
;;		On exit  : 0/0
;;		Unchanged: 0/0
;; Data sizes:     COMMON   BANK0   BANK1   BANK3   BANK2
;;      Params:         0       0       0       0       0
;;      Locals:         1       0       0       0       0
;;      Temps:          0       0       0       0       0
;;      Totals:         1       0       0       0       0
;;Total ram usage:        1 bytes
;; Hardware stack levels used:    1
;; This function calls:
;;		Nothing
;; This function is called by:
;;		_send_cmd
;; This function uses a non-reentrant model
;;
psect	text582
	file	"C:\Users\Phang\Desktop\9.80\PR 29\PR29.c"
	line	328
	global	__size_of_uart_send
	__size_of_uart_send	equ	__end_of_uart_send-_uart_send
	
_uart_send:	
	opt	stack 4
; Regs used in _uart_send: [wreg]
;uart_send@data stored from wreg
	movwf	(uart_send@data)
	line	329
	
l4274:	
;PR29.c: 329: while(TXIF==0);
	goto	l679
	
l680:	
	
l679:	
	bcf	status, 5	;RP0=0, select bank0
	bcf	status, 6	;RP1=0, select bank0
	btfss	(100/8),(100)&7
	goto	u4061
	goto	u4060
u4061:
	goto	l679
u4060:
	goto	l4276
	
l681:	
	line	330
	
l4276:	
;PR29.c: 330: TXREG=data;
	movf	(uart_send@data),w
	movwf	(25)	;volatile
	line	331
	
l682:	
	return
	opt stack 0
GLOBAL	__end_of_uart_send
	__end_of_uart_send:
;; =============== function _uart_send ends ============

	signat	_uart_send,4216
	global	_store_eeprom
psect	text583,local,class=CODE,delta=2
global __ptext583
__ptext583:

;; *************** function _store_eeprom *****************
;; Defined at:
;;		line 796 in file "C:\Users\Phang\Desktop\9.80\PR 29\PR29.c"
;; Parameters:    Size  Location     Type
;;  data            1    wreg     unsigned char 
;;  location        1    0[COMMON] unsigned char 
;; Auto vars:     Size  Location     Type
;;  data            1    2[COMMON] unsigned char 
;; Return value:  Size  Location     Type
;;		None               void
;; Registers used:
;;		wreg, status,2, status,0
;; Tracked objects:
;;		On entry : 0/0
;;		On exit  : 0/0
;;		Unchanged: 0/0
;; Data sizes:     COMMON   BANK0   BANK1   BANK3   BANK2
;;      Params:         1       0       0       0       0
;;      Locals:         1       0       0       0       0
;;      Temps:          1       0       0       0       0
;;      Totals:         3       0       0       0       0
;;Total ram usage:        3 bytes
;; Hardware stack levels used:    1
;; This function calls:
;;		Nothing
;; This function is called by:
;;		_main
;;		_mode
;;		_init_attendance
;;		_clear_attendance
;; This function uses a non-reentrant model
;;
psect	text583
	file	"C:\Users\Phang\Desktop\9.80\PR 29\PR29.c"
	line	796
	global	__size_of_store_eeprom
	__size_of_store_eeprom	equ	__end_of_store_eeprom-_store_eeprom
	
_store_eeprom:	
	opt	stack 5
; Regs used in _store_eeprom: [wreg+status,2+status,0]
;store_eeprom@data stored from wreg
	movwf	(store_eeprom@data)
	line	797
;PR29.c: 797: do{ while(WR)continue;EEADR=(location);EEDATA=(data); EECON1&=0x3F;CARRY=0;if(GIE)CARRY=1;GIE=0; WREN=1;EECON2=0x55;EECON2=0xAA;WR=1;WREN=0; if(CARRY)GIE=1; }while(0);
	
l838:	
	goto	l839
	
l840:	
	
l839:	
	bsf	status, 5	;RP0=1, select bank3
	bsf	status, 6	;RP1=1, select bank3
	btfsc	(3169/8)^0180h,(3169)&7
	goto	u4021
	goto	u4020
u4021:
	goto	l839
u4020:
	goto	l4254
	
l841:	
	
l4254:	
	movf	(store_eeprom@location),w
	bcf	status, 5	;RP0=0, select bank2
	bsf	status, 6	;RP1=1, select bank2
	movwf	(269)^0100h	;volatile
	movf	(store_eeprom@data),w
	movwf	(268)^0100h	;volatile
	
l4256:	
	movlw	(03Fh)
	movwf	(??_store_eeprom+0)+0
	movf	(??_store_eeprom+0)+0,w
	bsf	status, 5	;RP0=1, select bank3
	bsf	status, 6	;RP1=1, select bank3
	andwf	(396)^0180h,f	;volatile
	
l4258:	
	bcf	status, 5	;RP0=0, select bank0
	bcf	status, 6	;RP1=0, select bank0
	bcf	(24/8),(24)&7
	
l4260:	
	btfss	(95/8),(95)&7
	goto	u4031
	goto	u4030
u4031:
	goto	l842
u4030:
	
l4262:	
	bsf	(24/8),(24)&7
	
l842:	
	bcf	(95/8),(95)&7
	bsf	status, 5	;RP0=1, select bank3
	bsf	status, 6	;RP1=1, select bank3
	bsf	(3170/8)^0180h,(3170)&7
	
l4264:	
	movlw	(055h)
	movwf	(397)^0180h	;volatile
	movlw	(0AAh)
	movwf	(397)^0180h	;volatile
	
l4266:	
	bsf	(3169/8)^0180h,(3169)&7
	
l4268:	
	bcf	(3170/8)^0180h,(3170)&7
	
l4270:	
	bcf	status, 5	;RP0=0, select bank0
	bcf	status, 6	;RP1=0, select bank0
	btfss	(24/8),(24)&7
	goto	u4041
	goto	u4040
u4041:
	goto	l845
u4040:
	
l4272:	
	bsf	(95/8),(95)&7
	goto	l845
	
l843:	
	goto	l845
	
l844:	
	line	798
;PR29.c: 798: while(WR)
	goto	l845
	
l846:	
	line	799
;PR29.c: 799: continue;
	
l845:	
	line	798
	bsf	status, 5	;RP0=1, select bank3
	bsf	status, 6	;RP1=1, select bank3
	btfsc	(3169/8)^0180h,(3169)&7
	goto	u4051
	goto	u4050
u4051:
	goto	l845
u4050:
	goto	l848
	
l847:	
	line	800
	
l848:	
	return
	opt stack 0
GLOBAL	__end_of_store_eeprom
	__end_of_store_eeprom:
;; =============== function _store_eeprom ends ============

	signat	_store_eeprom,8312
	global	_get_eeprom
psect	text584,local,class=CODE,delta=2
global __ptext584
__ptext584:

;; *************** function _get_eeprom *****************
;; Defined at:
;;		line 804 in file "C:\Users\Phang\Desktop\9.80\PR 29\PR29.c"
;; Parameters:    Size  Location     Type
;;  location        1    wreg     unsigned char 
;; Auto vars:     Size  Location     Type
;;  location        1    1[COMMON] unsigned char 
;;  value           1    2[COMMON] unsigned char 
;; Return value:  Size  Location     Type
;;                  1    wreg      unsigned char 
;; Registers used:
;;		wreg, status,2, status,0
;; Tracked objects:
;;		On entry : 0/0
;;		On exit  : 0/0
;;		Unchanged: 0/0
;; Data sizes:     COMMON   BANK0   BANK1   BANK3   BANK2
;;      Params:         0       0       0       0       0
;;      Locals:         2       0       0       0       0
;;      Temps:          1       0       0       0       0
;;      Totals:         3       0       0       0       0
;;Total ram usage:        3 bytes
;; Hardware stack levels used:    1
;; This function calls:
;;		Nothing
;; This function is called by:
;;		_main
;;		_view_attendance
;;		_upload_HT
;;		_upload_GUI
;; This function uses a non-reentrant model
;;
psect	text584
	file	"C:\Users\Phang\Desktop\9.80\PR 29\PR29.c"
	line	804
	global	__size_of_get_eeprom
	__size_of_get_eeprom	equ	__end_of_get_eeprom-_get_eeprom
	
_get_eeprom:	
	opt	stack 5
; Regs used in _get_eeprom: [wreg+status,2+status,0]
;get_eeprom@location stored from wreg
	line	806
	movwf	(get_eeprom@location)
	
l4242:	
;PR29.c: 805: unsigned char value;
;PR29.c: 806: value= ((EEADR=(location)),(EECON1&=0x3F),(RD=1),EEDATA);
	movf	(get_eeprom@location),w
	bcf	status, 5	;RP0=0, select bank2
	bsf	status, 6	;RP1=1, select bank2
	movwf	(269)^0100h	;volatile
	
l4244:	
	movlw	(03Fh)
	movwf	(??_get_eeprom+0)+0
	movf	(??_get_eeprom+0)+0,w
	bsf	status, 5	;RP0=1, select bank3
	bsf	status, 6	;RP1=1, select bank3
	andwf	(396)^0180h,f	;volatile
	
l4246:	
	bsf	(3168/8)^0180h,(3168)&7
	
l4248:	
	bcf	status, 5	;RP0=0, select bank2
	bsf	status, 6	;RP1=1, select bank2
	movf	(268)^0100h,w	;volatile
	movwf	(??_get_eeprom+0)+0
	movf	(??_get_eeprom+0)+0,w
	movwf	(get_eeprom@value)
	line	807
	
l4250:	
;PR29.c: 807: return value;
	movf	(get_eeprom@value),w
	goto	l851
	
l4252:	
	line	808
	
l851:	
	return
	opt stack 0
GLOBAL	__end_of_get_eeprom
	__end_of_get_eeprom:
;; =============== function _get_eeprom ends ============

	signat	_get_eeprom,4217
	global	_uart_init
psect	text585,local,class=CODE,delta=2
global __ptext585
__ptext585:

;; *************** function _uart_init *****************
;; Defined at:
;;		line 39 in file "C:\Users\Phang\Desktop\9.80\PR 29\uart_io.c"
;; Parameters:    Size  Location     Type
;;  channel         1    wreg     unsigned char 
;; Auto vars:     Size  Location     Type
;;  channel         1    0[COMMON] unsigned char 
;; Return value:  Size  Location     Type
;;		None               void
;; Registers used:
;;		wreg, fsr0l, fsr0h, status,2, status,0
;; Tracked objects:
;;		On entry : 0/0
;;		On exit  : 0/0
;;		Unchanged: 0/0
;; Data sizes:     COMMON   BANK0   BANK1   BANK3   BANK2
;;      Params:         0       0       0       0       0
;;      Locals:         1       0       0       0       0
;;      Temps:          0       0       0       0       0
;;      Totals:         1       0       0       0       0
;;Total ram usage:        1 bytes
;; Hardware stack levels used:    1
;; This function calls:
;;		Nothing
;; This function is called by:
;;		_main
;; This function uses a non-reentrant model
;;
psect	text585
	file	"C:\Users\Phang\Desktop\9.80\PR 29\uart_io.c"
	line	39
	global	__size_of_uart_init
	__size_of_uart_init	equ	__end_of_uart_init-_uart_init
	
_uart_init:	
	opt	stack 7
; Regs used in _uart_init: [wreg-fsr0h+status,2+status,0]
;uart_init@channel stored from wreg
	movwf	(uart_init@channel)
	line	40
	
l4236:	
;uart_io.c: 40: switch(channel)
	goto	l4240
	line	42
;uart_io.c: 41: {
;uart_io.c: 42: case 2:
	
l1480:	
	line	43
;uart_io.c: 43: RC0=1;
	bcf	status, 5	;RP0=0, select bank0
	bcf	status, 6	;RP1=0, select bank0
	bsf	(56/8),(56)&7
	line	44
;uart_io.c: 44: TRISC0=0;
	bsf	status, 5	;RP0=1, select bank1
	bcf	status, 6	;RP1=0, select bank1
	bcf	(1080/8)^080h,(1080)&7
	line	45
;uart_io.c: 45: RC1=1;
	bcf	status, 5	;RP0=0, select bank0
	bcf	status, 6	;RP1=0, select bank0
	bsf	(57/8),(57)&7
	line	46
;uart_io.c: 46: TRISC1=1;
	bsf	status, 5	;RP0=1, select bank1
	bcf	status, 6	;RP1=0, select bank1
	bsf	(1081/8)^080h,(1081)&7
	line	47
;uart_io.c: 47: break;
	goto	l1482
	line	48
	
l4238:	
;uart_io.c: 48: }
	goto	l1482
	line	40
	
l1479:	
	
l4240:	
	movf	(uart_init@channel),w
	; Switch size 1, requested type "space"
; Number of cases is 1, Range of values is 2 to 2
; switch strategies available:
; Name         Bytes Cycles
; simple_byte     4     3 (average)
; direct_byte    25    22 (fixed)
;	Chosen strategy is simple_byte

	xorlw	2^0	; case 2
	skipnz
	goto	l1480
	goto	l1482

	line	48
	
l1481:	
	line	49
	
l1482:	
	return
	opt stack 0
GLOBAL	__end_of_uart_init
	__end_of_uart_init:
;; =============== function _uart_init ends ============

	signat	_uart_init,4216
	global	_delay
psect	text586,local,class=CODE,delta=2
global __ptext586
__ptext586:

;; *************** function _delay *****************
;; Defined at:
;;		line 282 in file "C:\Users\Phang\Desktop\9.80\PR 29\PR29.c"
;; Parameters:    Size  Location     Type
;;  data            4    0[COMMON] unsigned long 
;; Auto vars:     Size  Location     Type
;;		None
;; Return value:  Size  Location     Type
;;		None               void
;; Registers used:
;;		wreg
;; Tracked objects:
;;		On entry : 0/0
;;		On exit  : 0/0
;;		Unchanged: 0/0
;; Data sizes:     COMMON   BANK0   BANK1   BANK3   BANK2
;;      Params:         4       0       0       0       0
;;      Locals:         0       0       0       0       0
;;      Temps:          4       0       0       0       0
;;      Totals:         8       0       0       0       0
;;Total ram usage:        8 bytes
;; Hardware stack levels used:    1
;; This function calls:
;;		Nothing
;; This function is called by:
;;		_main
;;		_send_config
;;		_send_char
;;		_lcd_clr
;;		_mode
;;		_display_status
;;		_receive_reply
;;		_CheckAdmin
;;		_AddNew
;;		_view_attendance
;;		_ResetAdmin
;; This function uses a non-reentrant model
;;
psect	text586
	file	"C:\Users\Phang\Desktop\9.80\PR 29\PR29.c"
	line	282
	global	__size_of_delay
	__size_of_delay	equ	__end_of_delay-_delay
	
_delay:	
	opt	stack 5
; Regs used in _delay: [wreg]
	line	283
	
l4230:	
;PR29.c: 283: for( ;data>0;data--);
	movf	(delay@data+3),w
	iorwf	(delay@data+2),w
	iorwf	(delay@data+1),w
	iorwf	(delay@data),w
	skipz
	goto	u3991
	goto	u3990
u3991:
	goto	l4234
u3990:
	goto	l657
	
l4232:	
	goto	l657
	
l655:	
	
l4234:	
	movlw	01h
	movwf	((??_delay+0)+0)
	movlw	0
	movwf	((??_delay+0)+0+1)
	movlw	0
	movwf	((??_delay+0)+0+2)
	movlw	0
	movwf	((??_delay+0)+0+3)
	movf	0+(??_delay+0)+0,w
	subwf	(delay@data),f
	movf	1+(??_delay+0)+0,w
	skipc
	incfsz	1+(??_delay+0)+0,w
	goto	u4005
	goto	u4006
u4005:
	subwf	(delay@data+1),f
u4006:
	movf	2+(??_delay+0)+0,w
	skipc
	incfsz	2+(??_delay+0)+0,w
	goto	u4007
	goto	u4008
u4007:
	subwf	(delay@data+2),f
u4008:
	movf	3+(??_delay+0)+0,w
	skipc
	incfsz	3+(??_delay+0)+0,w
	goto	u4009
	goto	u4000
u4009:
	subwf	(delay@data+3),f
u4000:

	movf	(delay@data+3),w
	iorwf	(delay@data+2),w
	iorwf	(delay@data+1),w
	iorwf	(delay@data),w
	skipz
	goto	u4011
	goto	u4010
u4011:
	goto	l4234
u4010:
	goto	l657
	
l656:	
	line	284
	
l657:	
	return
	opt stack 0
GLOBAL	__end_of_delay
	__end_of_delay:
;; =============== function _delay ends ============

	signat	_delay,4216
psect	text587,local,class=CODE,delta=2
global __ptext587
__ptext587:
	global	btemp
	btemp set 07Eh

	DABS	1,126,2	;btemp
	global	wtemp0
	wtemp0 set btemp
	end
