

HI-TECH Software PIC LITE Macro Assembler V9.80 build 6738 
                                                                                               Wed Jun 20 23:17:11 2012

HI-TECH Software Omniscient Code Generator (Lite mode) build 6738
     1  0000                     opt subtitle "HI-TECH Software Omniscient Code Generator (Lite mode) build 6738"
     2                           
     3                           opt pagewidth 120
     4                           
     5                           	opt lm
     6                           
     7                           	processor	16F876A
     8                           clrc	macro
     9                           	bcf	3,0
    10  0000                     	endm
    11                           clrz	macro
    12                           	bcf	3,2
    13  0000                     	endm
    14                           setc	macro
    15                           	bsf	3,0
    16  0000                     	endm
    17                           setz	macro
    18                           	bsf	3,2
    19  0000                     	endm
    20                           skipc	macro
    21                           	btfss	3,0
    22  0000                     	endm
    23                           skipz	macro
    24                           	btfss	3,2
    25  0000                     	endm
    26                           skipnc	macro
    27                           	btfsc	3,0
    28  0000                     	endm
    29                           skipnz	macro
    30                           	btfsc	3,2
    31  0000                     	endm
    32  0000                     indf	equ	0
    33  0000                     indf0	equ	0
    34  0002                     pc	equ	2
    35  0002                     pcl	equ	2
    36  0003                     status	equ	3
    37  0004                     fsr	equ	4
    38  0004                     fsr0	equ	4
    39  0001                     c	equ	1
    40  0000                     z	equ	0
    41  000A                     pclath	equ	10
    42                           # 5 "C:\Users\Phang\Desktop\9.80\PR 29\PR29.c"
    43                           	psect config,class=CONFIG,delta=2 ;#
    44                           # 5 "C:\Users\Phang\Desktop\9.80\PR 29\PR29.c"
    45  2007  3F32               	dw 0x3F32 ;#
    46                           	FNCALL	_main,_send_config
    47                           	FNCALL	_main,_lcd_clr
    48                           	FNCALL	_main,_lcd_goto
    49                           	FNCALL	_main,_send_string
    50                           	FNCALL	_main,_delay
    51                           	FNCALL	_main,_ResetAdmin
    52                           	FNCALL	_main,_send_cmd
    53                           	FNCALL	_main,_receive_reply_nodisplay
    54                           	FNCALL	_main,_uart_init
    55                           	FNCALL	_main,_init_attendance
    56                           	FNCALL	_main,_CheckAdmin
    57                           	FNCALL	_main,_send_char
    58                           	FNCALL	_main,_get_eeprom
    59                           	FNCALL	_main,_receive_reply
    60                           	FNCALL	_main,_store_eeprom
    61                           	FNCALL	_main,_mode
    62                           	FNCALL	_mode,_lcd_clr
    63                           	FNCALL	_mode,_store_eeprom
    64                           	FNCALL	_mode,_lcd_goto
    65                           	FNCALL	_mode,_send_string
    66                           	FNCALL	_mode,_send_char
    67                           	FNCALL	_mode,_delay
    68                           	FNCALL	_mode,_AddNew
    69                           	FNCALL	_mode,_send_cmd
    70                           	FNCALL	_mode,_receive_reply
    71                           	FNCALL	_mode,_CheckAdmin
    72                           	FNCALL	_mode,_view_attendance
    73                           	FNCALL	_mode,_clear_attendance
    74                           	FNCALL	_mode,_upload_GUI
    75                           	FNCALL	_mode,_upload_HT
    76                           	FNCALL	_ResetAdmin,_lcd_goto
    77                           	FNCALL	_ResetAdmin,_send_string
    78                           	FNCALL	_ResetAdmin,_delay
    79                           	FNCALL	_ResetAdmin,_send_cmd
    80                           	FNCALL	_ResetAdmin,_receive_reply
    81                           	FNCALL	_ResetAdmin,_AddNew
    82                           	FNCALL	_AddNew,_send_cmd
    83                           	FNCALL	_AddNew,_lcd_goto
    84                           	FNCALL	_AddNew,_send_string
    85                           	FNCALL	_AddNew,_delay
    86                           	FNCALL	_AddNew,_receive_reply
    87                           	FNCALL	_AddNew,_lcd_clr
    88                           	FNCALL	_CheckAdmin,_send_cmd
    89                           	FNCALL	_CheckAdmin,_lcd_goto
    90                           	FNCALL	_CheckAdmin,_send_string
    91                           	FNCALL	_CheckAdmin,_delay
    92                           	FNCALL	_CheckAdmin,_receive_reply
    93                           	FNCALL	_receive_reply,_uart_receive
    94                           	FNCALL	_receive_reply,_display_status
    95                           	FNCALL	_receive_reply,_delay
    96                           	FNCALL	_display_status,_lcd_clr
    97                           	FNCALL	_display_status,_lcd_goto
    98                           	FNCALL	_display_status,_send_string
    99                           	FNCALL	_display_status,_delay
   100                           	FNCALL	_display_status,_send_char
   101                           	FNCALL	_upload_HT,_uart_write
   102                           	FNCALL	_upload_HT,_allign
   103                           	FNCALL	_upload_HT,_get_eeprom
   104                           	FNCALL	_view_attendance,_lcd_clr
   105                           	FNCALL	_view_attendance,_lcd_goto
   106                           	FNCALL	_view_attendance,_send_string
   107                           	FNCALL	_view_attendance,_get_eeprom
   108                           	FNCALL	_view_attendance,_send_char
   109                           	FNCALL	_view_attendance,_delay
   110                           	FNCALL	_allign,_uart_write
   111                           	FNCALL	_upload_GUI,_get_eeprom
   112                           	FNCALL	_upload_GUI,_uart_write
   113                           	FNCALL	_send_string,_send_char
   114                           	FNCALL	_lcd_goto,_send_config
   115                           	FNCALL	_lcd_clr,_send_config
   116                           	FNCALL	_lcd_clr,_delay
   117                           	FNCALL	_clear_attendance,_store_eeprom
   118                           	FNCALL	_send_char,_delay
   119                           	FNCALL	_init_attendance,_store_eeprom
   120                           	FNCALL	_receive_reply_nodisplay,_uart_receive
   121                           	FNCALL	_send_cmd,_uart_send
   122                           	FNCALL	_send_config,_delay
   123                           	FNROOT	_main
   124                           	global	_DAY
   125                           	global	_day_count
   126                           	global	_location
   127                           	global	_mode_count
   128                           	global	upload_HT@F567
   129                           psect	idataBANK0,class=CODE,space=0,delta=2
   130                           global __pidataBANK0
   131  0003                     __pidataBANK0:
   132                           	file	"C:\Users\Phang\Desktop\9.80\PR 29\PR29.c"
   133                           	line	66
   134                           
   135                           ;initializer for _DAY
   136  0003  3401               	retlw	01h
   137                           	line	64
   138                           
   139                           ;initializer for _day_count
   140  0004  3401               	retlw	01h
   141                           	line	63
   142                           
   143                           ;initializer for _location
   144  0005  3401               	retlw	01h
   145                           	line	68
   146                           
   147                           ;initializer for _mode_count
   148  0006  3401               	retlw	01h
   149                           psect	idataBANK1,class=CODE,space=0,delta=2
   150                           global __pidataBANK1
   151  1DA5                     __pidataBANK1:
   152                           	line	969
   153                           
   154                           ;initializer for upload_HT@F567
   155  1DA5  342B               	retlw	02Bh
   156  1DA6  342D               	retlw	02Dh
   157  1DA7  342B               	retlw	02Bh
   158  1DA8  342D               	retlw	02Dh
   159  1DA9  342B               	retlw	02Bh
   160  1DAA  342D               	retlw	02Dh
   161  1DAB  3420               	retlw	020h
   162  1DAC  3441               	retlw	041h
   163  1DAD  3474               	retlw	074h
   164  1DAE  3474               	retlw	074h
   165  1DAF  3465               	retlw	065h
   166  1DB0  346E               	retlw	06Eh
   167  1DB1  3464               	retlw	064h
   168  1DB2  3461               	retlw	061h
   169  1DB3  346E               	retlw	06Eh
   170  1DB4  3463               	retlw	063h
   171  1DB5  3465               	retlw	065h
   172  1DB6  3420               	retlw	020h
   173  1DB7  344C               	retlw	04Ch
   174  1DB8  3469               	retlw	069h
   175  1DB9  3473               	retlw	073h
   176  1DBA  3474               	retlw	074h
   177  1DBB  3420               	retlw	020h
   178  1DBC  342D               	retlw	02Dh
   179  1DBD  342B               	retlw	02Bh
   180  1DBE  342D               	retlw	02Dh
   181  1DBF  342B               	retlw	02Bh
   182  1DC0  342D               	retlw	02Dh
   183  1DC1  3420               	retlw	020h
   184  1DC2  3443               	retlw	043h
   185  1DC3  3479               	retlw	079h
   186  1DC4  3474               	retlw	074h
   187  1DC5  3472               	retlw	072h
   188  1DC6  346F               	retlw	06Fh
   189  1DC7  346E               	retlw	06Eh
   190  1DC8  3420               	retlw	020h
   191  1DC9  3450               	retlw	050h
   192  1DCA  3452               	retlw	052h
   193  1DCB  3432               	retlw	032h
   194  1DCC  3439               	retlw	039h
   195                           	global	_array_resp
   196                           	global	_TEMP
   197                           	global	_day_location
   198                           	global	_dummy_byte
   199                           	global	_GUIcontrol
   200                           	global	_admin
   201                           	global	_day_enter
   202                           	global	_error
   203                           	global	_export_select
   204                           	global	_location_enter
   205                           	global	_mode_enter
   206                           	global	_usertype_enter
   207                           	global	_PORTB
   208  0006                     _PORTB	set	6
   209                           	global	_RCREG
   210  001A                     _RCREG	set	26
   211                           	global	_TXREG
   212  0019                     _TXREG	set	25
   213                           	global	_CARRY
   214  0018                     _CARRY	set	24
   215                           	global	_CREN
   216  00C4                     _CREN	set	196
   217                           	global	_GIE
   218  005F                     _GIE	set	95
   219                           	global	_RA0
   220  0028                     _RA0	set	40
   221                           	global	_RA1
   222  0029                     _RA1	set	41
   223                           	global	_RA2
   224  002A                     _RA2	set	42
   225                           	global	_RA3
   226  002B                     _RA3	set	43
   227                           	global	_RA4
   228  002C                     _RA4	set	44
   229                           	global	_RA5
   230  002D                     _RA5	set	45
   231                           	global	_RC0
   232  0038                     _RC0	set	56
   233                           	global	_RC1
   234  0039                     _RC1	set	57
   235                           	global	_RC4
   236  003C                     _RC4	set	60
   237                           	global	_RC5
   238  003D                     _RC5	set	61
   239                           	global	_RCIF
   240  0065                     _RCIF	set	101
   241                           	global	_SPEN
   242  00C7                     _SPEN	set	199
   243                           	global	_TXIF
   244  0064                     _TXIF	set	100
   245                           	global	_ADCON1
   246  009F                     _ADCON1	set	159
   247                           	global	_SPBRG
   248  0099                     _SPBRG	set	153
   249                           	global	_TRISA
   250  0085                     _TRISA	set	133
   251                           	global	_TRISB
   252  0086                     _TRISB	set	134
   253                           	global	_TRISC
   254  0087                     _TRISC	set	135
   255                           	global	_BRGH
   256  04C2                     _BRGH	set	1218
   257                           	global	_TRISC0
   258  0438                     _TRISC0	set	1080
   259                           	global	_TRISC1
   260  0439                     _TRISC1	set	1081
   261                           	global	_TXEN
   262  04C5                     _TXEN	set	1221
   263                           	global	_EEADR
   264  010D                     _EEADR	set	269
   265                           	global	_EEDATA
   266  010C                     _EEDATA	set	268
   267                           	global	_EECON1
   268  018C                     _EECON1	set	396
   269                           	global	_EECON2
   270  018D                     _EECON2	set	397
   271                           	global	_RD
   272  0C60                     _RD	set	3168
   273                           	global	_WR
   274  0C61                     _WR	set	3169
   275                           	global	_WREN
   276  0C62                     _WREN	set	3170
   277                           psect	strings,class=STRING,delta=2
   278                           global __pstrings
   279  1AB7                     __pstrings:
   280                           ;	global	stringtab,__stringbase
   281  1AB7                     stringtab:
   282                           ;	String table - string pointers are 2 bytes each
   283  1AB7  1BFF               	btfsc	(btemp+1),7
   284  1AB8  2AC1               	ljmp	stringcode
   285  1AB9  1383               	bcf	status,7
   286  1ABA  187F               	btfsc	(btemp+1),0
   287  1ABB  1783               	bsf	status,7
   288  1ABC  0800               	movf	indf,w
   289  1ABD  0A84               	incf fsr
   290  1ABE  1903               skipnz
   291  1ABF  0AFF               incf btemp+1
   292  1AC0  0008               	return
   293  1AC1                     stringcode:
   294  1AC1  087F               	movf btemp+1,w
   295  1AC2  397F               andlw 7Fh
   296  1AC3  008A               movwf	pclath
   297  1AC4  0804               	movf	fsr,w
   298  1AC5  0A84               incf fsr
   299  1AC6  1903               skipnz
   300  1AC7  0AFF               incf btemp+1
   301  1AC8  0082               	movwf pc
   302  1AC9                     __stringbase:
   303                           psect	stringtext,class=STRCODE,delta=2,reloc=256
   304                           global __pstringtext
   305  1800                     __pstringtext:
   306                           	
   307  1800                     STR_66:	
   308  1800  3452               	retlw	82	;'R'
   309  1801  3465               	retlw	101	;'e'
   310  1802  3473               	retlw	115	;'s'
   311  1803  3465               	retlw	101	;'e'
   312  1804  3474               	retlw	116	;'t'
   313  1805  3474               	retlw	116	;'t'
   314  1806  3469               	retlw	105	;'i'
   315  1807  346E               	retlw	110	;'n'
   316  1808  3467               	retlw	103	;'g'
   317  1809  3420               	retlw	32	;' '
   318  180A  3441               	retlw	65	;'A'
   319  180B  3464               	retlw	100	;'d'
   320  180C  346D               	retlw	109	;'m'
   321  180D  3469               	retlw	105	;'i'
   322  180E  346E               	retlw	110	;'n'
   323  180F  342E               	retlw	46	;'.'
   324  1810  342E               	retlw	46	;'.'
   325  1811  342E               	retlw	46	;'.'
   326  1812  3400               	retlw	0
   327                           psect	stringtext
   328                           	
   329  1813                     STR_41:	
   330  1813  3444               	retlw	68	;'D'
   331  1814  346F               	retlw	111	;'o'
   332  1815  346E               	retlw	110	;'n'
   333  1816  3465               	retlw	101	;'e'
   334  1817  3420               	retlw	32	;' '
   335  1818  3420               	retlw	32	;' '
   336  1819  3420               	retlw	32	;' '
   337  181A  3420               	retlw	32	;' '
   338  181B  3420               	retlw	32	;' '
   339  181C  3420               	retlw	32	;' '
   340  181D  3420               	retlw	32	;' '
   341  181E  3420               	retlw	32	;' '
   342  181F  3420               	retlw	32	;' '
   343  1820  3420               	retlw	32	;' '
   344  1821  3420               	retlw	32	;' '
   345  1822  3420               	retlw	32	;' '
   346  1823  3400               	retlw	0
   347                           psect	stringtext
   348                           	
   349  1824                     STR_14:	
   350  1824  3445               	retlw	69	;'E'
   351  1825  3478               	retlw	120	;'x'
   352  1826  3470               	retlw	112	;'p'
   353  1827  346F               	retlw	111	;'o'
   354  1828  3472               	retlw	114	;'r'
   355  1829  3474               	retlw	116	;'t'
   356  182A  3420               	retlw	32	;' '
   357  182B  3420               	retlw	32	;' '
   358  182C  3420               	retlw	32	;' '
   359  182D  3420               	retlw	32	;' '
   360  182E  3420               	retlw	32	;' '
   361  182F  3420               	retlw	32	;' '
   362  1830  3420               	retlw	32	;' '
   363  1831  3420               	retlw	32	;' '
   364  1832  3420               	retlw	32	;' '
   365  1833  3420               	retlw	32	;' '
   366  1834  3400               	retlw	0
   367                           psect	stringtext
   368                           	
   369  1835                     STR_37:	
   370  1835  3443               	retlw	67	;'C'
   371  1836  346C               	retlw	108	;'l'
   372  1837  3465               	retlw	101	;'e'
   373  1838  3461               	retlw	97	;'a'
   374  1839  3472               	retlw	114	;'r'
   375  183A  3465               	retlw	101	;'e'
   376  183B  3464               	retlw	100	;'d'
   377  183C  3420               	retlw	32	;' '
   378  183D  3420               	retlw	32	;' '
   379  183E  3420               	retlw	32	;' '
   380  183F  3420               	retlw	32	;' '
   381  1840  3420               	retlw	32	;' '
   382  1841  3420               	retlw	32	;' '
   383  1842  3420               	retlw	32	;' '
   384  1843  3420               	retlw	32	;' '
   385  1844  3420               	retlw	32	;' '
   386  1845  3400               	retlw	0
   387                           psect	stringtext
   388                           	
   389  1846                     STR_7:	
   390  1846  3453               	retlw	83	;'S'
   391  1847  3465               	retlw	101	;'e'
   392  1848  3474               	retlw	116	;'t'
   393  1849  3420               	retlw	32	;' '
   394  184A  3444               	retlw	68	;'D'
   395  184B  3461               	retlw	97	;'a'
   396  184C  3479               	retlw	121	;'y'
   397  184D  3420               	retlw	32	;' '
   398  184E  3420               	retlw	32	;' '
   399  184F  3420               	retlw	32	;' '
   400  1850  3420               	retlw	32	;' '
   401  1851  3420               	retlw	32	;' '
   402  1852  3420               	retlw	32	;' '
   403  1853  3420               	retlw	32	;' '
   404  1854  3420               	retlw	32	;' '
   405  1855  3420               	retlw	32	;' '
   406  1856  3400               	retlw	0
   407                           psect	stringtext
   408                           	
   409  1857                     STR_30:	
   410  1857  3453               	retlw	83	;'S'
   411  1858  3474               	retlw	116	;'t'
   412  1859  3461               	retlw	97	;'a'
   413  185A  346E               	retlw	110	;'n'
   414  185B  3464               	retlw	100	;'d'
   415  185C  3462               	retlw	98	;'b'
   416  185D  3479               	retlw	121	;'y'
   417  185E  3420               	retlw	32	;' '
   418  185F  3420               	retlw	32	;' '
   419  1860  3420               	retlw	32	;' '
   420  1861  3420               	retlw	32	;' '
   421  1862  3420               	retlw	32	;' '
   422  1863  3420               	retlw	32	;' '
   423  1864  3420               	retlw	32	;' '
   424  1865  3420               	retlw	32	;' '
   425  1866  3420               	retlw	32	;' '
   426  1867  3400               	retlw	0
   427                           psect	stringtext
   428                           	
   429  1868                     STR_29:	
   430  1868  344E               	retlw	78	;'N'
   431  1869  3465               	retlw	101	;'e'
   432  186A  3477               	retlw	119	;'w'
   433  186B  3420               	retlw	32	;' '
   434  186C  3441               	retlw	65	;'A'
   435  186D  3464               	retlw	100	;'d'
   436  186E  346D               	retlw	109	;'m'
   437  186F  3469               	retlw	105	;'i'
   438  1870  346E               	retlw	110	;'n'
   439  1871  3420               	retlw	32	;' '
   440  1872  3420               	retlw	32	;' '
   441  1873  3420               	retlw	32	;' '
   442  1874  3420               	retlw	32	;' '
   443  1875  3420               	retlw	32	;' '
   444  1876  3420               	retlw	32	;' '
   445  1877  3420               	retlw	32	;' '
   446  1878  3400               	retlw	0
   447                           psect	stringtext
   448                           	
   449  1879                     STR_36:	
   450  1879  3441               	retlw	65	;'A'
   451  187A  3474               	retlw	116	;'t'
   452  187B  3474               	retlw	116	;'t'
   453  187C  3465               	retlw	101	;'e'
   454  187D  346E               	retlw	110	;'n'
   455  187E  3464               	retlw	100	;'d'
   456  187F  3461               	retlw	97	;'a'
   457  1880  346E               	retlw	110	;'n'
   458  1881  3463               	retlw	99	;'c'
   459  1882  3465               	retlw	101	;'e'
   460  1883  3420               	retlw	32	;' '
   461  1884  3420               	retlw	32	;' '
   462  1885  3420               	retlw	32	;' '
   463  1886  3420               	retlw	32	;' '
   464  1887  3420               	retlw	32	;' '
   465  1888  3420               	retlw	32	;' '
   466  1889  3400               	retlw	0
   467                           psect	stringtext
   468                           	
   469  188A                     STR_44:	
   470  188A  3453               	retlw	83	;'S'
   471  188B  3475               	retlw	117	;'u'
   472  188C  3463               	retlw	99	;'c'
   473  188D  3463               	retlw	99	;'c'
   474  188E  3465               	retlw	101	;'e'
   475  188F  3473               	retlw	115	;'s'
   476  1890  3473               	retlw	115	;'s'
   477  1891  3466               	retlw	102	;'f'
   478  1892  3475               	retlw	117	;'u'
   479  1893  346C               	retlw	108	;'l'
   480  1894  3420               	retlw	32	;' '
   481  1895  3420               	retlw	32	;' '
   482  1896  3420               	retlw	32	;' '
   483  1897  3420               	retlw	32	;' '
   484  1898  3420               	retlw	32	;' '
   485  1899  3420               	retlw	32	;' '
   486  189A  3400               	retlw	0
   487                           psect	stringtext
   488                           	
   489  189B                     STR_45:	
   490  189B  3453               	retlw	83	;'S'
   491  189C  3463               	retlw	99	;'c'
   492  189D  3461               	retlw	97	;'a'
   493  189E  346E               	retlw	110	;'n'
   494  189F  346E               	retlw	110	;'n'
   495  18A0  3469               	retlw	105	;'i'
   496  18A1  346E               	retlw	110	;'n'
   497  18A2  3467               	retlw	103	;'g'
   498  18A3  342E               	retlw	46	;'.'
   499  18A4  342E               	retlw	46	;'.'
   500  18A5  342E               	retlw	46	;'.'
   501  18A6  3420               	retlw	32	;' '
   502  18A7  3420               	retlw	32	;' '
   503  18A8  3420               	retlw	32	;' '
   504  18A9  3420               	retlw	32	;' '
   505  18AA  3420               	retlw	32	;' '
   506  18AB  3400               	retlw	0
   507                           psect	stringtext
   508                           	
   509  18AC                     STR_24:	
   510  18AC  3443               	retlw	67	;'C'
   511  18AD  3468               	retlw	104	;'h'
   512  18AE  346F               	retlw	111	;'o'
   513  18AF  346F               	retlw	111	;'o'
   514  18B0  3473               	retlw	115	;'s'
   515  18B1  3465               	retlw	101	;'e'
   516  18B2  3420               	retlw	32	;' '
   517  18B3  3455               	retlw	85	;'U'
   518  18B4  3473               	retlw	115	;'s'
   519  18B5  3465               	retlw	101	;'e'
   520  18B6  3472               	retlw	114	;'r'
   521  18B7  3420               	retlw	32	;' '
   522  18B8  3420               	retlw	32	;' '
   523  18B9  3420               	retlw	32	;' '
   524  18BA  3420               	retlw	32	;' '
   525  18BB  3420               	retlw	32	;' '
   526  18BC  3400               	retlw	0
   527                           psect	stringtext
   528                           	
   529  18BD                     STR_40:	
   530  18BD  3455               	retlw	85	;'U'
   531  18BE  3470               	retlw	112	;'p'
   532  18BF  346C               	retlw	108	;'l'
   533  18C0  346F               	retlw	111	;'o'
   534  18C1  3461               	retlw	97	;'a'
   535  18C2  3464               	retlw	100	;'d'
   536  18C3  3469               	retlw	105	;'i'
   537  18C4  346E               	retlw	110	;'n'
   538  18C5  3467               	retlw	103	;'g'
   539  18C6  342E               	retlw	46	;'.'
   540  18C7  342E               	retlw	46	;'.'
   541  18C8  342E               	retlw	46	;'.'
   542  18C9  3420               	retlw	32	;' '
   543  18CA  3420               	retlw	32	;' '
   544  18CB  3420               	retlw	32	;' '
   545  18CC  3420               	retlw	32	;' '
   546  18CD  3400               	retlw	0
   547                           psect	stringtext
   548                           	
   549  18CE                     STR_11:	
   550  18CE  3443               	retlw	67	;'C'
   551  18CF  3468               	retlw	104	;'h'
   552  18D0  3461               	retlw	97	;'a'
   553  18D1  346E               	retlw	110	;'n'
   554  18D2  3467               	retlw	103	;'g'
   555  18D3  3465               	retlw	101	;'e'
   556  18D4  3420               	retlw	32	;' '
   557  18D5  3441               	retlw	65	;'A'
   558  18D6  3464               	retlw	100	;'d'
   559  18D7  346D               	retlw	109	;'m'
   560  18D8  3469               	retlw	105	;'i'
   561  18D9  346E               	retlw	110	;'n'
   562  18DA  3420               	retlw	32	;' '
   563  18DB  3420               	retlw	32	;' '
   564  18DC  3420               	retlw	32	;' '
   565  18DD  3420               	retlw	32	;' '
   566  18DE  3400               	retlw	0
   567                           psect	stringtext
   568                           	
   569  18DF                     STR_32:	
   570  18DF  3446               	retlw	70	;'F'
   571  18E0  346F               	retlw	111	;'o'
   572  18E1  3472               	retlw	114	;'r'
   573  18E2  346D               	retlw	109	;'m'
   574  18E3  3461               	retlw	97	;'a'
   575  18E4  346C               	retlw	108	;'l'
   576  18E5  3420               	retlw	32	;' '
   577  18E6  3441               	retlw	65	;'A'
   578  18E7  3464               	retlw	100	;'d'
   579  18E8  346D               	retlw	109	;'m'
   580  18E9  3469               	retlw	105	;'i'
   581  18EA  346E               	retlw	110	;'n'
   582  18EB  3420               	retlw	32	;' '
   583  18EC  3420               	retlw	32	;' '
   584  18ED  3420               	retlw	32	;' '
   585  18EE  3420               	retlw	32	;' '
   586  18EF  3400               	retlw	0
   587                           psect	stringtext
   588                           	
   589  18F0                     STR_9:	
   590  18F0  3444               	retlw	68	;'D'
   591  18F1  3465               	retlw	101	;'e'
   592  18F2  346C               	retlw	108	;'l'
   593  18F3  3465               	retlw	101	;'e'
   594  18F4  3474               	retlw	116	;'t'
   595  18F5  3465               	retlw	101	;'e'
   596  18F6  3420               	retlw	32	;' '
   597  18F7  3461               	retlw	97	;'a'
   598  18F8  3420               	retlw	32	;' '
   599  18F9  3444               	retlw	68	;'D'
   600  18FA  3461               	retlw	97	;'a'
   601  18FB  3474               	retlw	116	;'t'
   602  18FC  3461               	retlw	97	;'a'
   603  18FD  3420               	retlw	32	;' '
   604  18FE  3420               	retlw	32	;' '
   605  18FF  3420               	retlw	32	;' '
   606  1900  3400               	retlw	0
   607                           psect	stringtext
   608                           	
   609  1901                     STR_4:	
   610  1901  3432               	retlw	50	;'2'
   611  1902  342E               	retlw	46	;'.'
   612  1903  3420               	retlw	32	;' '
   613  1904  3455               	retlw	85	;'U'
   614  1905  3473               	retlw	115	;'s'
   615  1906  3465               	retlw	101	;'e'
   616  1907  3472               	retlw	114	;'r'
   617  1908  3420               	retlw	32	;' '
   618  1909  346C               	retlw	108	;'l'
   619  190A  346F               	retlw	111	;'o'
   620  190B  3467               	retlw	103	;'g'
   621  190C  3469               	retlw	105	;'i'
   622  190D  346E               	retlw	110	;'n'
   623  190E  3420               	retlw	32	;' '
   624  190F  3420               	retlw	32	;' '
   625  1910  3420               	retlw	32	;' '
   626  1911  3400               	retlw	0
   627                           psect	stringtext
   628                           	
   629  1912                     STR_8:	
   630  1912  3441               	retlw	65	;'A'
   631  1913  3464               	retlw	100	;'d'
   632  1914  3464               	retlw	100	;'d'
   633  1915  3420               	retlw	32	;' '
   634  1916  3461               	retlw	97	;'a'
   635  1917  3420               	retlw	32	;' '
   636  1918  344E               	retlw	78	;'N'
   637  1919  3465               	retlw	101	;'e'
   638  191A  3477               	retlw	119	;'w'
   639  191B  3420               	retlw	32	;' '
   640  191C  3444               	retlw	68	;'D'
   641  191D  3461               	retlw	97	;'a'
   642  191E  3474               	retlw	116	;'t'
   643  191F  3461               	retlw	97	;'a'
   644  1920  3420               	retlw	32	;' '
   645  1921  3420               	retlw	32	;' '
   646  1922  3400               	retlw	0
   647                           psect	stringtext
   648                           	
   649  1923                     STR_3:	
   650  1923  3431               	retlw	49	;'1'
   651  1924  342E               	retlw	46	;'.'
   652  1925  3420               	retlw	32	;' '
   653  1926  3441               	retlw	65	;'A'
   654  1927  3464               	retlw	100	;'d'
   655  1928  346D               	retlw	109	;'m'
   656  1929  3469               	retlw	105	;'i'
   657  192A  346E               	retlw	110	;'n'
   658  192B  3420               	retlw	32	;' '
   659  192C  346C               	retlw	108	;'l'
   660  192D  346F               	retlw	111	;'o'
   661  192E  3467               	retlw	103	;'g'
   662  192F  3469               	retlw	105	;'i'
   663  1930  346E               	retlw	110	;'n'
   664  1931  3420               	retlw	32	;' '
   665  1932  3420               	retlw	32	;' '
   666  1933  3400               	retlw	0
   667                           psect	stringtext
   668                           	
   669  1934                     STR_23:	
   670  1934  3450               	retlw	80	;'P'
   671  1935  3472               	retlw	114	;'r'
   672  1936  3465               	retlw	101	;'e'
   673  1937  3473               	retlw	115	;'s'
   674  1938  3473               	retlw	115	;'s'
   675  1939  3420               	retlw	32	;' '
   676  193A  3433               	retlw	51	;'3'
   677  193B  3420               	retlw	32	;' '
   678  193C  3474               	retlw	116	;'t'
   679  193D  346F               	retlw	111	;'o'
   680  193E  3420               	retlw	32	;' '
   681  193F  3473               	retlw	115	;'s'
   682  1940  3465               	retlw	101	;'e'
   683  1941  3474               	retlw	116	;'t'
   684  1942  3420               	retlw	32	;' '
   685  1943  3420               	retlw	32	;' '
   686  1944  3400               	retlw	0
   687                           psect	stringtext
   688                           	
   689  1945                     STR_39:	
   690  1945  3432               	retlw	50	;'2'
   691  1946  342E               	retlw	46	;'.'
   692  1947  3420               	retlw	32	;' '
   693  1948  3445               	retlw	69	;'E'
   694  1949  3478               	retlw	120	;'x'
   695  194A  3470               	retlw	112	;'p'
   696  194B  346F               	retlw	111	;'o'
   697  194C  3472               	retlw	114	;'r'
   698  194D  3474               	retlw	116	;'t'
   699  194E  3420               	retlw	32	;' '
   700  194F  3474               	retlw	116	;'t'
   701  1950  346F               	retlw	111	;'o'
   702  1951  3420               	retlw	32	;' '
   703  1952  3448               	retlw	72	;'H'
   704  1953  3454               	retlw	84	;'T'
   705  1954  3420               	retlw	32	;' '
   706  1955  3400               	retlw	0
   707                           psect	stringtext
   708                           	
   709  1956                     STR_10:	
   710  1956  3444               	retlw	68	;'D'
   711  1957  3465               	retlw	101	;'e'
   712  1958  346C               	retlw	108	;'l'
   713  1959  3465               	retlw	101	;'e'
   714  195A  3474               	retlw	116	;'t'
   715  195B  3465               	retlw	101	;'e'
   716  195C  3420               	retlw	32	;' '
   717  195D  3441               	retlw	65	;'A'
   718  195E  346C               	retlw	108	;'l'
   719  195F  346C               	retlw	108	;'l'
   720  1960  3420               	retlw	32	;' '
   721  1961  3444               	retlw	68	;'D'
   722  1962  3461               	retlw	97	;'a'
   723  1963  3474               	retlw	116	;'t'
   724  1964  3461               	retlw	97	;'a'
   725  1965  3420               	retlw	32	;' '
   726  1966  3400               	retlw	0
   727                           psect	stringtext
   728                           	
   729  1967                     STR_12:	
   730  1967  3456               	retlw	86	;'V'
   731  1968  3469               	retlw	105	;'i'
   732  1969  3465               	retlw	101	;'e'
   733  196A  3477               	retlw	119	;'w'
   734  196B  3420               	retlw	32	;' '
   735  196C  3441               	retlw	65	;'A'
   736  196D  3474               	retlw	116	;'t'
   737  196E  3474               	retlw	116	;'t'
   738  196F  3465               	retlw	101	;'e'
   739  1970  346E               	retlw	110	;'n'
   740  1971  3464               	retlw	100	;'d'
   741  1972  3461               	retlw	97	;'a'
   742  1973  346E               	retlw	110	;'n'
   743  1974  3463               	retlw	99	;'c'
   744  1975  3465               	retlw	101	;'e'
   745  1976  3420               	retlw	32	;' '
   746  1977  3400               	retlw	0
   747                           psect	stringtext
   748                           	
   749  1978                     STR_31:	
   750  1978  3456               	retlw	86	;'V'
   751  1979  3465               	retlw	101	;'e'
   752  197A  3472               	retlw	114	;'r'
   753  197B  3469               	retlw	105	;'i'
   754  197C  3466               	retlw	102	;'f'
   755  197D  3469               	retlw	105	;'i'
   756  197E  3463               	retlw	99	;'c'
   757  197F  3461               	retlw	97	;'a'
   758  1980  3474               	retlw	116	;'t'
   759  1981  3469               	retlw	105	;'i'
   760  1982  346F               	retlw	111	;'o'
   761  1983  346E               	retlw	110	;'n'
   762  1984  3420               	retlw	32	;' '
   763  1985  346F               	retlw	111	;'o'
   764  1986  3466               	retlw	102	;'f'
   765  1987  3420               	retlw	32	;' '
   766  1988  3400               	retlw	0
   767                           psect	stringtext
   768                           	
   769  1989                     STR_16:	
   770  1989  3450               	retlw	80	;'P'
   771  198A  3472               	retlw	114	;'r'
   772  198B  3465               	retlw	101	;'e'
   773  198C  3473               	retlw	115	;'s'
   774  198D  3473               	retlw	115	;'s'
   775  198E  3420               	retlw	32	;' '
   776  198F  3433               	retlw	51	;'3'
   777  1990  3420               	retlw	32	;' '
   778  1991  3474               	retlw	116	;'t'
   779  1992  346F               	retlw	111	;'o'
   780  1993  3420               	retlw	32	;' '
   781  1994  346D               	retlw	109	;'m'
   782  1995  3461               	retlw	97	;'a'
   783  1996  3472               	retlw	114	;'r'
   784  1997  346B               	retlw	107	;'k'
   785  1998  3420               	retlw	32	;' '
   786  1999  3400               	retlw	0
   787                           psect	stringtext
   788                           	
   789  199A                     STR_46:	
   790  199A  3456               	retlw	86	;'V'
   791  199B  3465               	retlw	101	;'e'
   792  199C  3472               	retlw	114	;'r'
   793  199D  3469               	retlw	105	;'i'
   794  199E  3466               	retlw	102	;'f'
   795  199F  3469               	retlw	105	;'i'
   796  19A0  3463               	retlw	99	;'c'
   797  19A1  3461               	retlw	97	;'a'
   798  19A2  3474               	retlw	116	;'t'
   799  19A3  3469               	retlw	105	;'i'
   800  19A4  346F               	retlw	111	;'o'
   801  19A5  346E               	retlw	110	;'n'
   802  19A6  3420               	retlw	32	;' '
   803  19A7  3431               	retlw	49	;'1'
   804  19A8  342F               	retlw	47	;'/'
   805  19A9  3432               	retlw	50	;'2'
   806  19AA  3400               	retlw	0
   807                           psect	stringtext
   808                           	
   809  19AB                     STR_48:	
   810  19AB  3456               	retlw	86	;'V'
   811  19AC  3465               	retlw	101	;'e'
   812  19AD  3472               	retlw	114	;'r'
   813  19AE  3469               	retlw	105	;'i'
   814  19AF  3466               	retlw	102	;'f'
   815  19B0  3469               	retlw	105	;'i'
   816  19B1  3463               	retlw	99	;'c'
   817  19B2  3461               	retlw	97	;'a'
   818  19B3  3474               	retlw	116	;'t'
   819  19B4  3469               	retlw	105	;'i'
   820  19B5  346F               	retlw	111	;'o'
   821  19B6  346E               	retlw	110	;'n'
   822  19B7  3420               	retlw	32	;' '
   823  19B8  3432               	retlw	50	;'2'
   824  19B9  342F               	retlw	47	;'/'
   825  19BA  3432               	retlw	50	;'2'
   826  19BB  3400               	retlw	0
   827                           psect	stringtext
   828                           	
   829  19BC                     STR_38:	
   830  19BC  3431               	retlw	49	;'1'
   831  19BD  342E               	retlw	46	;'.'
   832  19BE  3420               	retlw	32	;' '
   833  19BF  3445               	retlw	69	;'E'
   834  19C0  3478               	retlw	120	;'x'
   835  19C1  3470               	retlw	112	;'p'
   836  19C2  346F               	retlw	111	;'o'
   837  19C3  3472               	retlw	114	;'r'
   838  19C4  3474               	retlw	116	;'t'
   839  19C5  3420               	retlw	32	;' '
   840  19C6  3474               	retlw	116	;'t'
   841  19C7  346F               	retlw	111	;'o'
   842  19C8  3420               	retlw	32	;' '
   843  19C9  3447               	retlw	71	;'G'
   844  19CA  3455               	retlw	85	;'U'
   845  19CB  3449               	retlw	73	;'I'
   846  19CC  3400               	retlw	0
   847                           psect	stringtext
   848                           	
   849  19CD                     STR_17:	
   850  19CD  3450               	retlw	80	;'P'
   851  19CE  346C               	retlw	108	;'l'
   852  19CF  3461               	retlw	97	;'a'
   853  19D0  3463               	retlw	99	;'c'
   854  19D1  3465               	retlw	101	;'e'
   855  19D2  3420               	retlw	32	;' '
   856  19D3  3479               	retlw	121	;'y'
   857  19D4  346F               	retlw	111	;'o'
   858  19D5  3475               	retlw	117	;'u'
   859  19D6  3472               	retlw	114	;'r'
   860  19D7  3420               	retlw	32	;' '
   861  19D8  3474               	retlw	116	;'t'
   862  19D9  3468               	retlw	104	;'h'
   863  19DA  3475               	retlw	117	;'u'
   864  19DB  346D               	retlw	109	;'m'
   865  19DC  3462               	retlw	98	;'b'
   866  19DD  3400               	retlw	0
   867                           psect	stringtext
   868                           	
   869  19DE                     STR_28:	
   870  19DE  344E               	retlw	78	;'N'
   871  19DF  3465               	retlw	101	;'e'
   872  19E0  3477               	retlw	119	;'w'
   873  19E1  3420               	retlw	32	;' '
   874  19E2  3441               	retlw	65	;'A'
   875  19E3  3464               	retlw	100	;'d'
   876  19E4  346D               	retlw	109	;'m'
   877  19E5  3469               	retlw	105	;'i'
   878  19E6  346E               	retlw	110	;'n'
   879  19E7  3420               	retlw	32	;' '
   880  19E8  344E               	retlw	78	;'N'
   881  19E9  3465               	retlw	101	;'e'
   882  19EA  3465               	retlw	101	;'e'
   883  19EB  3464               	retlw	100	;'d'
   884  19EC  3465               	retlw	101	;'e'
   885  19ED  3464               	retlw	100	;'d'
   886  19EE  3400               	retlw	0
   887                           psect	stringtext
   888                           	
   889  19EF                     STR_13:	
   890  19EF  3443               	retlw	67	;'C'
   891  19F0  346C               	retlw	108	;'l'
   892  19F1  3465               	retlw	101	;'e'
   893  19F2  3461               	retlw	97	;'a'
   894  19F3  3472               	retlw	114	;'r'
   895  19F4  3420               	retlw	32	;' '
   896  19F5  3441               	retlw	65	;'A'
   897  19F6  3474               	retlw	116	;'t'
   898  19F7  3474               	retlw	116	;'t'
   899  19F8  3465               	retlw	101	;'e'
   900  19F9  346E               	retlw	110	;'n'
   901  19FA  3464               	retlw	100	;'d'
   902  19FB  3461               	retlw	97	;'a'
   903  19FC  346E               	retlw	110	;'n'
   904  19FD  3463               	retlw	99	;'c'
   905  19FE  3465               	retlw	101	;'e'
   906  19FF  3400               	retlw	0
   907                           psect	stringtext
   908                           	
   909  1A00                     STR_65:	
   910  1A00  3455               	retlw	85	;'U'
   911  1A01  3473               	retlw	115	;'s'
   912  1A02  3465               	retlw	101	;'e'
   913  1A03  3472               	retlw	114	;'r'
   914  1A04  3420               	retlw	32	;' '
   915  1A05  3431               	retlw	49	;'1'
   916  1A06  3420               	retlw	32	;' '
   917  1A07  3432               	retlw	50	;'2'
   918  1A08  3420               	retlw	32	;' '
   919  1A09  3433               	retlw	51	;'3'
   920  1A0A  3420               	retlw	32	;' '
   921  1A0B  3434               	retlw	52	;'4'
   922  1A0C  3420               	retlw	32	;' '
   923  1A0D  3435               	retlw	53	;'5'
   924  1A0E  3420               	retlw	32	;' '
   925  1A0F  3400               	retlw	0
   926                           psect	stringtext
   927                           	
   928  1A10                     STR_15:	
   929  1A10  3454               	retlw	84	;'T'
   930  1A11  346F               	retlw	111	;'o'
   931  1A12  3464               	retlw	100	;'d'
   932  1A13  3461               	retlw	97	;'a'
   933  1A14  3479               	retlw	121	;'y'
   934  1A15  3420               	retlw	32	;' '
   935  1A16  3469               	retlw	105	;'i'
   936  1A17  3473               	retlw	115	;'s'
   937  1A18  3420               	retlw	32	;' '
   938  1A19  3444               	retlw	68	;'D'
   939  1A1A  3461               	retlw	97	;'a'
   940  1A1B  3479               	retlw	121	;'y'
   941  1A1C  3420               	retlw	32	;' '
   942  1A1D  3400               	retlw	0
   943                           psect	stringtext
   944                           	
   945  1A1E                     STR_52:	
   946  1A1E  3441               	retlw	65	;'A'
   947  1A1F  3463               	retlw	99	;'c'
   948  1A20  3463               	retlw	99	;'c'
   949  1A21  3465               	retlw	101	;'e'
   950  1A22  3473               	retlw	115	;'s'
   951  1A23  3473               	retlw	115	;'s'
   952  1A24  3420               	retlw	32	;' '
   953  1A25  3444               	retlw	68	;'D'
   954  1A26  3465               	retlw	101	;'e'
   955  1A27  346E               	retlw	110	;'n'
   956  1A28  3469               	retlw	105	;'i'
   957  1A29  3465               	retlw	101	;'e'
   958  1A2A  3464               	retlw	100	;'d'
   959  1A2B  3400               	retlw	0
   960                           psect	stringtext
   961                           	
   962  1A2C                     STR_18:	
   963  1A2C  346F               	retlw	111	;'o'
   964  1A2D  346E               	retlw	110	;'n'
   965  1A2E  3420               	retlw	32	;' '
   966  1A2F  3474               	retlw	116	;'t'
   967  1A30  3468               	retlw	104	;'h'
   968  1A31  3465               	retlw	101	;'e'
   969  1A32  3420               	retlw	32	;' '
   970  1A33  3477               	retlw	119	;'w'
   971  1A34  3469               	retlw	105	;'i'
   972  1A35  346E               	retlw	110	;'n'
   973  1A36  3464               	retlw	100	;'d'
   974  1A37  346F               	retlw	111	;'o'
   975  1A38  3477               	retlw	119	;'w'
   976  1A39  3400               	retlw	0
   977                           psect	stringtext
   978                           	
   979  1A3A                     STR_1:	
   980  1A3A  3443               	retlw	67	;'C'
   981  1A3B  3479               	retlw	121	;'y'
   982  1A3C  3474               	retlw	116	;'t'
   983  1A3D  3472               	retlw	114	;'r'
   984  1A3E  346F               	retlw	111	;'o'
   985  1A3F  346E               	retlw	110	;'n'
   986  1A40  3420               	retlw	32	;' '
   987  1A41  3454               	retlw	84	;'T'
   988  1A42  3465               	retlw	101	;'e'
   989  1A43  3463               	retlw	99	;'c'
   990  1A44  3468               	retlw	104	;'h'
   991  1A45  342E               	retlw	46	;'.'
   992  1A46  3400               	retlw	0
   993                           psect	stringtext
   994                           	
   995  1A47                     STR_53:	
   996  1A47  3448               	retlw	72	;'H'
   997  1A48  3465               	retlw	101	;'e'
   998  1A49  346C               	retlw	108	;'l'
   999  1A4A  346C               	retlw	108	;'l'
  1000  1A4B  346F               	retlw	111	;'o'
  1001  1A4C  3420               	retlw	32	;' '
  1002  1A4D  3455               	retlw	85	;'U'
  1003  1A4E  3473               	retlw	115	;'s'
  1004  1A4F  3465               	retlw	101	;'e'
  1005  1A50  3472               	retlw	114	;'r'
  1006  1A51  3420               	retlw	32	;' '
  1007  1A52  3400               	retlw	0
  1008                           psect	stringtext
  1009                           	
  1010  1A53                     STR_33:	
  1011  1A53  3444               	retlw	68	;'D'
  1012  1A54  3465               	retlw	101	;'e'
  1013  1A55  346C               	retlw	108	;'l'
  1014  1A56  3465               	retlw	101	;'e'
  1015  1A57  3474               	retlw	116	;'t'
  1016  1A58  3469               	retlw	105	;'i'
  1017  1A59  346E               	retlw	110	;'n'
  1018  1A5A  3467               	retlw	103	;'g'
  1019  1A5B  342E               	retlw	46	;'.'
  1020  1A5C  342E               	retlw	46	;'.'
  1021  1A5D  342E               	retlw	46	;'.'
  1022  1A5E  3400               	retlw	0
  1023                           psect	stringtext
  1024                           	
  1025  1A5F                     STR_55:	
  1026  1A5F  3448               	retlw	72	;'H'
  1027  1A60  3465               	retlw	101	;'e'
  1028  1A61  346C               	retlw	108	;'l'
  1029  1A62  346C               	retlw	108	;'l'
  1030  1A63  346F               	retlw	111	;'o'
  1031  1A64  3420               	retlw	32	;' '
  1032  1A65  3441               	retlw	65	;'A'
  1033  1A66  3464               	retlw	100	;'d'
  1034  1A67  346D               	retlw	109	;'m'
  1035  1A68  3469               	retlw	105	;'i'
  1036  1A69  346E               	retlw	110	;'n'
  1037  1A6A  3400               	retlw	0
  1038                           psect	stringtext
  1039                           	
  1040  1A6B                     STR_51:	
  1041  1A6B  3455               	retlw	85	;'U'
  1042  1A6C  3473               	retlw	115	;'s'
  1043  1A6D  3465               	retlw	101	;'e'
  1044  1A6E  3472               	retlw	114	;'r'
  1045  1A6F  3420               	retlw	32	;' '
  1046  1A70  3445               	retlw	69	;'E'
  1047  1A71  3478               	retlw	120	;'x'
  1048  1A72  3469               	retlw	105	;'i'
  1049  1A73  3473               	retlw	115	;'s'
  1050  1A74  3474               	retlw	116	;'t'
  1051  1A75  3400               	retlw	0
  1052                           psect	stringtext
  1053                           	
  1054  1A76                     STR_20:	
  1055  1A76  3453               	retlw	83	;'S'
  1056  1A77  3465               	retlw	101	;'e'
  1057  1A78  346C               	retlw	108	;'l'
  1058  1A79  3465               	retlw	101	;'e'
  1059  1A7A  3463               	retlw	99	;'c'
  1060  1A7B  3474               	retlw	116	;'t'
  1061  1A7C  3465               	retlw	101	;'e'
  1062  1A7D  3464               	retlw	100	;'d'
  1063  1A7E  3400               	retlw	0
  1064                           psect	stringtext
  1065                           	
  1066  1A7F                     STR_54:	
  1067  1A7F  3457               	retlw	87	;'W'
  1068  1A80  3465               	retlw	101	;'e'
  1069  1A81  346C               	retlw	108	;'l'
  1070  1A82  3463               	retlw	99	;'c'
  1071  1A83  346F               	retlw	111	;'o'
  1072  1A84  346D               	retlw	109	;'m'
  1073  1A85  3465               	retlw	101	;'e'
  1074  1A86  3400               	retlw	0
  1075                           psect	stringtext
  1076                           	
  1077  1A87                     STR_50:	
  1078  1A87  3454               	retlw	84	;'T'
  1079  1A88  3469               	retlw	105	;'i'
  1080  1A89  346D               	retlw	109	;'m'
  1081  1A8A  3465               	retlw	101	;'e'
  1082  1A8B  346F               	retlw	111	;'o'
  1083  1A8C  3475               	retlw	117	;'u'
  1084  1A8D  3474               	retlw	116	;'t'
  1085  1A8E  3400               	retlw	0
  1086                           psect	stringtext
  1087                           	
  1088  1A8F                     STR_69:	
  1089  1A8F  3453               	retlw	83	;'S'
  1090  1A90  3474               	retlw	116	;'t'
  1091  1A91  3461               	retlw	97	;'a'
  1092  1A92  346E               	retlw	110	;'n'
  1093  1A93  3464               	retlw	100	;'d'
  1094  1A94  3462               	retlw	98	;'b'
  1095  1A95  3479               	retlw	121	;'y'
  1096  1A96  3400               	retlw	0
  1097                           psect	stringtext
  1098                           	
  1099  1A97                     STR_5:	
  1100  1A97  344D               	retlw	77	;'M'
  1101  1A98  346F               	retlw	111	;'o'
  1102  1A99  3464               	retlw	100	;'d'
  1103  1A9A  3465               	retlw	101	;'e'
  1104  1A9B  343D               	retlw	61	;'='
  1105  1A9C  3420               	retlw	32	;' '
  1106  1A9D  3400               	retlw	0
  1107                           psect	stringtext
  1108                           	
  1109  1A9E                     STR_49:	
  1110  1A9E  3446               	retlw	70	;'F'
  1111  1A9F  3461               	retlw	97	;'a'
  1112  1AA0  3469               	retlw	105	;'i'
  1113  1AA1  346C               	retlw	108	;'l'
  1114  1AA2  3465               	retlw	101	;'e'
  1115  1AA3  3464               	retlw	100	;'d'
  1116  1AA4  3400               	retlw	0
  1117                           psect	stringtext
  1118                           	
  1119  1AA5                     STR_2:	
  1120  1AA5  3450               	retlw	80	;'P'
  1121  1AA6  3452               	retlw	82	;'R'
  1122  1AA7  3420               	retlw	32	;' '
  1123  1AA8  3432               	retlw	50	;'2'
  1124  1AA9  3439               	retlw	57	;'9'
  1125  1AAA  3400               	retlw	0
  1126                           psect	stringtext
  1127                           	
  1128  1AAB                     STR_56:	
  1129  1AAB  3445               	retlw	69	;'E'
  1130  1AAC  3472               	retlw	114	;'r'
  1131  1AAD  3472               	retlw	114	;'r'
  1132  1AAE  346F               	retlw	111	;'o'
  1133  1AAF  3472               	retlw	114	;'r'
  1134  1AB0  3400               	retlw	0
  1135                           psect	stringtext
  1136                           	
  1137  1AB1                     STR_22:	
  1138  1AB1  342F               	retlw	47	;'/'
  1139  1AB2  3435               	retlw	53	;'5'
  1140  1AB3  3400               	retlw	0
  1141                           psect	stringtext
  1142                           	
  1143  1AB4                     STR_6:	
  1144  1AB4  342F               	retlw	47	;'/'
  1145  1AB5  3438               	retlw	56	;'8'
  1146  1AB6  3400               	retlw	0
  1147                           psect	stringtext
  1148  1A2C                     STR_58	equ	STR_18+0
  1149  1A2C                     STR_60	equ	STR_18+0
  1150  19DE                     STR_67	equ	STR_28+0
  1151  19CD                     STR_57	equ	STR_17+0
  1152  19CD                     STR_59	equ	STR_17+0
  1153  19AB                     STR_64	equ	STR_48+0
  1154  199A                     STR_62	equ	STR_46+0
  1155  1A10                     STR_21	equ	STR_15+0
  1156  1A19                     STR_19	equ	STR_15+9
  1157  1A4D                     STR_25	equ	STR_53+6
  1158  1A4D                     STR_27	equ	STR_53+6
  1159  18BD                     STR_42	equ	STR_40+0
  1160  18AC                     STR_26	equ	STR_24+0
  1161  189B                     STR_47	equ	STR_45+0
  1162  189B                     STR_61	equ	STR_45+0
  1163  189B                     STR_63	equ	STR_45+0
  1164  1868                     STR_34	equ	STR_29+0
  1165  1868                     STR_68	equ	STR_29+0
  1166  1857                     STR_35	equ	STR_30+0
  1167  1813                     STR_43	equ	STR_41+0
  1168                           	file	"PR 29.as"
  1169                           	line	#
  1170                           psect cinit,class=CODE,delta=2
  1171                           global start_initialization
  1172  0007                     start_initialization:
  1173                           
  1174                           psect	bitbssBANK0,class=BANK0,bit,space=1
  1175                           global __pbitbssBANK0
  1176  02C8                     __pbitbssBANK0:
  1177  02C8                     _GUIcontrol:
  1178  02C8                            ds      1
  1179                           
  1180  02C9                     _admin:
  1181  02C9                            ds      1
  1182                           
  1183  02CA                     _day_enter:
  1184  02CA                            ds      1
  1185                           
  1186  02CB                     _error:
  1187  02CB                            ds      1
  1188                           
  1189  02CC                     _export_select:
  1190  02CC                            ds      1
  1191                           
  1192  02CD                     _location_enter:
  1193  02CD                            ds      1
  1194                           
  1195  02CE                     _mode_enter:
  1196  02CE                            ds      1
  1197                           
  1198  02CF                     _usertype_enter:
  1199  02CF                            ds      1
  1200                           
  1201                           psect	bssBANK0,class=BANK0,space=1
  1202                           global __pbssBANK0
  1203  004E                     __pbssBANK0:
  1204  004E                     _array_resp:
  1205  004E                            ds      8
  1206                           
  1207  0056                     _TEMP:
  1208  0056                            ds      1
  1209                           
  1210  0057                     _day_location:
  1211  0057                            ds      1
  1212                           
  1213  0058                     _dummy_byte:
  1214  0058                            ds      1
  1215                           
  1216                           psect	dataBANK0,class=BANK0,space=1
  1217                           global __pdataBANK0
  1218  005A                     __pdataBANK0:
  1219                           	file	"C:\Users\Phang\Desktop\9.80\PR 29\PR29.c"
  1220                           	line	66
  1221  005A                     _DAY:
  1222  005A                            ds      1
  1223                           
  1224                           psect	dataBANK0
  1225                           	file	"C:\Users\Phang\Desktop\9.80\PR 29\PR29.c"
  1226                           	line	64
  1227  005B                     _day_count:
  1228  005B                            ds      1
  1229                           
  1230                           psect	dataBANK0
  1231                           	file	"C:\Users\Phang\Desktop\9.80\PR 29\PR29.c"
  1232                           	line	63
  1233  005C                     _location:
  1234  005C                            ds      1
  1235                           
  1236                           psect	dataBANK0
  1237                           	file	"C:\Users\Phang\Desktop\9.80\PR 29\PR29.c"
  1238                           	line	68
  1239  005D                     _mode_count:
  1240  005D                            ds      1
  1241                           
  1242                           psect	dataBANK1,class=BANK1,space=1
  1243                           global __pdataBANK1
  1244  00A0                     __pdataBANK1:
  1245                           	file	"C:\Users\Phang\Desktop\9.80\PR 29\PR29.c"
  1246                           	line	969
  1247  00A0                     upload_HT@F567:
  1248  00A0                            ds      40
  1249                           
  1250                           ; Clear objects allocated to BITBANK0
  1251                           psect cinit,class=CODE,delta=2
  1252  0007  01D9               	clrf	((__pbitbssBANK0/8)+0)&07Fh
  1253                           ; Clear objects allocated to BANK0
  1254                           psect cinit,class=CODE,delta=2
  1255  0008  01CE               	clrf	((__pbssBANK0)+0)&07Fh
  1256  0009  01CF               	clrf	((__pbssBANK0)+1)&07Fh
  1257  000A  01D0               	clrf	((__pbssBANK0)+2)&07Fh
  1258  000B  01D1               	clrf	((__pbssBANK0)+3)&07Fh
  1259  000C  01D2               	clrf	((__pbssBANK0)+4)&07Fh
  1260  000D  01D3               	clrf	((__pbssBANK0)+5)&07Fh
  1261  000E  01D4               	clrf	((__pbssBANK0)+6)&07Fh
  1262  000F  01D5               	clrf	((__pbssBANK0)+7)&07Fh
  1263  0010  01D6               	clrf	((__pbssBANK0)+8)&07Fh
  1264  0011  01D7               	clrf	((__pbssBANK0)+9)&07Fh
  1265  0012  01D8               	clrf	((__pbssBANK0)+10)&07Fh
  1266                           global btemp
  1267                           psect inittext,class=CODE,delta=2
  1268                           global init_fetch,btemp
  1269                           ;	Called with low address in FSR and high address in W
  1270  1CD9                     init_fetch:
  1271  1CD9  087E               	movf btemp,w
  1272  1CDA  008A               	movwf pclath
  1273  1CDB  087F               	movf btemp+1,w
  1274  1CDC  0082               	movwf pc
  1275                           global init_ram
  1276                           ;Called with:
  1277                           ;	high address of idata address in btemp 
  1278                           ;	low address of idata address in btemp+1 
  1279                           ;	low address of data in FSR
  1280                           ;	high address + 1 of data in btemp-1
  1281  1CDD                     init_ram:
  1282  1CDD  24D9  160A  158A   	fcall init_fetch
  1283  1CE0  0080               	movwf indf,f
  1284  1CE1  0A84               	incf fsr,f
  1285  1CE2  0804               	movf fsr,w
  1286  1CE3  067D               	xorwf btemp-1,w
  1287  1CE4  1903               	btfsc status,2
  1288  1CE5  3400               	retlw 0
  1289  1CE6  0AFF               	incf btemp+1,f
  1290  1CE7  1903               	btfsc status,2
  1291  1CE8  0AFE               	incf btemp,f
  1292  1CE9  2CDD               	goto init_ram
  1293                           ; Initialize objects allocated to BANK1
  1294                           psect cinit,class=CODE,delta=2
  1295                           global init_ram, __pidataBANK1
  1296  0013  1383               	bcf	status, 7	;select IRP bank0
  1297  0014  30C8               	movlw low(__pdataBANK1+40)
  1298  0015  00FD               	movwf btemp-1,f
  1299  0016  301D               	movlw high(__pidataBANK1)
  1300  0017  00FE               	movwf btemp,f
  1301  0018  30A5               	movlw low(__pidataBANK1)
  1302  0019  00FF               	movwf btemp+1,f
  1303  001A  30A0               	movlw low(__pdataBANK1)
  1304  001B  0084               	movwf fsr,f
  1305  001C  160A  158A  24DD   	fcall init_ram
              120A  118A         
  1306                           ; Initialize objects allocated to BANK0
  1307                           psect cinit,class=CODE,delta=2
  1308                           global init_ram, __pidataBANK0
  1309  0021  305E               	movlw low(__pdataBANK0+4)
  1310  0022  00FD               	movwf btemp-1,f
  1311  0023  3000               	movlw high(__pidataBANK0)
  1312  0024  00FE               	movwf btemp,f
  1313  0025  3003               	movlw low(__pidataBANK0)
  1314  0026  00FF               	movwf btemp+1,f
  1315  0027  305A               	movlw low(__pdataBANK0)
  1316  0028  0084               	movwf fsr,f
  1317  0029  160A  158A  24DD   	fcall init_ram
              120A  118A         
  1318                           psect cinit,class=CODE,delta=2
  1319                           global end_of_initialization
  1320                           
  1321                           ;End of C runtime variable initialization code
  1322                           
  1323  002E                     end_of_initialization:
  1324  002E  0183               clrf status
  1325  002F  160A  118A  2C1A   ljmp _main	;jump to C main() function
  1326                           psect	cstackCOMMON,class=COMMON,space=1
  1327                           global __pcstackCOMMON
  1328  0070                     __pcstackCOMMON:
  1329                           	global	?_send_config
  1330  0070                     ?_send_config:	; 0 bytes @ 0x0
  1331                           	global	?_lcd_clr
  1332  0070                     ?_lcd_clr:	; 0 bytes @ 0x0
  1333                           	global	?_lcd_goto
  1334  0070                     ?_lcd_goto:	; 0 bytes @ 0x0
  1335                           	global	?_delay
  1336  0070                     ?_delay:	; 0 bytes @ 0x0
  1337                           	global	?_ResetAdmin
  1338  0070                     ?_ResetAdmin:	; 0 bytes @ 0x0
  1339                           	global	?_receive_reply_nodisplay
  1340  0070                     ?_receive_reply_nodisplay:	; 0 bytes @ 0x0
  1341                           	global	?_uart_init
  1342  0070                     ?_uart_init:	; 0 bytes @ 0x0
  1343                           	global	??_uart_init
  1344  0070                     ??_uart_init:	; 0 bytes @ 0x0
  1345                           	global	?_init_attendance
  1346  0070                     ?_init_attendance:	; 0 bytes @ 0x0
  1347                           	global	?_CheckAdmin
  1348  0070                     ?_CheckAdmin:	; 0 bytes @ 0x0
  1349                           	global	?_send_char
  1350  0070                     ?_send_char:	; 0 bytes @ 0x0
  1351                           	global	??_get_eeprom
  1352  0070                     ??_get_eeprom:	; 0 bytes @ 0x0
  1353                           	global	?_receive_reply
  1354  0070                     ?_receive_reply:	; 0 bytes @ 0x0
  1355                           	global	?_store_eeprom
  1356  0070                     ?_store_eeprom:	; 0 bytes @ 0x0
  1357                           	global	?_mode
  1358  0070                     ?_mode:	; 0 bytes @ 0x0
  1359                           	global	?_AddNew
  1360  0070                     ?_AddNew:	; 0 bytes @ 0x0
  1361                           	global	?_view_attendance
  1362  0070                     ?_view_attendance:	; 0 bytes @ 0x0
  1363                           	global	?_clear_attendance
  1364  0070                     ?_clear_attendance:	; 0 bytes @ 0x0
  1365                           	global	?_upload_GUI
  1366  0070                     ?_upload_GUI:	; 0 bytes @ 0x0
  1367                           	global	?_upload_HT
  1368  0070                     ?_upload_HT:	; 0 bytes @ 0x0
  1369                           	global	?_uart_write
  1370  0070                     ?_uart_write:	; 0 bytes @ 0x0
  1371                           	global	?_allign
  1372  0070                     ?_allign:	; 0 bytes @ 0x0
  1373                           	global	?_main
  1374  0070                     ?_main:	; 0 bytes @ 0x0
  1375                           	global	?_uart_send
  1376  0070                     ?_uart_send:	; 0 bytes @ 0x0
  1377                           	global	??_uart_send
  1378  0070                     ??_uart_send:	; 0 bytes @ 0x0
  1379                           	global	??_uart_receive
  1380  0070                     ??_uart_receive:	; 0 bytes @ 0x0
  1381                           	global	?_get_eeprom
  1382  0070                     ?_get_eeprom:	; 1 bytes @ 0x0
  1383                           	global	?_uart_receive
  1384  0070                     ?_uart_receive:	; 1 bytes @ 0x0
  1385                           	global	uart_send@data
  1386  0070                     uart_send@data:	; 1 bytes @ 0x0
  1387                           	global	store_eeprom@location
  1388  0070                     store_eeprom@location:	; 1 bytes @ 0x0
  1389                           	global	uart_init@channel
  1390  0070                     uart_init@channel:	; 1 bytes @ 0x0
  1391                           	global	uart_write@data
  1392  0070                     uart_write@data:	; 1 bytes @ 0x0
  1393                           	global	delay@data
  1394  0070                     delay@data:	; 4 bytes @ 0x0
  1395  0070                     	ds	1
  1396                           	global	?_send_cmd
  1397  0071                     ?_send_cmd:	; 0 bytes @ 0x1
  1398                           	global	??_store_eeprom
  1399  0071                     ??_store_eeprom:	; 0 bytes @ 0x1
  1400                           	global	??_uart_write
  1401  0071                     ??_uart_write:	; 0 bytes @ 0x1
  1402                           	global	send_cmd@P1
  1403  0071                     send_cmd@P1:	; 1 bytes @ 0x1
  1404                           	global	uart_receive@rec_data
  1405  0071                     uart_receive@rec_data:	; 1 bytes @ 0x1
  1406                           	global	get_eeprom@location
  1407  0071                     get_eeprom@location:	; 1 bytes @ 0x1
  1408  0071                     	ds	1
  1409                           	global	??_receive_reply_nodisplay
  1410  0072                     ??_receive_reply_nodisplay:	; 0 bytes @ 0x2
  1411                           	global	send_cmd@P2
  1412  0072                     send_cmd@P2:	; 1 bytes @ 0x2
  1413                           	global	store_eeprom@data
  1414  0072                     store_eeprom@data:	; 1 bytes @ 0x2
  1415                           	global	get_eeprom@value
  1416  0072                     get_eeprom@value:	; 1 bytes @ 0x2
  1417  0072                     	ds	1
  1418                           	global	??_init_attendance
  1419  0073                     ??_init_attendance:	; 0 bytes @ 0x3
  1420                           	global	??_clear_attendance
  1421  0073                     ??_clear_attendance:	; 0 bytes @ 0x3
  1422                           	global	send_cmd@P3
  1423  0073                     send_cmd@P3:	; 1 bytes @ 0x3
  1424                           	global	receive_reply_nodisplay@i
  1425  0073                     receive_reply_nodisplay@i:	; 1 bytes @ 0x3
  1426                           	global	uart_write@channel
  1427  0073                     uart_write@channel:	; 1 bytes @ 0x3
  1428  0073                     	ds	1
  1429                           	global	??_delay
  1430  0074                     ??_delay:	; 0 bytes @ 0x4
  1431                           	global	??_send_cmd
  1432  0074                     ??_send_cmd:	; 0 bytes @ 0x4
  1433                           	global	uart_write@i
  1434  0074                     uart_write@i:	; 1 bytes @ 0x4
  1435  0074                     	ds	1
  1436                           	global	??_upload_GUI
  1437  0075                     ??_upload_GUI:	; 0 bytes @ 0x5
  1438                           	global	??_allign
  1439  0075                     ??_allign:	; 0 bytes @ 0x5
  1440                           	global	send_cmd@CHK
  1441  0075                     send_cmd@CHK:	; 1 bytes @ 0x5
  1442  0075                     	ds	1
  1443                           	global	send_cmd@CMD
  1444  0076                     send_cmd@CMD:	; 1 bytes @ 0x6
  1445                           	global	allign@Allign
  1446  0076                     allign@Allign:	; 1 bytes @ 0x6
  1447  0076                     	ds	1
  1448                           	global	??_upload_HT
  1449  0077                     ??_upload_HT:	; 0 bytes @ 0x7
  1450  0077                     	ds	1
  1451                           	global	??_send_config
  1452  0078                     ??_send_config:	; 0 bytes @ 0x8
  1453                           	global	??_send_char
  1454  0078                     ??_send_char:	; 0 bytes @ 0x8
  1455                           	global	send_config@data
  1456  0078                     send_config@data:	; 1 bytes @ 0x8
  1457                           	global	send_char@data
  1458  0078                     send_char@data:	; 1 bytes @ 0x8
  1459                           	global	upload_GUI@address
  1460  0078                     upload_GUI@address:	; 1 bytes @ 0x8
  1461  0078                     	ds	1
  1462                           	global	??_lcd_clr
  1463  0079                     ??_lcd_clr:	; 0 bytes @ 0x9
  1464                           	global	??_lcd_goto
  1465  0079                     ??_lcd_goto:	; 0 bytes @ 0x9
  1466                           	global	?_send_string
  1467  0079                     ?_send_string:	; 0 bytes @ 0x9
  1468                           	global	upload_GUI@count
  1469  0079                     upload_GUI@count:	; 1 bytes @ 0x9
  1470                           	global	send_string@s
  1471  0079                     send_string@s:	; 2 bytes @ 0x9
  1472  0079                     	ds	1
  1473                           	global	lcd_goto@data
  1474  007A                     lcd_goto@data:	; 1 bytes @ 0xA
  1475  007A                     	ds	1
  1476                           	global	??_send_string
  1477  007B                     ??_send_string:	; 0 bytes @ 0xB
  1478                           	global	send_string@i
  1479  007B                     send_string@i:	; 1 bytes @ 0xB
  1480  007B                     	ds	1
  1481                           	global	??_view_attendance
  1482  007C                     ??_view_attendance:	; 0 bytes @ 0xC
  1483                           	global	?_display_status
  1484  007C                     ?_display_status:	; 0 bytes @ 0xC
  1485                           	global	display_status@data0
  1486  007C                     display_status@data0:	; 1 bytes @ 0xC
  1487  007C                     	ds	1
  1488                           	global	display_status@data
  1489  007D                     display_status@data:	; 1 bytes @ 0xD
  1490                           	global	view_attendance@x
  1491  007D                     view_attendance@x:	; 1 bytes @ 0xD
  1492  007D                     	ds	1
  1493                           	global	??_display_status
  1494  007E                     ??_display_status:	; 0 bytes @ 0xE
  1495                           psect	cstackBANK0,class=BANK0,space=1
  1496                           global __pcstackBANK0
  1497  0020                     __pcstackBANK0:
  1498                           	global	display_status@type
  1499  0020                     display_status@type:	; 1 bytes @ 0x0
  1500                           	global	upload_HT@array_title
  1501  0020                     upload_HT@array_title:	; 40 bytes @ 0x0
  1502  0020                     	ds	1
  1503                           	global	??_receive_reply
  1504  0021                     ??_receive_reply:	; 0 bytes @ 0x1
  1505  0021                     	ds	2
  1506                           	global	receive_reply@i
  1507  0023                     receive_reply@i:	; 1 bytes @ 0x3
  1508  0023                     	ds	1
  1509                           	global	??_CheckAdmin
  1510  0024                     ??_CheckAdmin:	; 0 bytes @ 0x4
  1511                           	global	??_AddNew
  1512  0024                     ??_AddNew:	; 0 bytes @ 0x4
  1513  0024                     	ds	2
  1514                           	global	AddNew@data
  1515  0026                     AddNew@data:	; 1 bytes @ 0x6
  1516  0026                     	ds	1
  1517                           	global	??_ResetAdmin
  1518  0027                     ??_ResetAdmin:	; 0 bytes @ 0x7
  1519  0027                     	ds	33
  1520                           	global	upload_HT@address
  1521  0048                     upload_HT@address:	; 1 bytes @ 0x28
  1522  0048                     	ds	1
  1523                           	global	upload_HT@count
  1524  0049                     upload_HT@count:	; 1 bytes @ 0x29
  1525  0049                     	ds	1
  1526                           	global	??_mode
  1527  004A                     ??_mode:	; 0 bytes @ 0x2A
  1528  004A                     	ds	2
  1529                           	global	mode@data
  1530  004C                     mode@data:	; 1 bytes @ 0x2C
  1531  004C                     	ds	1
  1532                           	global	??_main
  1533  004D                     ??_main:	; 0 bytes @ 0x2D
  1534  004D                     	ds	1
  1535 ;;Data sizes: Strings 695, constant 0, data 44, bss 11, persistent 0 stack 0
  1536 ;;Auto spaces:   Size  Autos    Used
  1537 ;; COMMON          14     14      14
  1538 ;; BANK0           80     46      62
  1539 ;; BANK1           80      0      40
  1540 ;; BANK3           96      0       0
  1541 ;; BANK2           96      0       0
  1542                           
  1543 ;;
  1544 ;; Pointer list with targets:
  1545                           
  1546 ;; send_string@s	PTR const unsigned char  size(2) Largest target is 19
  1547 ;;		 -> STR_69(CODE[8]), STR_68(CODE[17]), STR_67(CODE[17]), STR_66(CODE[19]), 
  1548 ;;		 -> STR_65(CODE[16]), STR_64(CODE[17]), STR_63(CODE[17]), STR_62(CODE[17]), 
  1549 ;;		 -> STR_61(CODE[17]), STR_60(CODE[14]), STR_59(CODE[17]), STR_58(CODE[14]), 
  1550 ;;		 -> STR_57(CODE[17]), STR_56(CODE[6]), STR_55(CODE[12]), STR_54(CODE[8]), 
  1551 ;;		 -> STR_53(CODE[12]), STR_52(CODE[14]), STR_51(CODE[11]), STR_50(CODE[8]), 
  1552 ;;		 -> STR_49(CODE[7]), STR_48(CODE[17]), STR_47(CODE[17]), STR_46(CODE[17]), 
  1553 ;;		 -> STR_45(CODE[17]), STR_44(CODE[17]), STR_43(CODE[17]), STR_42(CODE[17]), 
  1554 ;;		 -> STR_41(CODE[17]), STR_40(CODE[17]), STR_39(CODE[17]), STR_38(CODE[17]), 
  1555 ;;		 -> STR_37(CODE[17]), STR_36(CODE[17]), STR_35(CODE[17]), STR_34(CODE[17]), 
  1556 ;;		 -> STR_33(CODE[12]), STR_32(CODE[17]), STR_31(CODE[17]), STR_30(CODE[17]), 
  1557 ;;		 -> STR_29(CODE[17]), STR_28(CODE[17]), STR_27(CODE[6]), STR_26(CODE[17]), 
  1558 ;;		 -> STR_25(CODE[6]), STR_24(CODE[17]), STR_23(CODE[17]), STR_22(CODE[3]), 
  1559 ;;		 -> STR_21(CODE[14]), STR_20(CODE[9]), STR_19(CODE[5]), STR_18(CODE[14]), 
  1560 ;;		 -> STR_17(CODE[17]), STR_16(CODE[17]), STR_15(CODE[14]), STR_14(CODE[17]), 
  1561 ;;		 -> STR_13(CODE[17]), STR_12(CODE[17]), STR_11(CODE[17]), STR_10(CODE[17]), 
  1562 ;;		 -> STR_9(CODE[17]), STR_8(CODE[17]), STR_7(CODE[17]), STR_6(CODE[3]), 
  1563 ;;		 -> STR_5(CODE[7]), STR_4(CODE[17]), STR_3(CODE[17]), STR_2(CODE[6]), 
  1564 ;;		 -> STR_1(CODE[13]), 
  1565 ;;
  1566                           
  1567                           
  1568 ;;
  1569 ;; Critical Paths under _main in COMMON
  1570 ;;
  1571 ;;   _mode->_view_attendance
  1572 ;;   _receive_reply->_display_status
  1573 ;;   _display_status->_send_string
  1574 ;;   _upload_HT->_allign
  1575 ;;   _view_attendance->_send_string
  1576 ;;   _allign->_uart_write
  1577 ;;   _upload_GUI->_uart_write
  1578 ;;   _send_string->_send_char
  1579 ;;   _lcd_goto->_send_config
  1580 ;;   _lcd_clr->_send_config
  1581 ;;   _clear_attendance->_store_eeprom
  1582 ;;   _send_char->_delay
  1583 ;;   _init_attendance->_store_eeprom
  1584 ;;   _receive_reply_nodisplay->_uart_receive
  1585 ;;   _send_cmd->_uart_send
  1586 ;;   _send_config->_delay
  1587 ;;
  1588 ;; Critical Paths under _main in BANK0
  1589 ;;
  1590 ;;   _main->_mode
  1591 ;;   _mode->_upload_HT
  1592 ;;   _ResetAdmin->_AddNew
  1593 ;;   _AddNew->_receive_reply
  1594 ;;   _CheckAdmin->_receive_reply
  1595 ;;   _receive_reply->_display_status
  1596 ;;
  1597 ;; Critical Paths under _main in BANK1
  1598 ;;
  1599 ;;   None.
  1600 ;;
  1601 ;; Critical Paths under _main in BANK3
  1602 ;;
  1603 ;;   None.
  1604 ;;
  1605 ;; Critical Paths under _main in BANK2
  1606 ;;
  1607 ;;   None.
  1608                           
  1609 ;;
  1610 ;;Main: autosize = 0, tempsize = 1, incstack = 0, save=0
  1611 ;;
  1612                           
  1613 ;;
  1614 ;;Call Graph Tables:
  1615 ;;
  1616 ;; ---------------------------------------------------------------------------------
  1617 ;; (Depth) Function   	        Calls       Base Space   Used Autos Params    Refs
  1618 ;; ---------------------------------------------------------------------------------
  1619 ;; (0) _main                                                 1     1      0   14757
  1620 ;;                                             45 BANK0      1     1      0
  1621 ;;                        _send_config
  1622 ;;                            _lcd_clr
  1623 ;;                           _lcd_goto
  1624 ;;                        _send_string
  1625 ;;                              _delay
  1626 ;;                         _ResetAdmin
  1627 ;;                           _send_cmd
  1628 ;;            _receive_reply_nodisplay
  1629 ;;                          _uart_init
  1630 ;;                    _init_attendance
  1631 ;;                         _CheckAdmin
  1632 ;;                          _send_char
  1633 ;;                         _get_eeprom
  1634 ;;                      _receive_reply
  1635 ;;                       _store_eeprom
  1636 ;;                               _mode
  1637 ;; ---------------------------------------------------------------------------------
  1638 ;; (1) _mode                                                 3     3      0    8639
  1639 ;;                                             42 BANK0      3     3      0
  1640 ;;                            _lcd_clr
  1641 ;;                       _store_eeprom
  1642 ;;                           _lcd_goto
  1643 ;;                        _send_string
  1644 ;;                          _send_char
  1645 ;;                              _delay
  1646 ;;                             _AddNew
  1647 ;;                           _send_cmd
  1648 ;;                      _receive_reply
  1649 ;;                         _CheckAdmin
  1650 ;;                    _view_attendance
  1651 ;;                   _clear_attendance
  1652 ;;                         _upload_GUI
  1653 ;;                          _upload_HT
  1654 ;; ---------------------------------------------------------------------------------
  1655 ;; (1) _ResetAdmin                                           1     1      0    2902
  1656 ;;                                              7 BANK0      1     1      0
  1657 ;;                           _lcd_goto
  1658 ;;                        _send_string
  1659 ;;                              _delay
  1660 ;;                           _send_cmd
  1661 ;;                      _receive_reply
  1662 ;;                             _AddNew
  1663 ;; ---------------------------------------------------------------------------------
  1664 ;; (2) _AddNew                                               3     3      0    1540
  1665 ;;                                              4 BANK0      3     3      0
  1666 ;;                           _send_cmd
  1667 ;;                           _lcd_goto
  1668 ;;                        _send_string
  1669 ;;                              _delay
  1670 ;;                      _receive_reply
  1671 ;;                            _lcd_clr
  1672 ;; ---------------------------------------------------------------------------------
  1673 ;; (2) _CheckAdmin                                           1     1      0    1362
  1674 ;;                                              4 BANK0      1     1      0
  1675 ;;                           _send_cmd
  1676 ;;                           _lcd_goto
  1677 ;;                        _send_string
  1678 ;;                              _delay
  1679 ;;                      _receive_reply
  1680 ;; ---------------------------------------------------------------------------------
  1681 ;; (3) _receive_reply                                        3     3      0     805
  1682 ;;                                              1 BANK0      3     3      0
  1683 ;;                       _uart_receive
  1684 ;;                     _display_status
  1685 ;;                              _delay
  1686 ;; ---------------------------------------------------------------------------------
  1687 ;; (4) _display_status                                       3     1      2     669
  1688 ;;                                             12 COMMON     2     0      2
  1689 ;;                                              0 BANK0      1     1      0
  1690 ;;                            _lcd_clr
  1691 ;;                           _lcd_goto
  1692 ;;                        _send_string
  1693 ;;                              _delay
  1694 ;;                          _send_char
  1695 ;; ---------------------------------------------------------------------------------
  1696 ;; (2) _upload_HT                                           46    46      0    1608
  1697 ;;                                              7 COMMON     4     4      0
  1698 ;;                                              0 BANK0     42    42      0
  1699 ;;                         _uart_write
  1700 ;;                             _allign
  1701 ;;                         _get_eeprom
  1702 ;; ---------------------------------------------------------------------------------
  1703 ;; (2) _view_attendance                                      2     2      0    1240
  1704 ;;                                             12 COMMON     2     2      0
  1705 ;;                            _lcd_clr
  1706 ;;                           _lcd_goto
  1707 ;;                        _send_string
  1708 ;;                         _get_eeprom
  1709 ;;                          _send_char
  1710 ;;                              _delay
  1711 ;; ---------------------------------------------------------------------------------
  1712 ;; (3) _allign                                               2     2      0     180
  1713 ;;                                              5 COMMON     2     2      0
  1714 ;;                         _uart_write
  1715 ;; ---------------------------------------------------------------------------------
  1716 ;; (2) _upload_GUI                                           5     5      0    1084
  1717 ;;                                              5 COMMON     5     5      0
  1718 ;;                         _get_eeprom
  1719 ;;                         _uart_write
  1720 ;; ---------------------------------------------------------------------------------
  1721 ;; (3) _send_string                                          3     1      2     135
  1722 ;;                                              9 COMMON     3     1      2
  1723 ;;                          _send_char
  1724 ;; ---------------------------------------------------------------------------------
  1725 ;; (3) _lcd_goto                                             2     2      0     156
  1726 ;;                                              9 COMMON     2     2      0
  1727 ;;                        _send_config
  1728 ;; ---------------------------------------------------------------------------------
  1729 ;; (3) _lcd_clr                                              0     0      0     112
  1730 ;;                        _send_config
  1731 ;;                              _delay
  1732 ;; ---------------------------------------------------------------------------------
  1733 ;; (4) _uart_write                                           5     4      1     134
  1734 ;;                                              0 COMMON     5     4      1
  1735 ;; ---------------------------------------------------------------------------------
  1736 ;; (2) _clear_attendance                                     1     1      0      44
  1737 ;;                                              3 COMMON     1     1      0
  1738 ;;                       _store_eeprom
  1739 ;; ---------------------------------------------------------------------------------
  1740 ;; (3) _send_char                                            1     1      0      67
  1741 ;;                                              8 COMMON     1     1      0
  1742 ;;                              _delay
  1743 ;; ---------------------------------------------------------------------------------
  1744 ;; (1) _init_attendance                                      1     1      0      44
  1745 ;;                                              3 COMMON     1     1      0
  1746 ;;                       _store_eeprom
  1747 ;; ---------------------------------------------------------------------------------
  1748 ;; (1) _receive_reply_nodisplay                              2     2      0      91
  1749 ;;                                              2 COMMON     2     2      0
  1750 ;;                       _uart_receive
  1751 ;; ---------------------------------------------------------------------------------
  1752 ;; (3) _send_cmd                                             6     3      3     221
  1753 ;;                                              1 COMMON     6     3      3
  1754 ;;                          _uart_send
  1755 ;; ---------------------------------------------------------------------------------
  1756 ;; (4) _send_config                                          1     1      0      67
  1757 ;;                                              8 COMMON     1     1      0
  1758 ;;                              _delay
  1759 ;; ---------------------------------------------------------------------------------
  1760 ;; (4) _uart_receive                                         2     2      0      23
  1761 ;;                                              0 COMMON     2     2      0
  1762 ;; ---------------------------------------------------------------------------------
  1763 ;; (4) _uart_send                                            1     1      0      22
  1764 ;;                                              0 COMMON     1     1      0
  1765 ;; ---------------------------------------------------------------------------------
  1766 ;; (3) _store_eeprom                                         3     2      1      44
  1767 ;;                                              0 COMMON     3     2      1
  1768 ;; ---------------------------------------------------------------------------------
  1769 ;; (3) _get_eeprom                                           3     3      0      45
  1770 ;;                                              0 COMMON     3     3      0
  1771 ;; ---------------------------------------------------------------------------------
  1772 ;; (1) _uart_init                                            1     1      0      22
  1773 ;;                                              0 COMMON     1     1      0
  1774 ;; ---------------------------------------------------------------------------------
  1775 ;; (3) _delay                                                8     4      4      45
  1776 ;;                                              0 COMMON     8     4      4
  1777 ;; ---------------------------------------------------------------------------------
  1778 ;; Estimated maximum stack depth 4
  1779 ;; ---------------------------------------------------------------------------------
  1780                           
  1781 ;; Call Graph Graphs:
  1782                           
  1783 ;; _main (ROOT)
  1784 ;;   _send_config
  1785 ;;     _delay
  1786 ;;   _lcd_clr
  1787 ;;     _send_config
  1788 ;;       _delay
  1789 ;;     _delay
  1790 ;;   _lcd_goto
  1791 ;;     _send_config
  1792 ;;       _delay
  1793 ;;   _send_string
  1794 ;;     _send_char
  1795 ;;       _delay
  1796 ;;   _delay
  1797 ;;   _ResetAdmin
  1798 ;;     _lcd_goto
  1799 ;;       _send_config
  1800 ;;         _delay
  1801 ;;     _send_string
  1802 ;;       _send_char
  1803 ;;         _delay
  1804 ;;     _delay
  1805 ;;     _send_cmd
  1806 ;;       _uart_send
  1807 ;;     _receive_reply
  1808 ;;       _uart_receive
  1809 ;;       _display_status
  1810 ;;         _lcd_clr
  1811 ;;           _send_config
  1812 ;;             _delay
  1813 ;;           _delay
  1814 ;;         _lcd_goto
  1815 ;;           _send_config
  1816 ;;             _delay
  1817 ;;         _send_string
  1818 ;;           _send_char
  1819 ;;             _delay
  1820 ;;         _delay
  1821 ;;         _send_char
  1822 ;;           _delay
  1823 ;;       _delay
  1824 ;;     _AddNew
  1825 ;;       _send_cmd
  1826 ;;         _uart_send
  1827 ;;       _lcd_goto
  1828 ;;         _send_config
  1829 ;;           _delay
  1830 ;;       _send_string
  1831 ;;         _send_char
  1832 ;;           _delay
  1833 ;;       _delay
  1834 ;;       _receive_reply
  1835 ;;         _uart_receive
  1836 ;;         _display_status
  1837 ;;           _lcd_clr
  1838 ;;             _send_config
  1839 ;;               _delay
  1840 ;;             _delay
  1841 ;;           _lcd_goto
  1842 ;;             _send_config
  1843 ;;               _delay
  1844 ;;           _send_string
  1845 ;;             _send_char
  1846 ;;               _delay
  1847 ;;           _delay
  1848 ;;           _send_char
  1849 ;;             _delay
  1850 ;;         _delay
  1851 ;;       _lcd_clr
  1852 ;;         _send_config
  1853 ;;           _delay
  1854 ;;         _delay
  1855 ;;   _send_cmd
  1856 ;;     _uart_send
  1857 ;;   _receive_reply_nodisplay
  1858 ;;     _uart_receive
  1859 ;;   _uart_init
  1860 ;;   _init_attendance
  1861 ;;     _store_eeprom
  1862 ;;   _CheckAdmin
  1863 ;;     _send_cmd
  1864 ;;       _uart_send
  1865 ;;     _lcd_goto
  1866 ;;       _send_config
  1867 ;;         _delay
  1868 ;;     _send_string
  1869 ;;       _send_char
  1870 ;;         _delay
  1871 ;;     _delay
  1872 ;;     _receive_reply
  1873 ;;       _uart_receive
  1874 ;;       _display_status
  1875 ;;         _lcd_clr
  1876 ;;           _send_config
  1877 ;;             _delay
  1878 ;;           _delay
  1879 ;;         _lcd_goto
  1880 ;;           _send_config
  1881 ;;             _delay
  1882 ;;         _send_string
  1883 ;;           _send_char
  1884 ;;             _delay
  1885 ;;         _delay
  1886 ;;         _send_char
  1887 ;;           _delay
  1888 ;;       _delay
  1889 ;;   _send_char
  1890 ;;     _delay
  1891 ;;   _get_eeprom
  1892 ;;   _receive_reply
  1893 ;;     _uart_receive
  1894 ;;     _display_status
  1895 ;;       _lcd_clr
  1896 ;;         _send_config
  1897 ;;           _delay
  1898 ;;         _delay
  1899 ;;       _lcd_goto
  1900 ;;         _send_config
  1901 ;;           _delay
  1902 ;;       _send_string
  1903 ;;         _send_char
  1904 ;;           _delay
  1905 ;;       _delay
  1906 ;;       _send_char
  1907 ;;         _delay
  1908 ;;     _delay
  1909 ;;   _store_eeprom
  1910 ;;   _mode
  1911 ;;     _lcd_clr
  1912 ;;       _send_config
  1913 ;;         _delay
  1914 ;;       _delay
  1915 ;;     _store_eeprom
  1916 ;;     _lcd_goto
  1917 ;;       _send_config
  1918 ;;         _delay
  1919 ;;     _send_string
  1920 ;;       _send_char
  1921 ;;         _delay
  1922 ;;     _send_char
  1923 ;;       _delay
  1924 ;;     _delay
  1925 ;;     _AddNew
  1926 ;;       _send_cmd
  1927 ;;         _uart_send
  1928 ;;       _lcd_goto
  1929 ;;         _send_config
  1930 ;;           _delay
  1931 ;;       _send_string
  1932 ;;         _send_char
  1933 ;;           _delay
  1934 ;;       _delay
  1935 ;;       _receive_reply
  1936 ;;         _uart_receive
  1937 ;;         _display_status
  1938 ;;           _lcd_clr
  1939 ;;             _send_config
  1940 ;;               _delay
  1941 ;;             _delay
  1942 ;;           _lcd_goto
  1943 ;;             _send_config
  1944 ;;               _delay
  1945 ;;           _send_string
  1946 ;;             _send_char
  1947 ;;               _delay
  1948 ;;           _delay
  1949 ;;           _send_char
  1950 ;;             _delay
  1951 ;;         _delay
  1952 ;;       _lcd_clr
  1953 ;;         _send_config
  1954 ;;           _delay
  1955 ;;         _delay
  1956 ;;     _send_cmd
  1957 ;;       _uart_send
  1958 ;;     _receive_reply
  1959 ;;       _uart_receive
  1960 ;;       _display_status
  1961 ;;         _lcd_clr
  1962 ;;           _send_config
  1963 ;;             _delay
  1964 ;;           _delay
  1965 ;;         _lcd_goto
  1966 ;;           _send_config
  1967 ;;             _delay
  1968 ;;         _send_string
  1969 ;;           _send_char
  1970 ;;             _delay
  1971 ;;         _delay
  1972 ;;         _send_char
  1973 ;;           _delay
  1974 ;;       _delay
  1975 ;;     _CheckAdmin
  1976 ;;       _send_cmd
  1977 ;;         _uart_send
  1978 ;;       _lcd_goto
  1979 ;;         _send_config
  1980 ;;           _delay
  1981 ;;       _send_string
  1982 ;;         _send_char
  1983 ;;           _delay
  1984 ;;       _delay
  1985 ;;       _receive_reply
  1986 ;;         _uart_receive
  1987 ;;         _display_status
  1988 ;;           _lcd_clr
  1989 ;;             _send_config
  1990 ;;               _delay
  1991 ;;             _delay
  1992 ;;           _lcd_goto
  1993 ;;             _send_config
  1994 ;;               _delay
  1995 ;;           _send_string
  1996 ;;             _send_char
  1997 ;;               _delay
  1998 ;;           _delay
  1999 ;;           _send_char
  2000 ;;             _delay
  2001 ;;         _delay
  2002 ;;     _view_attendance
  2003 ;;       _lcd_clr
  2004 ;;         _send_config
  2005 ;;           _delay
  2006 ;;         _delay
  2007 ;;       _lcd_goto
  2008 ;;         _send_config
  2009 ;;           _delay
  2010 ;;       _send_string
  2011 ;;         _send_char
  2012 ;;           _delay
  2013 ;;       _get_eeprom
  2014 ;;       _send_char
  2015 ;;         _delay
  2016 ;;       _delay
  2017 ;;     _clear_attendance
  2018 ;;       _store_eeprom
  2019 ;;     _upload_GUI
  2020 ;;       _get_eeprom
  2021 ;;       _uart_write
  2022 ;;     _upload_HT
  2023 ;;       _uart_write
  2024 ;;       _allign
  2025 ;;         _uart_write
  2026 ;;       _get_eeprom
  2027 ;;
  2028                           
  2029 ;; Address spaces:
  2030                           
  2031 ;;Name               Size   Autos  Total    Cost      Usage
  2032 ;;BANK3               60      0       0       9        0.0%
  2033 ;;BITBANK3            60      0       0       8        0.0%
  2034 ;;SFR3                 0      0       0       4        0.0%
  2035 ;;BITSFR3              0      0       0       4        0.0%
  2036 ;;BANK2               60      0       0      11        0.0%
  2037 ;;BITBANK2            60      0       0      10        0.0%
  2038 ;;SFR2                 0      0       0       5        0.0%
  2039 ;;BITSFR2              0      0       0       5        0.0%
  2040 ;;SFR1                 0      0       0       2        0.0%
  2041 ;;BITSFR1              0      0       0       2        0.0%
  2042 ;;BANK1               50      0      28       7       50.0%
  2043 ;;BITBANK1            50      0       0       6        0.0%
  2044 ;;CODE                 0      0       0       0        0.0%
  2045 ;;DATA                 0      0      7B      12        0.0%
  2046 ;;ABS                  0      0      74       3        0.0%
  2047 ;;NULL                 0      0       0       0        0.0%
  2048 ;;STACK                0      0       7       2        0.0%
  2049 ;;BANK0               50     2E      3E       5       77.5%
  2050 ;;BITBANK0            50      0       1       4        1.3%
  2051 ;;SFR0                 0      0       0       1        0.0%
  2052 ;;BITSFR0              0      0       0       1        0.0%
  2053 ;;COMMON               E      E       E       1      100.0%
  2054 ;;BITCOMMON            E      0       0       0        0.0%
  2055 ;;EEDATA             100      0       0       0        0.0%
  2056                           
  2057                           	global	_main
  2058                           psect	maintext,global,class=CODE,delta=2
  2059                           global __pmaintext
  2060  141A                     __pmaintext:
  2061                           
  2062 ;; *************** function _main *****************
  2063 ;; Defined at:
  2064 ;;		line 71 in file "C:\Users\Phang\Desktop\9.80\PR 29\PR29.c"
  2065 ;; Parameters:    Size  Location     Type
  2066 ;;		None
  2067 ;; Auto vars:     Size  Location     Type
  2068 ;;		None
  2069 ;; Return value:  Size  Location     Type
  2070 ;;		None               void
  2071 ;; Registers used:
  2072 ;;		wreg, fsr0l, fsr0h, status,2, status,0, btemp+1, pclath, cstack
  2073 ;; Tracked objects:
  2074 ;;		On entry : 17F/0
  2075 ;;		On exit  : 0/0
  2076 ;;		Unchanged: 0/0
  2077 ;; Data sizes:     COMMON   BANK0   BANK1   BANK3   BANK2
  2078 ;;      Params:         0       0       0       0       0
  2079 ;;      Locals:         0       0       0       0       0
  2080 ;;      Temps:          0       1       0       0       0
  2081 ;;      Totals:         0       1       0       0       0
  2082 ;;Total ram usage:        1 bytes
  2083 ;; Hardware stack levels required when called:    7
  2084 ;; This function calls:
  2085 ;;		_send_config
  2086 ;;		_lcd_clr
  2087 ;;		_lcd_goto
  2088 ;;		_send_string
  2089 ;;		_delay
  2090 ;;		_ResetAdmin
  2091 ;;		_send_cmd
  2092 ;;		_receive_reply_nodisplay
  2093 ;;		_uart_init
  2094 ;;		_init_attendance
  2095 ;;		_CheckAdmin
  2096 ;;		_send_char
  2097 ;;		_get_eeprom
  2098 ;;		_receive_reply
  2099 ;;		_store_eeprom
  2100 ;;		_mode
  2101 ;; This function is called by:
  2102 ;;		Startup code after reset
  2103 ;; This function uses a non-reentrant model
  2104 ;;
  2105                           psect	maintext
  2106                           	file	"C:\Users\Phang\Desktop\9.80\PR 29\PR29.c"
  2107                           	line	71
  2108                           	global	__size_of_main
  2109  03E6                     	__size_of_main	equ	__end_of_main-_main
  2110                           	
  2111  141A                     _main:	
  2112                           	opt	stack 1
  2113                           ; Regs used in _main: [wreg-fsr0h+status,2+status,0+btemp+1+pclath+cstack]
  2114                           	line	73
  2115                           	
  2116  141A                     l5532:	
  2117                           ;PR29.c: 73: TRISA = 0b00011100;
  2118  141A  301C               	movlw	(01Ch)
  2119  141B  1683               	bsf	status, 5	;RP0=1, select bank1
  2120  141C  1303               	bcf	status, 6	;RP1=0, select bank1
  2121  141D  0085               	movwf	(133)^080h	;volatile
  2122                           	line	74
  2123                           	
  2124  141E                     l5534:	
  2125                           ;PR29.c: 74: TRISB = 0b00000000;
  2126  141E  0186               	clrf	(134)^080h	;volatile
  2127                           	line	75
  2128                           	
  2129  141F                     l5536:	
  2130                           ;PR29.c: 75: TRISC = 0b10000000;
  2131  141F  3080               	movlw	(080h)
  2132  1420  0087               	movwf	(135)^080h	;volatile
  2133                           	line	78
  2134                           	
  2135  1421                     l5538:	
  2136                           ;PR29.c: 78: ADCON1 = 0b10000110;
  2137  1421  3086               	movlw	(086h)
  2138  1422  009F               	movwf	(159)^080h	;volatile
  2139                           	line	81
  2140                           	
  2141  1423                     l5540:	
  2142                           ;PR29.c: 81: send_config(0b00000001);
  2143  1423  3001               	movlw	(01h)
  2144  1424  160A  158A  2536   	fcall	_send_config
              160A  118A         
  2145                           	line	82
  2146                           	
  2147  1429                     l5542:	
  2148                           ;PR29.c: 82: send_config(0b00000010);
  2149  1429  3002               	movlw	(02h)
  2150  142A  160A  158A  2536   	fcall	_send_config
              160A  118A         
  2151                           	line	83
  2152                           	
  2153  142F                     l5544:	
  2154                           ;PR29.c: 83: send_config(0b00000110);
  2155  142F  3006               	movlw	(06h)
  2156  1430  160A  158A  2536   	fcall	_send_config
              160A  118A         
  2157                           	line	84
  2158                           	
  2159  1435                     l5546:	
  2160                           ;PR29.c: 84: send_config(0b00001100);
  2161  1435  300C               	movlw	(0Ch)
  2162  1436  160A  158A  2536   	fcall	_send_config
              160A  118A         
  2163                           	line	85
  2164                           	
  2165  143B                     l5548:	
  2166                           ;PR29.c: 85: send_config(0b00111000);
  2167  143B  3038               	movlw	(038h)
  2168  143C  160A  158A  2536   	fcall	_send_config
              160A  118A         
  2169                           	line	87
  2170                           	
  2171  1441                     l5550:	
  2172                           ;PR29.c: 87: RA5=0;
  2173  1441  1283               	bcf	status, 5	;RP0=0, select bank0
  2174  1442  1303               	bcf	status, 6	;RP1=0, select bank0
  2175  1443  1285               	bcf	(45/8),(45)&7
  2176                           	line	88
  2177                           	
  2178  1444                     l5552:	
  2179                           ;PR29.c: 88: RA1=0;
  2180  1444  1085               	bcf	(41/8),(41)&7
  2181                           	line	91
  2182                           	
  2183  1445                     l5554:	
  2184                           ;PR29.c: 91: lcd_clr();
  2185  1445  160A  158A  24EA   	fcall	_lcd_clr
              160A  118A         
  2186                           	line	92
  2187                           	
  2188  144A                     l5556:	
  2189                           ;PR29.c: 92: lcd_goto(0);
  2190  144A  3000               	movlw	(0)
  2191  144B  120A  158A  2004   	fcall	_lcd_goto
              160A  118A         
  2192                           	line	93
  2193                           	
  2194  1450                     l5558:	
  2195                           ;PR29.c: 93: send_string("Cytron Tech.");
  2196  1450  303A               	movlw	low(STR_1|8000h)
  2197  1451  00F9               	movwf	(?_send_string)
  2198  1452  309A               	movlw	high(STR_1|8000h)
  2199  1453  00FA               	movwf	((?_send_string))+1
  2200  1454  160A  158A  25FD   	fcall	_send_string
              160A  118A         
  2201                           	line	94
  2202                           	
  2203  1459                     l5560:	
  2204                           ;PR29.c: 94: lcd_goto(20);
  2205  1459  3014               	movlw	(014h)
  2206  145A  120A  158A  2004   	fcall	_lcd_goto
              160A  118A         
  2207                           	line	95
  2208                           	
  2209  145F                     l5562:	
  2210                           ;PR29.c: 95: send_string("PR 29");
  2211  145F  30A5               	movlw	low(STR_2|8000h)
  2212  1460  00F9               	movwf	(?_send_string)
  2213  1461  309A               	movlw	high(STR_2|8000h)
  2214  1462  00FA               	movwf	((?_send_string))+1
  2215  1463  160A  158A  25FD   	fcall	_send_string
              160A  118A         
  2216                           	line	96
  2217                           	
  2218  1468                     l5564:	
  2219                           ;PR29.c: 96: delay(200000);
  2220  1468  3000               	movlw	0
  2221  1469  00F3               	movwf	(?_delay+3)
  2222  146A  3003               	movlw	03h
  2223  146B  00F2               	movwf	(?_delay+2)
  2224  146C  300D               	movlw	0Dh
  2225  146D  00F1               	movwf	(?_delay+1)
  2226  146E  3040               	movlw	040h
  2227  146F  00F0               	movwf	(?_delay)
  2228                           
  2229  1470  160A  158A  25CD   	fcall	_delay
              160A  118A         
  2230                           	line	97
  2231                           	
  2232  1475                     l5566:	
  2233                           ;PR29.c: 97: lcd_clr();
  2234  1475  160A  158A  24EA   	fcall	_lcd_clr
              160A  118A         
  2235                           	line	101
  2236                           	
  2237  147A                     l5568:	
  2238                           ;PR29.c: 101: SPBRG = 0x40;
  2239  147A  3040               	movlw	(040h)
  2240  147B  1683               	bsf	status, 5	;RP0=1, select bank1
  2241  147C  1303               	bcf	status, 6	;RP1=0, select bank1
  2242  147D  0099               	movwf	(153)^080h	;volatile
  2243                           	line	102
  2244                           	
  2245  147E                     l5570:	
  2246                           ;PR29.c: 102: BRGH = 1;
  2247  147E  1518               	bsf	(1218/8)^080h,(1218)&7
  2248                           	line	103
  2249                           	
  2250  147F                     l5572:	
  2251                           ;PR29.c: 103: TXEN = 1;
  2252  147F  1698               	bsf	(1221/8)^080h,(1221)&7
  2253                           	line	104
  2254                           	
  2255  1480                     l5574:	
  2256                           ;PR29.c: 104: CREN = 1;
  2257  1480  1283               	bcf	status, 5	;RP0=0, select bank0
  2258  1481  1303               	bcf	status, 6	;RP1=0, select bank0
  2259  1482  1618               	bsf	(196/8),(196)&7
  2260                           	line	105
  2261                           	
  2262  1483                     l5576:	
  2263                           ;PR29.c: 105: SPEN = 1;
  2264  1483  1798               	bsf	(199/8),(199)&7
  2265                           	line	108
  2266                           	
  2267  1484                     l5578:	
  2268                           ;PR29.c: 108: if((!RA2) && (!RA3))
  2269  1484  1905               	btfsc	(42/8),(42)&7
  2270  1485  2C87               	goto	u5401
  2271  1486  2C88               	goto	u5400
  2272  1487                     u5401:
  2273  1487  2CAA               	goto	l5590
  2274  1488                     u5400:
  2275                           	
  2276  1488                     l5580:	
  2277  1488  1985               	btfsc	(43/8),(43)&7
  2278  1489  2C8B               	goto	u5411
  2279  148A  2C8C               	goto	u5410
  2280  148B                     u5411:
  2281  148B  2CAA               	goto	l5590
  2282  148C                     u5410:
  2283                           	line	110
  2284                           	
  2285  148C                     l5582:	
  2286                           ;PR29.c: 109: {
  2287                           ;PR29.c: 110: delay(100000);
  2288  148C  3000               	movlw	0
  2289  148D  00F3               	movwf	(?_delay+3)
  2290  148E  3001               	movlw	01h
  2291  148F  00F2               	movwf	(?_delay+2)
  2292  1490  3086               	movlw	086h
  2293  1491  00F1               	movwf	(?_delay+1)
  2294  1492  30A0               	movlw	0A0h
  2295  1493  00F0               	movwf	(?_delay)
  2296                           
  2297  1494  160A  158A  25CD   	fcall	_delay
              160A  118A         
  2298                           	line	111
  2299                           	
  2300  1499                     l5584:	
  2301                           ;PR29.c: 111: if((!RA2) && (!RA3))
  2302  1499  1283               	bcf	status, 5	;RP0=0, select bank0
  2303  149A  1303               	bcf	status, 6	;RP1=0, select bank0
  2304  149B  1905               	btfsc	(42/8),(42)&7
  2305  149C  2C9E               	goto	u5421
  2306  149D  2C9F               	goto	u5420
  2307  149E                     u5421:
  2308  149E  2CAA               	goto	l5590
  2309  149F                     u5420:
  2310                           	
  2311  149F                     l5586:	
  2312  149F  1985               	btfsc	(43/8),(43)&7
  2313  14A0  2CA2               	goto	u5431
  2314  14A1  2CA3               	goto	u5430
  2315  14A2                     u5431:
  2316  14A2  2CAA               	goto	l5590
  2317  14A3                     u5430:
  2318                           	line	113
  2319                           	
  2320  14A3                     l5588:	
  2321                           ;PR29.c: 112: {
  2322                           ;PR29.c: 113: ResetAdmin();
  2323  14A3  120A  118A  2032   	fcall	_ResetAdmin
              160A  118A         
  2324  14A8  2CAA               	goto	l5590
  2325                           	line	114
  2326                           	
  2327  14A9                     l572:	
  2328  14A9  2CAA               	goto	l5590
  2329                           	line	115
  2330                           	
  2331  14AA                     l571:	
  2332                           	line	118
  2333                           	
  2334  14AA                     l5590:	
  2335                           ;PR29.c: 114: }
  2336                           ;PR29.c: 115: }
  2337                           ;PR29.c: 118: send_cmd(0x2E,0x00,0x10,0x00);
  2338  14AA  1003               	clrc
  2339  14AB  3000               	movlw	0
  2340  14AC  1803               	btfsc	status,0
  2341  14AD  3001               	movlw	1
  2342  14AE  00F1               	movwf	(?_send_cmd)
  2343  14AF  3010               	movlw	(010h)
  2344  14B0  1283               	bcf	status, 5	;RP0=0, select bank0
  2345  14B1  1303               	bcf	status, 6	;RP1=0, select bank0
  2346  14B2  00CD               	movwf	(??_main+0)+0
  2347  14B3  084D               	movf	(??_main+0)+0,w
  2348  14B4  00F2               	movwf	0+(?_send_cmd)+01h
  2349  14B5  1003               	clrc
  2350  14B6  3000               	movlw	0
  2351  14B7  1803               	btfsc	status,0
  2352  14B8  3001               	movlw	1
  2353  14B9  00F3               	movwf	0+(?_send_cmd)+02h
  2354  14BA  302E               	movlw	(02Eh)
  2355  14BB  160A  158A  266C   	fcall	_send_cmd
              160A  118A         
  2356                           	line	119
  2357                           	
  2358  14C0                     l5592:	
  2359                           ;PR29.c: 119: delay(10);
  2360  14C0  3000               	movlw	0
  2361  14C1  00F3               	movwf	(?_delay+3)
  2362  14C2  3000               	movlw	0
  2363  14C3  00F2               	movwf	(?_delay+2)
  2364  14C4  3000               	movlw	0
  2365  14C5  00F1               	movwf	(?_delay+1)
  2366  14C6  300A               	movlw	0Ah
  2367  14C7  00F0               	movwf	(?_delay)
  2368                           
  2369  14C8  160A  158A  25CD   	fcall	_delay
              160A  118A         
  2370                           	line	120
  2371                           	
  2372  14CD                     l5594:	
  2373                           ;PR29.c: 120: receive_reply_nodisplay();
  2374  14CD  160A  158A  255B   	fcall	_receive_reply_nodisplay
              160A  118A         
  2375                           	line	121
  2376                           	
  2377  14D2                     l5596:	
  2378                           ;PR29.c: 121: send_cmd(0x2d,0x00,1,0x00);
  2379  14D2  1003               	clrc
  2380  14D3  3000               	movlw	0
  2381  14D4  1803               	btfsc	status,0
  2382  14D5  3001               	movlw	1
  2383  14D6  00F1               	movwf	(?_send_cmd)
  2384  14D7  01F2               	clrf	0+(?_send_cmd)+01h
  2385  14D8  1403               	bsf	status,0
  2386  14D9  0DF2               	rlf	0+(?_send_cmd)+01h,f
  2387  14DA  1003               	clrc
  2388  14DB  3000               	movlw	0
  2389  14DC  1803               	btfsc	status,0
  2390  14DD  3001               	movlw	1
  2391  14DE  00F3               	movwf	0+(?_send_cmd)+02h
  2392  14DF  302D               	movlw	(02Dh)
  2393  14E0  160A  158A  266C   	fcall	_send_cmd
              160A  118A         
  2394                           	line	122
  2395                           	
  2396  14E5                     l5598:	
  2397                           ;PR29.c: 122: delay(10);
  2398  14E5  3000               	movlw	0
  2399  14E6  00F3               	movwf	(?_delay+3)
  2400  14E7  3000               	movlw	0
  2401  14E8  00F2               	movwf	(?_delay+2)
  2402  14E9  3000               	movlw	0
  2403  14EA  00F1               	movwf	(?_delay+1)
  2404  14EB  300A               	movlw	0Ah
  2405  14EC  00F0               	movwf	(?_delay)
  2406                           
  2407  14ED  160A  158A  25CD   	fcall	_delay
              160A  118A         
  2408                           	line	123
  2409                           	
  2410  14F2                     l5600:	
  2411                           ;PR29.c: 123: receive_reply_nodisplay();
  2412  14F2  160A  158A  255B   	fcall	_receive_reply_nodisplay
              160A  118A         
  2413                           	line	126
  2414                           	
  2415  14F7                     l5602:	
  2416                           ;PR29.c: 126: uart_init(1);
  2417  14F7  3001               	movlw	(01h)
  2418  14F8  160A  118A  2005   	fcall	_uart_init
              160A  118A         
  2419                           	line	129
  2420                           	
  2421  14FD                     l5604:	
  2422                           ;PR29.c: 129: init_attendance();
  2423  14FD  120A  158A  206D   	fcall	_init_attendance
              160A  118A         
  2424  1502  2D4C               	goto	l574
  2425                           	line	131
  2426                           ;PR29.c: 131: while(1)
  2427                           	
  2428  1503                     l573:	
  2429                           	line	133
  2430                           ;PR29.c: 132: {
  2431                           ;PR29.c: 133: while(usertype_enter==0)
  2432  1503  2D4C               	goto	l574
  2433                           	
  2434  1504                     l575:	
  2435                           	line	135
  2436                           	
  2437  1504                     l5606:	
  2438                           ;PR29.c: 134: {
  2439                           ;PR29.c: 135: lcd_goto(0);
  2440  1504  3000               	movlw	(0)
  2441  1505  120A  158A  2004   	fcall	_lcd_goto
              160A  118A         
  2442                           	line	136
  2443                           	
  2444  150A                     l5608:	
  2445                           ;PR29.c: 136: send_string("1. Admin login  ");
  2446  150A  3023               	movlw	low(STR_3|8000h)
  2447  150B  00F9               	movwf	(?_send_string)
  2448  150C  3099               	movlw	high(STR_3|8000h)
  2449  150D  00FA               	movwf	((?_send_string))+1
  2450  150E  160A  158A  25FD   	fcall	_send_string
              160A  118A         
  2451                           	line	137
  2452                           	
  2453  1513                     l5610:	
  2454                           ;PR29.c: 137: lcd_goto(20);
  2455  1513  3014               	movlw	(014h)
  2456  1514  120A  158A  2004   	fcall	_lcd_goto
              160A  118A         
  2457                           	line	138
  2458                           ;PR29.c: 138: send_string("2. User login   ");
  2459  1519  3001               	movlw	low(STR_4|8000h)
  2460  151A  00F9               	movwf	(?_send_string)
  2461  151B  3099               	movlw	high(STR_4|8000h)
  2462  151C  00FA               	movwf	((?_send_string))+1
  2463  151D  160A  158A  25FD   	fcall	_send_string
              160A  118A         
  2464                           	line	139
  2465                           	
  2466  1522                     l5612:	
  2467                           ;PR29.c: 139: if(!RA2)
  2468  1522  1283               	bcf	status, 5	;RP0=0, select bank0
  2469  1523  1303               	bcf	status, 6	;RP1=0, select bank0
  2470  1524  1905               	btfsc	(42/8),(42)&7
  2471  1525  2D27               	goto	u5441
  2472  1526  2D28               	goto	u5440
  2473  1527                     u5441:
  2474  1527  2D3E               	goto	l576
  2475  1528                     u5440:
  2476  1528  2D2A               	goto	l577
  2477                           	line	141
  2478                           	
  2479  1529                     l5614:	
  2480                           ;PR29.c: 140: {
  2481                           ;PR29.c: 141: while(!RA2);
  2482  1529  2D2A               	goto	l577
  2483                           	
  2484  152A                     l578:	
  2485                           	
  2486  152A                     l577:	
  2487  152A  1D05               	btfss	(42/8),(42)&7
  2488  152B  2D2D               	goto	u5451
  2489  152C  2D2E               	goto	u5450
  2490  152D                     u5451:
  2491  152D  2D2A               	goto	l577
  2492  152E                     u5450:
  2493  152E  2D2F               	goto	l5616
  2494                           	
  2495  152F                     l579:	
  2496                           	line	142
  2497                           	
  2498  152F                     l5616:	
  2499                           ;PR29.c: 142: CheckAdmin();
  2500  152F  160A  158A  26E9   	fcall	_CheckAdmin
              160A  118A         
  2501                           	line	143
  2502                           	
  2503  1534                     l5618:	
  2504                           ;PR29.c: 143: if(error!=1)
  2505  1534  1283               	bcf	status, 5	;RP0=0, select bank0
  2506  1535  1303               	bcf	status, 6	;RP1=0, select bank0
  2507  1536  19D9               	btfsc	(_error/8),(_error)&7
  2508  1537  2D39               	goto	u5461
  2509  1538  2D3A               	goto	u5460
  2510  1539                     u5461:
  2511  1539  2D4C               	goto	l574
  2512  153A                     u5460:
  2513                           	line	145
  2514                           	
  2515  153A                     l5620:	
  2516                           ;PR29.c: 144: {
  2517                           ;PR29.c: 145: admin = 1;
  2518  153A  14D9               	bsf	(_admin/8),(_admin)&7
  2519                           	line	146
  2520                           ;PR29.c: 146: usertype_enter=1;
  2521  153B  17D9               	bsf	(_usertype_enter/8),(_usertype_enter)&7
  2522  153C  2D4C               	goto	l574
  2523                           	line	147
  2524                           	
  2525  153D                     l580:	
  2526                           	line	148
  2527                           ;PR29.c: 147: }
  2528                           ;PR29.c: 148: }
  2529  153D  2D4C               	goto	l574
  2530                           	line	149
  2531                           	
  2532  153E                     l576:	
  2533                           ;PR29.c: 149: else if (!RA3)
  2534  153E  1985               	btfsc	(43/8),(43)&7
  2535  153F  2D41               	goto	u5471
  2536  1540  2D42               	goto	u5470
  2537  1541                     u5471:
  2538  1541  2D4C               	goto	l574
  2539  1542                     u5470:
  2540  1542  2D44               	goto	l583
  2541                           	line	151
  2542                           	
  2543  1543                     l5622:	
  2544                           ;PR29.c: 150: {
  2545                           ;PR29.c: 151: while(!RA3);
  2546  1543  2D44               	goto	l583
  2547                           	
  2548  1544                     l584:	
  2549                           	
  2550  1544                     l583:	
  2551  1544  1D85               	btfss	(43/8),(43)&7
  2552  1545  2D47               	goto	u5481
  2553  1546  2D48               	goto	u5480
  2554  1547                     u5481:
  2555  1547  2D44               	goto	l583
  2556  1548                     u5480:
  2557                           	
  2558  1548                     l585:	
  2559                           	line	152
  2560                           ;PR29.c: 152: admin = 0;
  2561  1548  10D9               	bcf	(_admin/8),(_admin)&7
  2562                           	line	153
  2563                           ;PR29.c: 153: usertype_enter=1;
  2564  1549  17D9               	bsf	(_usertype_enter/8),(_usertype_enter)&7
  2565  154A  2D4C               	goto	l574
  2566                           	line	154
  2567                           	
  2568  154B                     l582:	
  2569  154B  2D4C               	goto	l574
  2570                           	line	155
  2571                           	
  2572  154C                     l581:	
  2573                           	
  2574  154C                     l574:	
  2575                           	line	133
  2576  154C  1283               	bcf	status, 5	;RP0=0, select bank0
  2577  154D  1303               	bcf	status, 6	;RP1=0, select bank0
  2578  154E  1FD9               	btfss	(_usertype_enter/8),(_usertype_enter)&7
  2579  154F  2D51               	goto	u5491
  2580  1550  2D52               	goto	u5490
  2581  1551                     u5491:
  2582  1551  2D04               	goto	l5606
  2583  1552                     u5490:
  2584  1552  2D53               	goto	l5624
  2585                           	
  2586  1553                     l586:	
  2587                           	line	156
  2588                           	
  2589  1553                     l5624:	
  2590                           ;PR29.c: 154: }
  2591                           ;PR29.c: 155: }
  2592                           ;PR29.c: 156: lcd_clr();
  2593  1553  160A  158A  24EA   	fcall	_lcd_clr
              160A  118A         
  2594                           	line	159
  2595                           ;PR29.c: 159: while(mode_enter==0 && admin ==1 && usertype_enter==1)
  2596  1558  2E67               	goto	l5688
  2597                           	
  2598  1559                     l588:	
  2599                           	line	161
  2600                           ;PR29.c: 160: {
  2601                           ;PR29.c: 161: if((!RA2))
  2602  1559  1905               	btfsc	(42/8),(42)&7
  2603  155A  2D5C               	goto	u5501
  2604  155B  2D5D               	goto	u5500
  2605  155C                     u5501:
  2606  155C  2D74               	goto	l589
  2607  155D                     u5500:
  2608  155D  2D5F               	goto	l590
  2609                           	line	163
  2610                           	
  2611  155E                     l5626:	
  2612                           ;PR29.c: 162: {
  2613                           ;PR29.c: 163: while((!RA2));
  2614  155E  2D5F               	goto	l590
  2615                           	
  2616  155F                     l591:	
  2617                           	
  2618  155F                     l590:	
  2619  155F  1D05               	btfss	(42/8),(42)&7
  2620  1560  2D62               	goto	u5511
  2621  1561  2D63               	goto	u5510
  2622  1562                     u5511:
  2623  1562  2D5F               	goto	l590
  2624  1563                     u5510:
  2625  1563  2D64               	goto	l5628
  2626                           	
  2627  1564                     l592:	
  2628                           	line	164
  2629                           	
  2630  1564                     l5628:	
  2631                           ;PR29.c: 164: if (mode_count<8)
  2632  1564  3008               	movlw	(08h)
  2633  1565  025D               	subwf	(_mode_count),w
  2634  1566  1803               	skipnc
  2635  1567  2D69               	goto	u5521
  2636  1568  2D6A               	goto	u5520
  2637  1569                     u5521:
  2638  1569  2D6F               	goto	l5632
  2639  156A                     u5520:
  2640                           	line	165
  2641                           	
  2642  156A                     l5630:	
  2643                           ;PR29.c: 165: mode_count++;
  2644  156A  3001               	movlw	(01h)
  2645  156B  00CD               	movwf	(??_main+0)+0
  2646  156C  084D               	movf	(??_main+0)+0,w
  2647  156D  07DD               	addwf	(_mode_count),f
  2648  156E  2D9C               	goto	l5644
  2649                           	line	166
  2650                           	
  2651  156F                     l593:	
  2652                           	line	167
  2653                           	
  2654  156F                     l5632:	
  2655                           ;PR29.c: 166: else
  2656                           ;PR29.c: 167: mode_count=1;
  2657  156F  01DD               	clrf	(_mode_count)
  2658  1570  1403               	bsf	status,0
  2659  1571  0DDD               	rlf	(_mode_count),f
  2660  1572  2D9C               	goto	l5644
  2661                           	
  2662  1573                     l594:	
  2663                           	line	168
  2664                           ;PR29.c: 168: }
  2665  1573  2D9C               	goto	l5644
  2666                           	line	169
  2667                           	
  2668  1574                     l589:	
  2669                           ;PR29.c: 169: else if((!RA3))
  2670  1574  1985               	btfsc	(43/8),(43)&7
  2671  1575  2D77               	goto	u5531
  2672  1576  2D78               	goto	u5530
  2673  1577                     u5531:
  2674  1577  2D8E               	goto	l596
  2675  1578                     u5530:
  2676  1578  2D7A               	goto	l597
  2677                           	line	171
  2678                           	
  2679  1579                     l5634:	
  2680                           ;PR29.c: 170: {
  2681                           ;PR29.c: 171: while((!RA3));
  2682  1579  2D7A               	goto	l597
  2683                           	
  2684  157A                     l598:	
  2685                           	
  2686  157A                     l597:	
  2687  157A  1D85               	btfss	(43/8),(43)&7
  2688  157B  2D7D               	goto	u5541
  2689  157C  2D7E               	goto	u5540
  2690  157D                     u5541:
  2691  157D  2D7A               	goto	l597
  2692  157E                     u5540:
  2693  157E  2D7F               	goto	l5636
  2694                           	
  2695  157F                     l599:	
  2696                           	line	172
  2697                           	
  2698  157F                     l5636:	
  2699                           ;PR29.c: 172: if (mode_count>1)
  2700  157F  3002               	movlw	(02h)
  2701  1580  025D               	subwf	(_mode_count),w
  2702  1581  1C03               	skipc
  2703  1582  2D84               	goto	u5551
  2704  1583  2D85               	goto	u5550
  2705  1584                     u5551:
  2706  1584  2D88               	goto	l5640
  2707  1585                     u5550:
  2708                           	line	173
  2709                           	
  2710  1585                     l5638:	
  2711                           ;PR29.c: 173: mode_count--;
  2712  1585  3001               	movlw	low(01h)
  2713  1586  02DD               	subwf	(_mode_count),f
  2714  1587  2D9C               	goto	l5644
  2715                           	line	174
  2716                           	
  2717  1588                     l600:	
  2718                           	line	175
  2719                           	
  2720  1588                     l5640:	
  2721                           ;PR29.c: 174: else
  2722                           ;PR29.c: 175: mode_count=8;
  2723  1588  3008               	movlw	(08h)
  2724  1589  00CD               	movwf	(??_main+0)+0
  2725  158A  084D               	movf	(??_main+0)+0,w
  2726  158B  00DD               	movwf	(_mode_count)
  2727  158C  2D9C               	goto	l5644
  2728                           	
  2729  158D                     l601:	
  2730                           	line	176
  2731                           ;PR29.c: 176: }
  2732  158D  2D9C               	goto	l5644
  2733                           	line	177
  2734                           	
  2735  158E                     l596:	
  2736                           ;PR29.c: 177: else if(!RA4)
  2737  158E  1A05               	btfsc	(44/8),(44)&7
  2738  158F  2D91               	goto	u5561
  2739  1590  2D92               	goto	u5560
  2740  1591                     u5561:
  2741  1591  2D9C               	goto	l5644
  2742  1592                     u5560:
  2743  1592  2D94               	goto	l604
  2744                           	line	179
  2745                           	
  2746  1593                     l5642:	
  2747                           ;PR29.c: 178: {
  2748                           ;PR29.c: 179: while(!RA4);
  2749  1593  2D94               	goto	l604
  2750                           	
  2751  1594                     l605:	
  2752                           	
  2753  1594                     l604:	
  2754  1594  1E05               	btfss	(44/8),(44)&7
  2755  1595  2D97               	goto	u5571
  2756  1596  2D98               	goto	u5570
  2757  1597                     u5571:
  2758  1597  2D94               	goto	l604
  2759  1598                     u5570:
  2760                           	
  2761  1598                     l606:	
  2762                           	line	180
  2763                           ;PR29.c: 180: mode_enter=1;
  2764  1598  1759               	bsf	(_mode_enter/8),(_mode_enter)&7
  2765  1599  2D9C               	goto	l5644
  2766                           	line	181
  2767                           	
  2768  159A                     l603:	
  2769  159A  2D9C               	goto	l5644
  2770                           	line	182
  2771                           	
  2772  159B                     l602:	
  2773  159B  2D9C               	goto	l5644
  2774                           	
  2775  159C                     l595:	
  2776                           	
  2777  159C                     l5644:	
  2778                           ;PR29.c: 181: }
  2779                           ;PR29.c: 182: lcd_goto(0);
  2780  159C  3000               	movlw	(0)
  2781  159D  120A  158A  2004   	fcall	_lcd_goto
              160A  118A         
  2782                           	line	183
  2783                           	
  2784  15A2                     l5646:	
  2785                           ;PR29.c: 183: send_string("Mode= ");
  2786  15A2  3097               	movlw	low(STR_5|8000h)
  2787  15A3  00F9               	movwf	(?_send_string)
  2788  15A4  309A               	movlw	high(STR_5|8000h)
  2789  15A5  00FA               	movwf	((?_send_string))+1
  2790  15A6  160A  158A  25FD   	fcall	_send_string
              160A  118A         
  2791                           	line	184
  2792                           	
  2793  15AB                     l5648:	
  2794                           ;PR29.c: 184: lcd_goto(6);
  2795  15AB  3006               	movlw	(06h)
  2796  15AC  120A  158A  2004   	fcall	_lcd_goto
              160A  118A         
  2797                           	line	185
  2798                           	
  2799  15B1                     l5650:	
  2800                           ;PR29.c: 185: send_char(0x30+mode_count);
  2801  15B1  1283               	bcf	status, 5	;RP0=0, select bank0
  2802  15B2  1303               	bcf	status, 6	;RP1=0, select bank0
  2803  15B3  085D               	movf	(_mode_count),w
  2804  15B4  3E30               	addlw	030h
  2805  15B5  160A  158A  2580   	fcall	_send_char
              160A  118A         
  2806                           	line	186
  2807                           	
  2808  15BA                     l5652:	
  2809                           ;PR29.c: 186: lcd_goto(7);
  2810  15BA  3007               	movlw	(07h)
  2811  15BB  120A  158A  2004   	fcall	_lcd_goto
              160A  118A         
  2812                           	line	187
  2813                           ;PR29.c: 187: send_string("/8");
  2814  15C0  30B4               	movlw	low(STR_6|8000h)
  2815  15C1  00F9               	movwf	(?_send_string)
  2816  15C2  309A               	movlw	high(STR_6|8000h)
  2817  15C3  00FA               	movwf	((?_send_string))+1
  2818  15C4  160A  158A  25FD   	fcall	_send_string
              160A  118A         
  2819                           	line	188
  2820                           	
  2821  15C9                     l5654:	
  2822                           ;PR29.c: 188: lcd_goto(20);
  2823  15C9  3014               	movlw	(014h)
  2824  15CA  120A  158A  2004   	fcall	_lcd_goto
              160A  118A         
  2825                           	line	189
  2826                           	
  2827  15CF                     l5656:	
  2828                           ;PR29.c: 189: if (mode_count==1) send_string("Set Day         ");
  2829  15CF  1283               	bcf	status, 5	;RP0=0, select bank0
  2830  15D0  1303               	bcf	status, 6	;RP1=0, select bank0
  2831  15D1  085D               	movf	(_mode_count),w
  2832  15D2  3A01               	xorlw	01h
  2833  15D3  1D03               	skipz
  2834  15D4  2DD6               	goto	u5581
  2835  15D5  2DD7               	goto	u5580
  2836  15D6                     u5581:
  2837  15D6  2DE1               	goto	l5660
  2838  15D7                     u5580:
  2839                           	
  2840  15D7                     l5658:	
  2841  15D7  3046               	movlw	low(STR_7|8000h)
  2842  15D8  00F9               	movwf	(?_send_string)
  2843  15D9  3098               	movlw	high(STR_7|8000h)
  2844  15DA  00FA               	movwf	((?_send_string))+1
  2845  15DB  160A  158A  25FD   	fcall	_send_string
              160A  118A         
  2846  15E0  2E67               	goto	l5688
  2847                           	line	190
  2848                           	
  2849  15E1                     l607:	
  2850                           	
  2851  15E1                     l5660:	
  2852                           ;PR29.c: 190: else if (mode_count==2) send_string("Add a New Data  ");
  2853  15E1  1283               	bcf	status, 5	;RP0=0, select bank0
  2854  15E2  1303               	bcf	status, 6	;RP1=0, select bank0
  2855  15E3  085D               	movf	(_mode_count),w
  2856  15E4  3A02               	xorlw	02h
  2857  15E5  1D03               	skipz
  2858  15E6  2DE8               	goto	u5591
  2859  15E7  2DE9               	goto	u5590
  2860  15E8                     u5591:
  2861  15E8  2DF3               	goto	l5664
  2862  15E9                     u5590:
  2863                           	
  2864  15E9                     l5662:	
  2865  15E9  3012               	movlw	low(STR_8|8000h)
  2866  15EA  00F9               	movwf	(?_send_string)
  2867  15EB  3099               	movlw	high(STR_8|8000h)
  2868  15EC  00FA               	movwf	((?_send_string))+1
  2869  15ED  160A  158A  25FD   	fcall	_send_string
              160A  118A         
  2870  15F2  2E67               	goto	l5688
  2871                           	line	191
  2872                           	
  2873  15F3                     l609:	
  2874                           	
  2875  15F3                     l5664:	
  2876                           ;PR29.c: 191: else if (mode_count==3) send_string("Delete a Data   ");
  2877  15F3  1283               	bcf	status, 5	;RP0=0, select bank0
  2878  15F4  1303               	bcf	status, 6	;RP1=0, select bank0
  2879  15F5  085D               	movf	(_mode_count),w
  2880  15F6  3A03               	xorlw	03h
  2881  15F7  1D03               	skipz
  2882  15F8  2DFA               	goto	u5601
  2883  15F9  2DFB               	goto	u5600
  2884  15FA                     u5601:
  2885  15FA  2E05               	goto	l5668
  2886  15FB                     u5600:
  2887                           	
  2888  15FB                     l5666:	
  2889  15FB  30F0               	movlw	low(STR_9|8000h)
  2890  15FC  00F9               	movwf	(?_send_string)
  2891  15FD  3098               	movlw	high(STR_9|8000h)
  2892  15FE  00FA               	movwf	((?_send_string))+1
  2893  15FF  160A  158A  25FD   	fcall	_send_string
              160A  118A         
  2894  1604  2E67               	goto	l5688
  2895                           	line	192
  2896                           	
  2897  1605                     l611:	
  2898                           	
  2899  1605                     l5668:	
  2900                           ;PR29.c: 192: else if (mode_count==4) send_string("Delete All Data ");
  2901  1605  1283               	bcf	status, 5	;RP0=0, select bank0
  2902  1606  1303               	bcf	status, 6	;RP1=0, select bank0
  2903  1607  085D               	movf	(_mode_count),w
  2904  1608  3A04               	xorlw	04h
  2905  1609  1D03               	skipz
  2906  160A  2E0C               	goto	u5611
  2907  160B  2E0D               	goto	u5610
  2908  160C                     u5611:
  2909  160C  2E17               	goto	l5672
  2910  160D                     u5610:
  2911                           	
  2912  160D                     l5670:	
  2913  160D  3056               	movlw	low(STR_10|8000h)
  2914  160E  00F9               	movwf	(?_send_string)
  2915  160F  3099               	movlw	high(STR_10|8000h)
  2916  1610  00FA               	movwf	((?_send_string))+1
  2917  1611  160A  158A  25FD   	fcall	_send_string
              160A  118A         
  2918  1616  2E67               	goto	l5688
  2919                           	line	193
  2920                           	
  2921  1617                     l613:	
  2922                           	
  2923  1617                     l5672:	
  2924                           ;PR29.c: 193: else if (mode_count==5) send_string("Change Admin    ");
  2925  1617  1283               	bcf	status, 5	;RP0=0, select bank0
  2926  1618  1303               	bcf	status, 6	;RP1=0, select bank0
  2927  1619  085D               	movf	(_mode_count),w
  2928  161A  3A05               	xorlw	05h
  2929  161B  1D03               	skipz
  2930  161C  2E1E               	goto	u5621
  2931  161D  2E1F               	goto	u5620
  2932  161E                     u5621:
  2933  161E  2E29               	goto	l5676
  2934  161F                     u5620:
  2935                           	
  2936  161F                     l5674:	
  2937  161F  30CE               	movlw	low(STR_11|8000h)
  2938  1620  00F9               	movwf	(?_send_string)
  2939  1621  3098               	movlw	high(STR_11|8000h)
  2940  1622  00FA               	movwf	((?_send_string))+1
  2941  1623  160A  158A  25FD   	fcall	_send_string
              160A  118A         
  2942  1628  2E67               	goto	l5688
  2943                           	line	194
  2944                           	
  2945  1629                     l615:	
  2946                           	
  2947  1629                     l5676:	
  2948                           ;PR29.c: 194: else if (mode_count==6) send_string("View Attendance ");
  2949  1629  1283               	bcf	status, 5	;RP0=0, select bank0
  2950  162A  1303               	bcf	status, 6	;RP1=0, select bank0
  2951  162B  085D               	movf	(_mode_count),w
  2952  162C  3A06               	xorlw	06h
  2953  162D  1D03               	skipz
  2954  162E  2E30               	goto	u5631
  2955  162F  2E31               	goto	u5630
  2956  1630                     u5631:
  2957  1630  2E3B               	goto	l5680
  2958  1631                     u5630:
  2959                           	
  2960  1631                     l5678:	
  2961  1631  3067               	movlw	low(STR_12|8000h)
  2962  1632  00F9               	movwf	(?_send_string)
  2963  1633  3099               	movlw	high(STR_12|8000h)
  2964  1634  00FA               	movwf	((?_send_string))+1
  2965  1635  160A  158A  25FD   	fcall	_send_string
              160A  118A         
  2966  163A  2E67               	goto	l5688
  2967                           	line	195
  2968                           	
  2969  163B                     l617:	
  2970                           	
  2971  163B                     l5680:	
  2972                           ;PR29.c: 195: else if (mode_count==7) send_string("Clear Attendance");
  2973  163B  1283               	bcf	status, 5	;RP0=0, select bank0
  2974  163C  1303               	bcf	status, 6	;RP1=0, select bank0
  2975  163D  085D               	movf	(_mode_count),w
  2976  163E  3A07               	xorlw	07h
  2977  163F  1D03               	skipz
  2978  1640  2E42               	goto	u5641
  2979  1641  2E43               	goto	u5640
  2980  1642                     u5641:
  2981  1642  2E4D               	goto	l5684
  2982  1643                     u5640:
  2983                           	
  2984  1643                     l5682:	
  2985  1643  30EF               	movlw	low(STR_13|8000h)
  2986  1644  00F9               	movwf	(?_send_string)
  2987  1645  3099               	movlw	high(STR_13|8000h)
  2988  1646  00FA               	movwf	((?_send_string))+1
  2989  1647  160A  158A  25FD   	fcall	_send_string
              160A  118A         
  2990  164C  2E67               	goto	l5688
  2991                           	line	196
  2992                           	
  2993  164D                     l619:	
  2994                           	
  2995  164D                     l5684:	
  2996                           ;PR29.c: 196: else if (mode_count==8) send_string("Export          ");
  2997  164D  1283               	bcf	status, 5	;RP0=0, select bank0
  2998  164E  1303               	bcf	status, 6	;RP1=0, select bank0
  2999  164F  085D               	movf	(_mode_count),w
  3000  1650  3A08               	xorlw	08h
  3001  1651  1D03               	skipz
  3002  1652  2E54               	goto	u5651
  3003  1653  2E55               	goto	u5650
  3004  1654                     u5651:
  3005  1654  2E67               	goto	l5688
  3006  1655                     u5650:
  3007                           	
  3008  1655                     l5686:	
  3009  1655  3024               	movlw	low(STR_14|8000h)
  3010  1656  00F9               	movwf	(?_send_string)
  3011  1657  3098               	movlw	high(STR_14|8000h)
  3012  1658  00FA               	movwf	((?_send_string))+1
  3013  1659  160A  158A  25FD   	fcall	_send_string
              160A  118A         
  3014  165E  2E67               	goto	l5688
  3015                           	
  3016  165F                     l621:	
  3017  165F  2E67               	goto	l5688
  3018                           	line	197
  3019                           	
  3020  1660                     l620:	
  3021  1660  2E67               	goto	l5688
  3022                           	
  3023  1661                     l618:	
  3024  1661  2E67               	goto	l5688
  3025                           	
  3026  1662                     l616:	
  3027  1662  2E67               	goto	l5688
  3028                           	
  3029  1663                     l614:	
  3030  1663  2E67               	goto	l5688
  3031                           	
  3032  1664                     l612:	
  3033  1664  2E67               	goto	l5688
  3034                           	
  3035  1665                     l610:	
  3036  1665  2E67               	goto	l5688
  3037                           	
  3038  1666                     l608:	
  3039  1666  2E67               	goto	l5688
  3040                           	
  3041  1667                     l587:	
  3042                           	line	159
  3043                           	
  3044  1667                     l5688:	
  3045  1667  1283               	bcf	status, 5	;RP0=0, select bank0
  3046  1668  1303               	bcf	status, 6	;RP1=0, select bank0
  3047  1669  1B59               	btfsc	(_mode_enter/8),(_mode_enter)&7
  3048  166A  2E6C               	goto	u5661
  3049  166B  2E6D               	goto	u5660
  3050  166C                     u5661:
  3051  166C  2FD1               	goto	l625
  3052  166D                     u5660:
  3053                           	
  3054  166D                     l5690:	
  3055  166D  1CD9               	btfss	(_admin/8),(_admin)&7
  3056  166E  2E70               	goto	u5671
  3057  166F  2E71               	goto	u5670
  3058  1670                     u5671:
  3059  1670  2FD1               	goto	l625
  3060  1671                     u5670:
  3061                           	
  3062  1671                     l5692:	
  3063  1671  1BD9               	btfsc	(_usertype_enter/8),(_usertype_enter)&7
  3064  1672  2E74               	goto	u5681
  3065  1673  2E75               	goto	u5680
  3066  1674                     u5681:
  3067  1674  2D59               	goto	l588
  3068  1675                     u5680:
  3069  1675  2FD1               	goto	l625
  3070                           	
  3071  1676                     l623:	
  3072  1676  2FD1               	goto	l625
  3073                           	
  3074  1677                     l624:	
  3075                           	line	199
  3076                           ;PR29.c: 197: }
  3077                           ;PR29.c: 199: while(mode_enter==0 && admin ==0 && usertype_enter==1)
  3078  1677  2FD1               	goto	l625
  3079                           	
  3080  1678                     l626:	
  3081  1678  2E79               	goto	l5694
  3082                           	line	201
  3083                           ;PR29.c: 200: {
  3084                           ;PR29.c: 201: while(1)
  3085                           	
  3086  1679                     l627:	
  3087                           	line	203
  3088                           	
  3089  1679                     l5694:	
  3090                           ;PR29.c: 202: {
  3091                           ;PR29.c: 203: lcd_goto(0);
  3092  1679  3000               	movlw	(0)
  3093  167A  120A  158A  2004   	fcall	_lcd_goto
              160A  118A         
  3094                           	line	204
  3095                           	
  3096  167F                     l5696:	
  3097                           ;PR29.c: 204: send_string("Today is Day ");
  3098  167F  3010               	movlw	low(STR_15|8000h)
  3099  1680  00F9               	movwf	(?_send_string)
  3100  1681  309A               	movlw	high(STR_15|8000h)
  3101  1682  00FA               	movwf	((?_send_string))+1
  3102  1683  160A  158A  25FD   	fcall	_send_string
              160A  118A         
  3103                           	line	205
  3104                           	
  3105  1688                     l5698:	
  3106                           ;PR29.c: 205: lcd_goto(13);
  3107  1688  300D               	movlw	(0Dh)
  3108  1689  120A  158A  2004   	fcall	_lcd_goto
              160A  118A         
  3109                           	line	206
  3110                           	
  3111  168E                     l5700:	
  3112                           ;PR29.c: 206: DAY=get_eeprom(0xff);
  3113  168E  30FF               	movlw	(0FFh)
  3114  168F  160A  158A  24FE   	fcall	_get_eeprom
              160A  118A         
  3115  1694  1283               	bcf	status, 5	;RP0=0, select bank0
  3116  1695  1303               	bcf	status, 6	;RP1=0, select bank0
  3117  1696  00CD               	movwf	(??_main+0)+0
  3118  1697  084D               	movf	(??_main+0)+0,w
  3119  1698  00DA               	movwf	(_DAY)
  3120                           	line	207
  3121                           	
  3122  1699                     l5702:	
  3123                           ;PR29.c: 207: send_char(0x30+DAY);
  3124  1699  085A               	movf	(_DAY),w
  3125  169A  3E30               	addlw	030h
  3126  169B  160A  158A  2580   	fcall	_send_char
              160A  118A         
  3127                           	line	208
  3128                           	
  3129  16A0                     l5704:	
  3130                           ;PR29.c: 208: lcd_goto(20);
  3131  16A0  3014               	movlw	(014h)
  3132  16A1  120A  158A  2004   	fcall	_lcd_goto
              160A  118A         
  3133                           	line	209
  3134                           	
  3135  16A6                     l5706:	
  3136                           ;PR29.c: 209: send_string("Press 3 to mark ");
  3137  16A6  3089               	movlw	low(STR_16|8000h)
  3138  16A7  00F9               	movwf	(?_send_string)
  3139  16A8  3099               	movlw	high(STR_16|8000h)
  3140  16A9  00FA               	movwf	((?_send_string))+1
  3141  16AA  160A  158A  25FD   	fcall	_send_string
              160A  118A         
  3142                           	line	210
  3143                           	
  3144  16AF                     l5708:	
  3145                           ;PR29.c: 210: if(!RA4)
  3146  16AF  1283               	bcf	status, 5	;RP0=0, select bank0
  3147  16B0  1303               	bcf	status, 6	;RP1=0, select bank0
  3148  16B1  1A05               	btfsc	(44/8),(44)&7
  3149  16B2  2EB4               	goto	u5691
  3150  16B3  2EB5               	goto	u5690
  3151  16B4                     u5691:
  3152  16B4  2E79               	goto	l5694
  3153  16B5                     u5690:
  3154  16B5  2EB7               	goto	l629
  3155                           	line	212
  3156                           	
  3157  16B6                     l5710:	
  3158                           ;PR29.c: 211: {
  3159                           ;PR29.c: 212: while(!RA4);
  3160  16B6  2EB7               	goto	l629
  3161                           	
  3162  16B7                     l630:	
  3163                           	
  3164  16B7                     l629:	
  3165  16B7  1E05               	btfss	(44/8),(44)&7
  3166  16B8  2EBA               	goto	u5701
  3167  16B9  2EBB               	goto	u5700
  3168  16BA                     u5701:
  3169  16BA  2EB7               	goto	l629
  3170  16BB                     u5700:
  3171  16BB  2EBC               	goto	l5712
  3172                           	
  3173  16BC                     l631:	
  3174                           	line	214
  3175                           	
  3176  16BC                     l5712:	
  3177                           ;PR29.c: 214: send_cmd(0x0c,0x00,0x00,0x00);
  3178  16BC  1003               	clrc
  3179  16BD  3000               	movlw	0
  3180  16BE  1803               	btfsc	status,0
  3181  16BF  3001               	movlw	1
  3182  16C0  00F1               	movwf	(?_send_cmd)
  3183  16C1  1003               	clrc
  3184  16C2  3000               	movlw	0
  3185  16C3  1803               	btfsc	status,0
  3186  16C4  3001               	movlw	1
  3187  16C5  00F2               	movwf	0+(?_send_cmd)+01h
  3188  16C6  1003               	clrc
  3189  16C7  3000               	movlw	0
  3190  16C8  1803               	btfsc	status,0
  3191  16C9  3001               	movlw	1
  3192  16CA  00F3               	movwf	0+(?_send_cmd)+02h
  3193  16CB  300C               	movlw	(0Ch)
  3194  16CC  160A  158A  266C   	fcall	_send_cmd
              160A  118A         
  3195                           	line	215
  3196                           ;PR29.c: 215: lcd_clr();
  3197  16D1  160A  158A  24EA   	fcall	_lcd_clr
              160A  118A         
  3198                           	line	216
  3199                           ;PR29.c: 216: lcd_goto(0);
  3200  16D6  3000               	movlw	(0)
  3201  16D7  120A  158A  2004   	fcall	_lcd_goto
              160A  118A         
  3202                           	line	217
  3203                           	
  3204  16DC                     l5714:	
  3205                           ;PR29.c: 217: send_string("Place your thumb");
  3206  16DC  30CD               	movlw	low(STR_17|8000h)
  3207  16DD  00F9               	movwf	(?_send_string)
  3208  16DE  3099               	movlw	high(STR_17|8000h)
  3209  16DF  00FA               	movwf	((?_send_string))+1
  3210  16E0  160A  158A  25FD   	fcall	_send_string
              160A  118A         
  3211                           	line	218
  3212                           	
  3213  16E5                     l5716:	
  3214                           ;PR29.c: 218: lcd_goto(20);
  3215  16E5  3014               	movlw	(014h)
  3216  16E6  120A  158A  2004   	fcall	_lcd_goto
              160A  118A         
  3217                           	line	219
  3218                           ;PR29.c: 219: send_string("on the window");
  3219  16EB  302C               	movlw	low(STR_18|8000h)
  3220  16EC  00F9               	movwf	(?_send_string)
  3221  16ED  309A               	movlw	high(STR_18|8000h)
  3222  16EE  00FA               	movwf	((?_send_string))+1
  3223  16EF  160A  158A  25FD   	fcall	_send_string
              160A  118A         
  3224                           	line	220
  3225                           	
  3226  16F4                     l5718:	
  3227                           ;PR29.c: 220: delay(100);
  3228  16F4  3000               	movlw	0
  3229  16F5  00F3               	movwf	(?_delay+3)
  3230  16F6  3000               	movlw	0
  3231  16F7  00F2               	movwf	(?_delay+2)
  3232  16F8  3000               	movlw	0
  3233  16F9  00F1               	movwf	(?_delay+1)
  3234  16FA  3064               	movlw	064h
  3235  16FB  00F0               	movwf	(?_delay)
  3236                           
  3237  16FC  160A  158A  25CD   	fcall	_delay
              160A  118A         
  3238                           	line	221
  3239                           	
  3240  1701                     l5720:	
  3241                           ;PR29.c: 221: receive_reply();
  3242  1701  160A  158A  26A5   	fcall	_receive_reply
              160A  118A         
  3243                           	line	223
  3244                           	
  3245  1706                     l5722:	
  3246                           ;PR29.c: 223: if(!error)
  3247  1706  1283               	bcf	status, 5	;RP0=0, select bank0
  3248  1707  1303               	bcf	status, 6	;RP1=0, select bank0
  3249  1708  19D9               	btfsc	(_error/8),(_error)&7
  3250  1709  2F0B               	goto	u5711
  3251  170A  2F0C               	goto	u5710
  3252  170B                     u5711:
  3253  170B  2E79               	goto	l5694
  3254  170C                     u5710:
  3255                           	line	225
  3256                           	
  3257  170C                     l5724:	
  3258                           ;PR29.c: 224: {
  3259                           ;PR29.c: 225: if(DAY==1)
  3260  170C  085A               	movf	(_DAY),w
  3261  170D  3A01               	xorlw	01h
  3262  170E  1D03               	skipz
  3263  170F  2F11               	goto	u5721
  3264  1710  2F12               	goto	u5720
  3265  1711                     u5721:
  3266  1711  2F31               	goto	l5732
  3267  1712                     u5720:
  3268                           	line	226
  3269                           	
  3270  1712                     l5726:	
  3271                           ;PR29.c: 226: { day_location=0x00;
  3272  1712  1003               	clrc
  3273  1713  3000               	movlw	0
  3274  1714  1803               	btfsc	status,0
  3275  1715  3001               	movlw	1
  3276  1716  00D7               	movwf	(_day_location)
  3277                           	line	227
  3278                           	
  3279  1717                     l5728:	
  3280                           ;PR29.c: 227: store_eeprom(0x2f,day_location+3+array_resp[3]);
  3281  1717  0857               	movf	(_day_location),w
  3282  1718  0751               	addwf	0+(_array_resp)+03h,w
  3283  1719  3E03               	addlw	03h
  3284  171A  00CD               	movwf	(??_main+0)+0
  3285  171B  084D               	movf	(??_main+0)+0,w
  3286  171C  00F0               	movwf	(?_store_eeprom)
  3287  171D  302F               	movlw	(02Fh)
  3288  171E  160A  158A  2633   	fcall	_store_eeprom
              160A  118A         
  3289                           	line	228
  3290                           	
  3291  1723                     l5730:	
  3292                           ;PR29.c: 228: delay(100);
  3293  1723  3000               	movlw	0
  3294  1724  00F3               	movwf	(?_delay+3)
  3295  1725  3000               	movlw	0
  3296  1726  00F2               	movwf	(?_delay+2)
  3297  1727  3000               	movlw	0
  3298  1728  00F1               	movwf	(?_delay+1)
  3299  1729  3064               	movlw	064h
  3300  172A  00F0               	movwf	(?_delay)
  3301                           
  3302  172B  160A  158A  25CD   	fcall	_delay
              160A  118A         
  3303                           	line	229
  3304                           ;PR29.c: 229: }
  3305  1730  2E79               	goto	l5694
  3306                           	line	230
  3307                           	
  3308  1731                     l633:	
  3309                           	
  3310  1731                     l5732:	
  3311                           ;PR29.c: 230: else if(DAY==2)
  3312  1731  1283               	bcf	status, 5	;RP0=0, select bank0
  3313  1732  1303               	bcf	status, 6	;RP1=0, select bank0
  3314  1733  085A               	movf	(_DAY),w
  3315  1734  3A02               	xorlw	02h
  3316  1735  1D03               	skipz
  3317  1736  2F38               	goto	u5731
  3318  1737  2F39               	goto	u5730
  3319  1738                     u5731:
  3320  1738  2F57               	goto	l5740
  3321  1739                     u5730:
  3322                           	line	231
  3323                           	
  3324  1739                     l5734:	
  3325                           ;PR29.c: 231: { day_location=0x10;
  3326  1739  3010               	movlw	(010h)
  3327  173A  00CD               	movwf	(??_main+0)+0
  3328  173B  084D               	movf	(??_main+0)+0,w
  3329  173C  00D7               	movwf	(_day_location)
  3330                           	line	232
  3331                           	
  3332  173D                     l5736:	
  3333                           ;PR29.c: 232: store_eeprom(0x2f,day_location+3+array_resp[3]);
  3334  173D  0857               	movf	(_day_location),w
  3335  173E  0751               	addwf	0+(_array_resp)+03h,w
  3336  173F  3E03               	addlw	03h
  3337  1740  00CD               	movwf	(??_main+0)+0
  3338  1741  084D               	movf	(??_main+0)+0,w
  3339  1742  00F0               	movwf	(?_store_eeprom)
  3340  1743  302F               	movlw	(02Fh)
  3341  1744  160A  158A  2633   	fcall	_store_eeprom
              160A  118A         
  3342                           	line	233
  3343                           	
  3344  1749                     l5738:	
  3345                           ;PR29.c: 233: delay(100);
  3346  1749  3000               	movlw	0
  3347  174A  00F3               	movwf	(?_delay+3)
  3348  174B  3000               	movlw	0
  3349  174C  00F2               	movwf	(?_delay+2)
  3350  174D  3000               	movlw	0
  3351  174E  00F1               	movwf	(?_delay+1)
  3352  174F  3064               	movlw	064h
  3353  1750  00F0               	movwf	(?_delay)
  3354                           
  3355  1751  160A  158A  25CD   	fcall	_delay
              160A  118A         
  3356                           	line	234
  3357                           ;PR29.c: 234: }
  3358  1756  2E79               	goto	l5694
  3359                           	line	235
  3360                           	
  3361  1757                     l635:	
  3362                           	
  3363  1757                     l5740:	
  3364                           ;PR29.c: 235: else if(DAY==3)
  3365  1757  1283               	bcf	status, 5	;RP0=0, select bank0
  3366  1758  1303               	bcf	status, 6	;RP1=0, select bank0
  3367  1759  085A               	movf	(_DAY),w
  3368  175A  3A03               	xorlw	03h
  3369  175B  1D03               	skipz
  3370  175C  2F5E               	goto	u5741
  3371  175D  2F5F               	goto	u5740
  3372  175E                     u5741:
  3373  175E  2F7D               	goto	l5748
  3374  175F                     u5740:
  3375                           	line	236
  3376                           	
  3377  175F                     l5742:	
  3378                           ;PR29.c: 236: { day_location=0x20;
  3379  175F  3020               	movlw	(020h)
  3380  1760  00CD               	movwf	(??_main+0)+0
  3381  1761  084D               	movf	(??_main+0)+0,w
  3382  1762  00D7               	movwf	(_day_location)
  3383                           	line	237
  3384                           	
  3385  1763                     l5744:	
  3386                           ;PR29.c: 237: store_eeprom(0x2f,day_location+3+array_resp[3]);
  3387  1763  0857               	movf	(_day_location),w
  3388  1764  0751               	addwf	0+(_array_resp)+03h,w
  3389  1765  3E03               	addlw	03h
  3390  1766  00CD               	movwf	(??_main+0)+0
  3391  1767  084D               	movf	(??_main+0)+0,w
  3392  1768  00F0               	movwf	(?_store_eeprom)
  3393  1769  302F               	movlw	(02Fh)
  3394  176A  160A  158A  2633   	fcall	_store_eeprom
              160A  118A         
  3395                           	line	238
  3396                           	
  3397  176F                     l5746:	
  3398                           ;PR29.c: 238: delay(100);
  3399  176F  3000               	movlw	0
  3400  1770  00F3               	movwf	(?_delay+3)
  3401  1771  3000               	movlw	0
  3402  1772  00F2               	movwf	(?_delay+2)
  3403  1773  3000               	movlw	0
  3404  1774  00F1               	movwf	(?_delay+1)
  3405  1775  3064               	movlw	064h
  3406  1776  00F0               	movwf	(?_delay)
  3407                           
  3408  1777  160A  158A  25CD   	fcall	_delay
              160A  118A         
  3409                           	line	239
  3410                           ;PR29.c: 239: }
  3411  177C  2E79               	goto	l5694
  3412                           	line	240
  3413                           	
  3414  177D                     l637:	
  3415                           	
  3416  177D                     l5748:	
  3417                           ;PR29.c: 240: else if(DAY==4)
  3418  177D  1283               	bcf	status, 5	;RP0=0, select bank0
  3419  177E  1303               	bcf	status, 6	;RP1=0, select bank0
  3420  177F  085A               	movf	(_DAY),w
  3421  1780  3A04               	xorlw	04h
  3422  1781  1D03               	skipz
  3423  1782  2F84               	goto	u5751
  3424  1783  2F85               	goto	u5750
  3425  1784                     u5751:
  3426  1784  2FA3               	goto	l5756
  3427  1785                     u5750:
  3428                           	line	241
  3429                           	
  3430  1785                     l5750:	
  3431                           ;PR29.c: 241: { day_location=0x30;
  3432  1785  3030               	movlw	(030h)
  3433  1786  00CD               	movwf	(??_main+0)+0
  3434  1787  084D               	movf	(??_main+0)+0,w
  3435  1788  00D7               	movwf	(_day_location)
  3436                           	line	242
  3437                           	
  3438  1789                     l5752:	
  3439                           ;PR29.c: 242: store_eeprom(0x2f,day_location+3+array_resp[3]);
  3440  1789  0857               	movf	(_day_location),w
  3441  178A  0751               	addwf	0+(_array_resp)+03h,w
  3442  178B  3E03               	addlw	03h
  3443  178C  00CD               	movwf	(??_main+0)+0
  3444  178D  084D               	movf	(??_main+0)+0,w
  3445  178E  00F0               	movwf	(?_store_eeprom)
  3446  178F  302F               	movlw	(02Fh)
  3447  1790  160A  158A  2633   	fcall	_store_eeprom
              160A  118A         
  3448                           	line	243
  3449                           	
  3450  1795                     l5754:	
  3451                           ;PR29.c: 243: delay(100);
  3452  1795  3000               	movlw	0
  3453  1796  00F3               	movwf	(?_delay+3)
  3454  1797  3000               	movlw	0
  3455  1798  00F2               	movwf	(?_delay+2)
  3456  1799  3000               	movlw	0
  3457  179A  00F1               	movwf	(?_delay+1)
  3458  179B  3064               	movlw	064h
  3459  179C  00F0               	movwf	(?_delay)
  3460                           
  3461  179D  160A  158A  25CD   	fcall	_delay
              160A  118A         
  3462                           	line	244
  3463                           ;PR29.c: 244: }
  3464  17A2  2E79               	goto	l5694
  3465                           	line	245
  3466                           	
  3467  17A3                     l639:	
  3468                           	
  3469  17A3                     l5756:	
  3470                           ;PR29.c: 245: else if(DAY==5)
  3471  17A3  1283               	bcf	status, 5	;RP0=0, select bank0
  3472  17A4  1303               	bcf	status, 6	;RP1=0, select bank0
  3473  17A5  085A               	movf	(_DAY),w
  3474  17A6  3A05               	xorlw	05h
  3475  17A7  1D03               	skipz
  3476  17A8  2FAA               	goto	u5761
  3477  17A9  2FAB               	goto	u5760
  3478  17AA                     u5761:
  3479  17AA  2E79               	goto	l5694
  3480  17AB                     u5760:
  3481                           	line	246
  3482                           	
  3483  17AB                     l5758:	
  3484                           ;PR29.c: 246: { day_location=0x40;
  3485  17AB  3040               	movlw	(040h)
  3486  17AC  00CD               	movwf	(??_main+0)+0
  3487  17AD  084D               	movf	(??_main+0)+0,w
  3488  17AE  00D7               	movwf	(_day_location)
  3489                           	line	247
  3490                           	
  3491  17AF                     l5760:	
  3492                           ;PR29.c: 247: store_eeprom(0x2f,day_location+3+array_resp[3]);
  3493  17AF  0857               	movf	(_day_location),w
  3494  17B0  0751               	addwf	0+(_array_resp)+03h,w
  3495  17B1  3E03               	addlw	03h
  3496  17B2  00CD               	movwf	(??_main+0)+0
  3497  17B3  084D               	movf	(??_main+0)+0,w
  3498  17B4  00F0               	movwf	(?_store_eeprom)
  3499  17B5  302F               	movlw	(02Fh)
  3500  17B6  160A  158A  2633   	fcall	_store_eeprom
              160A  118A         
  3501                           	line	248
  3502                           	
  3503  17BB                     l5762:	
  3504                           ;PR29.c: 248: delay(100);
  3505  17BB  3000               	movlw	0
  3506  17BC  00F3               	movwf	(?_delay+3)
  3507  17BD  3000               	movlw	0
  3508  17BE  00F2               	movwf	(?_delay+2)
  3509  17BF  3000               	movlw	0
  3510  17C0  00F1               	movwf	(?_delay+1)
  3511  17C1  3064               	movlw	064h
  3512  17C2  00F0               	movwf	(?_delay)
  3513                           
  3514  17C3  160A  158A  25CD   	fcall	_delay
              160A  118A         
  3515  17C8  2E79               	goto	l5694
  3516                           	line	249
  3517                           	
  3518  17C9                     l641:	
  3519  17C9  2E79               	goto	l5694
  3520                           	line	251
  3521                           	
  3522  17CA                     l640:	
  3523  17CA  2E79               	goto	l5694
  3524                           	
  3525  17CB                     l638:	
  3526  17CB  2E79               	goto	l5694
  3527                           	
  3528  17CC                     l636:	
  3529  17CC  2E79               	goto	l5694
  3530                           	
  3531  17CD                     l634:	
  3532  17CD  2E79               	goto	l5694
  3533                           	
  3534  17CE                     l632:	
  3535  17CE  2E79               	goto	l5694
  3536                           	line	253
  3537                           	
  3538  17CF                     l628:	
  3539  17CF  2E79               	goto	l5694
  3540                           	line	254
  3541                           	
  3542  17D0                     l642:	
  3543                           	line	201
  3544  17D0  2E79               	goto	l5694
  3545                           	
  3546  17D1                     l643:	
  3547                           	line	256
  3548                           	
  3549  17D1                     l625:	
  3550                           	line	199
  3551  17D1  1283               	bcf	status, 5	;RP0=0, select bank0
  3552  17D2  1303               	bcf	status, 6	;RP1=0, select bank0
  3553  17D3  1B59               	btfsc	(_mode_enter/8),(_mode_enter)&7
  3554  17D4  2FD6               	goto	u5771
  3555  17D5  2FD7               	goto	u5770
  3556  17D6                     u5771:
  3557  17D6  2FE1               	goto	l5768
  3558  17D7                     u5770:
  3559                           	
  3560  17D7                     l5764:	
  3561  17D7  18D9               	btfsc	(_admin/8),(_admin)&7
  3562  17D8  2FDA               	goto	u5781
  3563  17D9  2FDB               	goto	u5780
  3564  17DA                     u5781:
  3565  17DA  2FE1               	goto	l5768
  3566  17DB                     u5780:
  3567                           	
  3568  17DB                     l5766:	
  3569  17DB  1BD9               	btfsc	(_usertype_enter/8),(_usertype_enter)&7
  3570  17DC  2FDE               	goto	u5791
  3571  17DD  2FDF               	goto	u5790
  3572  17DE                     u5791:
  3573  17DE  2E79               	goto	l5694
  3574  17DF                     u5790:
  3575  17DF  2FE1               	goto	l5768
  3576                           	
  3577  17E0                     l645:	
  3578  17E0  2FE1               	goto	l5768
  3579                           	
  3580  17E1                     l646:	
  3581                           	line	257
  3582                           	
  3583  17E1                     l5768:	
  3584                           ;PR29.c: 249: }
  3585                           ;PR29.c: 251: }
  3586                           ;PR29.c: 253: }
  3587                           ;PR29.c: 254: }
  3588                           ;PR29.c: 256: }
  3589                           ;PR29.c: 257: lcd_clr();
  3590  17E1  160A  158A  24EA   	fcall	_lcd_clr
              160A  118A         
  3591                           	line	258
  3592                           	
  3593  17E6                     l5770:	
  3594                           ;PR29.c: 258: mode(mode_count);
  3595  17E6  1283               	bcf	status, 5	;RP0=0, select bank0
  3596  17E7  1303               	bcf	status, 6	;RP1=0, select bank0
  3597  17E8  085D               	movf	(_mode_count),w
  3598  17E9  120A  118A  2319   	fcall	_mode
              160A  118A         
  3599                           	line	259
  3600                           	
  3601  17EE                     l5772:	
  3602                           ;PR29.c: 259: delay(10);
  3603  17EE  3000               	movlw	0
  3604  17EF  00F3               	movwf	(?_delay+3)
  3605  17F0  3000               	movlw	0
  3606  17F1  00F2               	movwf	(?_delay+2)
  3607  17F2  3000               	movlw	0
  3608  17F3  00F1               	movwf	(?_delay+1)
  3609  17F4  300A               	movlw	0Ah
  3610  17F5  00F0               	movwf	(?_delay)
  3611                           
  3612  17F6  160A  158A  25CD   	fcall	_delay
              160A  118A         
  3613  17FB  2D4C               	goto	l574
  3614                           	line	262
  3615                           	
  3616  17FC                     l647:	
  3617                           	line	131
  3618  17FC  2D4C               	goto	l574
  3619                           	
  3620  17FD                     l648:	
  3621                           	line	264
  3622                           	
  3623  17FD                     l649:	
  3624                           	global	start
  3625  17FD  120A  118A  2800   	ljmp	start
  3626                           	opt stack 0
  3627                           GLOBAL	__end_of_main
  3628  1800                     	__end_of_main:
  3629 ;; =============== function _main ends ============
  3630                           
  3631                           	signat	_main,88
  3632                           	global	_mode
  3633                           psect	text561,local,class=CODE,delta=2
  3634                           global __ptext561
  3635  0319                     __ptext561:
  3636                           
  3637 ;; *************** function _mode *****************
  3638 ;; Defined at:
  3639 ;;		line 359 in file "C:\Users\Phang\Desktop\9.80\PR 29\PR29.c"
  3640 ;; Parameters:    Size  Location     Type
  3641 ;;  data            1    wreg     unsigned char 
  3642 ;; Auto vars:     Size  Location     Type
  3643 ;;  data            1   44[BANK0 ] unsigned char 
  3644 ;; Return value:  Size  Location     Type
  3645 ;;		None               void
  3646 ;; Registers used:
  3647 ;;		wreg, fsr0l, fsr0h, status,2, status,0, btemp+1, pclath, cstack
  3648 ;; Tracked objects:
  3649 ;;		On entry : 0/0
  3650 ;;		On exit  : 0/0
  3651 ;;		Unchanged: 0/0
  3652 ;; Data sizes:     COMMON   BANK0   BANK1   BANK3   BANK2
  3653 ;;      Params:         0       0       0       0       0
  3654 ;;      Locals:         0       1       0       0       0
  3655 ;;      Temps:          0       2       0       0       0
  3656 ;;      Totals:         0       3       0       0       0
  3657 ;;Total ram usage:        3 bytes
  3658 ;; Hardware stack levels used:    1
  3659 ;; Hardware stack levels required when called:    6
  3660 ;; This function calls:
  3661 ;;		_lcd_clr
  3662 ;;		_store_eeprom
  3663 ;;		_lcd_goto
  3664 ;;		_send_string
  3665 ;;		_send_char
  3666 ;;		_delay
  3667 ;;		_AddNew
  3668 ;;		_send_cmd
  3669 ;;		_receive_reply
  3670 ;;		_CheckAdmin
  3671 ;;		_view_attendance
  3672 ;;		_clear_attendance
  3673 ;;		_upload_GUI
  3674 ;;		_upload_HT
  3675 ;; This function is called by:
  3676 ;;		_main
  3677 ;; This function uses a non-reentrant model
  3678 ;;
  3679                           psect	text561
  3680                           	file	"C:\Users\Phang\Desktop\9.80\PR 29\PR29.c"
  3681                           	line	359
  3682                           	global	__size_of_mode
  3683  04E7                     	__size_of_mode	equ	__end_of_mode-_mode
  3684                           	
  3685  0319                     _mode:	
  3686                           	opt	stack 1
  3687                           ; Regs used in _mode: [wreg-fsr0h+status,2+status,0+btemp+1+pclath+cstack]
  3688                           ;mode@data stored from wreg
  3689                           	line	361
  3690  0319  1283               	bcf	status, 5	;RP0=0, select bank0
  3691  031A  1303               	bcf	status, 6	;RP1=0, select bank0
  3692  031B  00CC               	movwf	(mode@data)
  3693                           	
  3694  031C                     l5244:	
  3695                           ;PR29.c: 361: if (data==1)
  3696  031C  084C               	movf	(mode@data),w
  3697  031D  3A01               	xorlw	01h
  3698  031E  1D03               	skipz
  3699  031F  2B21               	goto	u4911
  3700  0320  2B22               	goto	u4910
  3701  0321                     u4911:
  3702  0321  2C51               	goto	l5316
  3703  0322                     u4910:
  3704  0322  2C49               	goto	l5314
  3705                           	line	364
  3706                           	
  3707  0323                     l5246:	
  3708                           ;PR29.c: 362: {
  3709                           ;PR29.c: 364: while(!day_enter)
  3710  0323  2C49               	goto	l5314
  3711                           	
  3712  0324                     l696:	
  3713                           	line	366
  3714                           ;PR29.c: 365: {
  3715                           ;PR29.c: 366: if(!RA2)
  3716  0324  1905               	btfsc	(42/8),(42)&7
  3717  0325  2B27               	goto	u4921
  3718  0326  2B28               	goto	u4920
  3719  0327                     u4921:
  3720  0327  2B3F               	goto	l697
  3721  0328                     u4920:
  3722  0328  2B2A               	goto	l698
  3723                           	line	368
  3724                           	
  3725  0329                     l5248:	
  3726                           ;PR29.c: 367: {
  3727                           ;PR29.c: 368: while(!RA2);
  3728  0329  2B2A               	goto	l698
  3729                           	
  3730  032A                     l699:	
  3731                           	
  3732  032A                     l698:	
  3733  032A  1D05               	btfss	(42/8),(42)&7
  3734  032B  2B2D               	goto	u4931
  3735  032C  2B2E               	goto	u4930
  3736  032D                     u4931:
  3737  032D  2B2A               	goto	l698
  3738  032E                     u4930:
  3739  032E  2B2F               	goto	l5250
  3740                           	
  3741  032F                     l700:	
  3742                           	line	369
  3743                           	
  3744  032F                     l5250:	
  3745                           ;PR29.c: 369: if (day_count<5)
  3746  032F  3005               	movlw	(05h)
  3747  0330  025B               	subwf	(_day_count),w
  3748  0331  1803               	skipnc
  3749  0332  2B34               	goto	u4941
  3750  0333  2B35               	goto	u4940
  3751  0334                     u4941:
  3752  0334  2B3A               	goto	l5254
  3753  0335                     u4940:
  3754                           	line	370
  3755                           	
  3756  0335                     l5252:	
  3757                           ;PR29.c: 370: day_count++;
  3758  0335  3001               	movlw	(01h)
  3759  0336  00CA               	movwf	(??_mode+0)+0
  3760  0337  084A               	movf	(??_mode+0)+0,w
  3761  0338  07DB               	addwf	(_day_count),f
  3762  0339  2C0C               	goto	l5302
  3763                           	line	371
  3764                           	
  3765  033A                     l701:	
  3766                           	line	372
  3767                           	
  3768  033A                     l5254:	
  3769                           ;PR29.c: 371: else
  3770                           ;PR29.c: 372: day_count=1;
  3771  033A  01DB               	clrf	(_day_count)
  3772  033B  1403               	bsf	status,0
  3773  033C  0DDB               	rlf	(_day_count),f
  3774  033D  2C0C               	goto	l5302
  3775                           	
  3776  033E                     l702:	
  3777                           	line	373
  3778                           ;PR29.c: 373: }
  3779  033E  2C0C               	goto	l5302
  3780                           	line	374
  3781                           	
  3782  033F                     l697:	
  3783                           ;PR29.c: 374: else if(!RA3)
  3784  033F  1985               	btfsc	(43/8),(43)&7
  3785  0340  2B42               	goto	u4951
  3786  0341  2B43               	goto	u4950
  3787  0342                     u4951:
  3788  0342  2B59               	goto	l704
  3789  0343                     u4950:
  3790  0343  2B45               	goto	l705
  3791                           	line	376
  3792                           	
  3793  0344                     l5256:	
  3794                           ;PR29.c: 375: {
  3795                           ;PR29.c: 376: while(!RA3);
  3796  0344  2B45               	goto	l705
  3797                           	
  3798  0345                     l706:	
  3799                           	
  3800  0345                     l705:	
  3801  0345  1D85               	btfss	(43/8),(43)&7
  3802  0346  2B48               	goto	u4961
  3803  0347  2B49               	goto	u4960
  3804  0348                     u4961:
  3805  0348  2B45               	goto	l705
  3806  0349                     u4960:
  3807  0349  2B4A               	goto	l5258
  3808                           	
  3809  034A                     l707:	
  3810                           	line	377
  3811                           	
  3812  034A                     l5258:	
  3813                           ;PR29.c: 377: if (day_count>1)
  3814  034A  3002               	movlw	(02h)
  3815  034B  025B               	subwf	(_day_count),w
  3816  034C  1C03               	skipc
  3817  034D  2B4F               	goto	u4971
  3818  034E  2B50               	goto	u4970
  3819  034F                     u4971:
  3820  034F  2B53               	goto	l5262
  3821  0350                     u4970:
  3822                           	line	378
  3823                           	
  3824  0350                     l5260:	
  3825                           ;PR29.c: 378: day_count--;
  3826  0350  3001               	movlw	low(01h)
  3827  0351  02DB               	subwf	(_day_count),f
  3828  0352  2C0C               	goto	l5302
  3829                           	line	379
  3830                           	
  3831  0353                     l708:	
  3832                           	line	380
  3833                           	
  3834  0353                     l5262:	
  3835                           ;PR29.c: 379: else
  3836                           ;PR29.c: 380: day_count=5;
  3837  0353  3005               	movlw	(05h)
  3838  0354  00CA               	movwf	(??_mode+0)+0
  3839  0355  084A               	movf	(??_mode+0)+0,w
  3840  0356  00DB               	movwf	(_day_count)
  3841  0357  2C0C               	goto	l5302
  3842                           	
  3843  0358                     l709:	
  3844                           	line	381
  3845                           ;PR29.c: 381: }
  3846  0358  2C0C               	goto	l5302
  3847                           	line	382
  3848                           	
  3849  0359                     l704:	
  3850                           ;PR29.c: 382: else if(!RA4)
  3851  0359  1A05               	btfsc	(44/8),(44)&7
  3852  035A  2B5C               	goto	u4981
  3853  035B  2B5D               	goto	u4980
  3854  035C                     u4981:
  3855  035C  2C0C               	goto	l5302
  3856  035D                     u4980:
  3857                           	line	384
  3858                           	
  3859  035D                     l5264:	
  3860                           ;PR29.c: 383: {
  3861                           ;PR29.c: 384: lcd_clr();
  3862  035D  160A  158A  24EA   	fcall	_lcd_clr
              120A  118A         
  3863                           	line	385
  3864                           	
  3865  0362                     l5266:	
  3866                           ;PR29.c: 385: RA1=1;
  3867  0362  1283               	bcf	status, 5	;RP0=0, select bank0
  3868  0363  1303               	bcf	status, 6	;RP1=0, select bank0
  3869  0364  1485               	bsf	(41/8),(41)&7
  3870                           	line	386
  3871                           ;PR29.c: 386: while(!RA4);
  3872  0365  2B66               	goto	l712
  3873                           	
  3874  0366                     l713:	
  3875                           	
  3876  0366                     l712:	
  3877  0366  1E05               	btfss	(44/8),(44)&7
  3878  0367  2B69               	goto	u4991
  3879  0368  2B6A               	goto	u4990
  3880  0369                     u4991:
  3881  0369  2B66               	goto	l712
  3882  036A                     u4990:
  3883  036A  2B6B               	goto	l5268
  3884                           	
  3885  036B                     l714:	
  3886                           	line	387
  3887                           	
  3888  036B                     l5268:	
  3889                           ;PR29.c: 387: if(day_count==1)
  3890  036B  085B               	movf	(_day_count),w
  3891  036C  3A01               	xorlw	01h
  3892  036D  1D03               	skipz
  3893  036E  2B70               	goto	u5001
  3894  036F  2B71               	goto	u5000
  3895  0370                     u5001:
  3896  0370  2B7C               	goto	l5272
  3897  0371                     u5000:
  3898                           	line	388
  3899                           	
  3900  0371                     l5270:	
  3901                           ;PR29.c: 388: { store_eeprom(day_count,0xff);
  3902  0371  30FF               	movlw	(0FFh)
  3903  0372  00CA               	movwf	(??_mode+0)+0
  3904  0373  084A               	movf	(??_mode+0)+0,w
  3905  0374  00F0               	movwf	(?_store_eeprom)
  3906  0375  085B               	movf	(_day_count),w
  3907  0376  160A  158A  2633   	fcall	_store_eeprom
              120A  118A         
  3908                           	line	390
  3909                           ;PR29.c: 390: }
  3910  037B  2BCB               	goto	l716
  3911                           	line	391
  3912                           	
  3913  037C                     l715:	
  3914                           	
  3915  037C                     l5272:	
  3916                           ;PR29.c: 391: else if (day_count==2)
  3917  037C  1283               	bcf	status, 5	;RP0=0, select bank0
  3918  037D  1303               	bcf	status, 6	;RP1=0, select bank0
  3919  037E  085B               	movf	(_day_count),w
  3920  037F  3A02               	xorlw	02h
  3921  0380  1D03               	skipz
  3922  0381  2B83               	goto	u5011
  3923  0382  2B84               	goto	u5010
  3924  0383                     u5011:
  3925  0383  2B8F               	goto	l5276
  3926  0384                     u5010:
  3927                           	line	392
  3928                           	
  3929  0384                     l5274:	
  3930                           ;PR29.c: 392: { store_eeprom(day_count,0xff);
  3931  0384  30FF               	movlw	(0FFh)
  3932  0385  00CA               	movwf	(??_mode+0)+0
  3933  0386  084A               	movf	(??_mode+0)+0,w
  3934  0387  00F0               	movwf	(?_store_eeprom)
  3935  0388  085B               	movf	(_day_count),w
  3936  0389  160A  158A  2633   	fcall	_store_eeprom
              120A  118A         
  3937                           	line	394
  3938                           ;PR29.c: 394: }
  3939  038E  2BCB               	goto	l716
  3940                           	line	395
  3941                           	
  3942  038F                     l717:	
  3943                           	
  3944  038F                     l5276:	
  3945                           ;PR29.c: 395: else if (day_count==3)
  3946  038F  1283               	bcf	status, 5	;RP0=0, select bank0
  3947  0390  1303               	bcf	status, 6	;RP1=0, select bank0
  3948  0391  085B               	movf	(_day_count),w
  3949  0392  3A03               	xorlw	03h
  3950  0393  1D03               	skipz
  3951  0394  2B96               	goto	u5021
  3952  0395  2B97               	goto	u5020
  3953  0396                     u5021:
  3954  0396  2BA2               	goto	l5280
  3955  0397                     u5020:
  3956                           	line	396
  3957                           	
  3958  0397                     l5278:	
  3959                           ;PR29.c: 396: { store_eeprom(day_count,0xff);
  3960  0397  30FF               	movlw	(0FFh)
  3961  0398  00CA               	movwf	(??_mode+0)+0
  3962  0399  084A               	movf	(??_mode+0)+0,w
  3963  039A  00F0               	movwf	(?_store_eeprom)
  3964  039B  085B               	movf	(_day_count),w
  3965  039C  160A  158A  2633   	fcall	_store_eeprom
              120A  118A         
  3966                           	line	398
  3967                           ;PR29.c: 398: }
  3968  03A1  2BCB               	goto	l716
  3969                           	line	399
  3970                           	
  3971  03A2                     l719:	
  3972                           	
  3973  03A2                     l5280:	
  3974                           ;PR29.c: 399: else if (day_count==4)
  3975  03A2  1283               	bcf	status, 5	;RP0=0, select bank0
  3976  03A3  1303               	bcf	status, 6	;RP1=0, select bank0
  3977  03A4  085B               	movf	(_day_count),w
  3978  03A5  3A04               	xorlw	04h
  3979  03A6  1D03               	skipz
  3980  03A7  2BA9               	goto	u5031
  3981  03A8  2BAA               	goto	u5030
  3982  03A9                     u5031:
  3983  03A9  2BB5               	goto	l5284
  3984  03AA                     u5030:
  3985                           	line	400
  3986                           	
  3987  03AA                     l5282:	
  3988                           ;PR29.c: 400: { store_eeprom(day_count,0xff);
  3989  03AA  30FF               	movlw	(0FFh)
  3990  03AB  00CA               	movwf	(??_mode+0)+0
  3991  03AC  084A               	movf	(??_mode+0)+0,w
  3992  03AD  00F0               	movwf	(?_store_eeprom)
  3993  03AE  085B               	movf	(_day_count),w
  3994  03AF  160A  158A  2633   	fcall	_store_eeprom
              120A  118A         
  3995                           	line	402
  3996                           ;PR29.c: 402: }
  3997  03B4  2BCB               	goto	l716
  3998                           	line	403
  3999                           	
  4000  03B5                     l721:	
  4001                           	
  4002  03B5                     l5284:	
  4003                           ;PR29.c: 403: else if (day_count==5)
  4004  03B5  1283               	bcf	status, 5	;RP0=0, select bank0
  4005  03B6  1303               	bcf	status, 6	;RP1=0, select bank0
  4006  03B7  085B               	movf	(_day_count),w
  4007  03B8  3A05               	xorlw	05h
  4008  03B9  1D03               	skipz
  4009  03BA  2BBC               	goto	u5041
  4010  03BB  2BBD               	goto	u5040
  4011  03BC                     u5041:
  4012  03BC  2BCB               	goto	l716
  4013  03BD                     u5040:
  4014                           	line	404
  4015                           	
  4016  03BD                     l5286:	
  4017                           ;PR29.c: 404: { store_eeprom(day_count,0xff);
  4018  03BD  30FF               	movlw	(0FFh)
  4019  03BE  00CA               	movwf	(??_mode+0)+0
  4020  03BF  084A               	movf	(??_mode+0)+0,w
  4021  03C0  00F0               	movwf	(?_store_eeprom)
  4022  03C1  085B               	movf	(_day_count),w
  4023  03C2  160A  158A  2633   	fcall	_store_eeprom
              120A  118A         
  4024  03C7  2BCB               	goto	l716
  4025                           	line	406
  4026                           	
  4027  03C8                     l723:	
  4028  03C8  2BCB               	goto	l716
  4029                           	line	407
  4030                           	
  4031  03C9                     l722:	
  4032  03C9  2BCB               	goto	l716
  4033                           	
  4034  03CA                     l720:	
  4035  03CA  2BCB               	goto	l716
  4036                           	
  4037  03CB                     l718:	
  4038                           	
  4039  03CB                     l716:	
  4040                           ;PR29.c: 406: }
  4041                           ;PR29.c: 407: lcd_goto(0);
  4042  03CB  3000               	movlw	(0)
  4043  03CC  120A  158A  2004   	fcall	_lcd_goto
              120A  118A         
  4044                           	line	408
  4045                           	
  4046  03D1                     l5288:	
  4047                           ;PR29.c: 408: send_string("Day ");
  4048  03D1  3019               	movlw	low(STR_19|8000h)
  4049  03D2  00F9               	movwf	(?_send_string)
  4050  03D3  309A               	movlw	high(STR_19|8000h)
  4051  03D4  00FA               	movwf	((?_send_string))+1
  4052  03D5  160A  158A  25FD   	fcall	_send_string
              120A  118A         
  4053                           	line	409
  4054                           	
  4055  03DA                     l5290:	
  4056                           ;PR29.c: 409: lcd_goto(4);
  4057  03DA  3004               	movlw	(04h)
  4058  03DB  120A  158A  2004   	fcall	_lcd_goto
              120A  118A         
  4059                           	line	410
  4060                           	
  4061  03E0                     l5292:	
  4062                           ;PR29.c: 410: send_char(0x30 + day_count);
  4063  03E0  1283               	bcf	status, 5	;RP0=0, select bank0
  4064  03E1  1303               	bcf	status, 6	;RP1=0, select bank0
  4065  03E2  085B               	movf	(_day_count),w
  4066  03E3  3E30               	addlw	030h
  4067  03E4  160A  158A  2580   	fcall	_send_char
              120A  118A         
  4068                           	line	411
  4069                           	
  4070  03E9                     l5294:	
  4071                           ;PR29.c: 411: lcd_goto(20);
  4072  03E9  3014               	movlw	(014h)
  4073  03EA  120A  158A  2004   	fcall	_lcd_goto
              120A  118A         
  4074                           	line	412
  4075                           ;PR29.c: 412: send_string("Selected");
  4076  03EF  3076               	movlw	low(STR_20|8000h)
  4077  03F0  00F9               	movwf	(?_send_string)
  4078  03F1  309A               	movlw	high(STR_20|8000h)
  4079  03F2  00FA               	movwf	((?_send_string))+1
  4080  03F3  160A  158A  25FD   	fcall	_send_string
              120A  118A         
  4081                           	line	413
  4082                           	
  4083  03F8                     l5296:	
  4084                           ;PR29.c: 413: delay(200000);
  4085  03F8  3000               	movlw	0
  4086  03F9  00F3               	movwf	(?_delay+3)
  4087  03FA  3003               	movlw	03h
  4088  03FB  00F2               	movwf	(?_delay+2)
  4089  03FC  300D               	movlw	0Dh
  4090  03FD  00F1               	movwf	(?_delay+1)
  4091  03FE  3040               	movlw	040h
  4092  03FF  00F0               	movwf	(?_delay)
  4093                           
  4094  0400  160A  158A  25CD   	fcall	_delay
              120A  118A         
  4095                           	line	414
  4096                           	
  4097  0405                     l5298:	
  4098                           ;PR29.c: 414: RA1=0;
  4099  0405  1283               	bcf	status, 5	;RP0=0, select bank0
  4100  0406  1303               	bcf	status, 6	;RP1=0, select bank0
  4101  0407  1085               	bcf	(41/8),(41)&7
  4102                           	line	415
  4103                           	
  4104  0408                     l5300:	
  4105                           ;PR29.c: 415: day_enter=1;
  4106  0408  1559               	bsf	(_day_enter/8),(_day_enter)&7
  4107  0409  2C0C               	goto	l5302
  4108                           	line	416
  4109                           	
  4110  040A                     l711:	
  4111  040A  2C0C               	goto	l5302
  4112                           	line	417
  4113                           	
  4114  040B                     l710:	
  4115  040B  2C0C               	goto	l5302
  4116                           	
  4117  040C                     l703:	
  4118                           	
  4119  040C                     l5302:	
  4120                           ;PR29.c: 416: }
  4121                           ;PR29.c: 417: lcd_goto(0);
  4122  040C  3000               	movlw	(0)
  4123  040D  120A  158A  2004   	fcall	_lcd_goto
              120A  118A         
  4124                           	line	418
  4125                           ;PR29.c: 418: send_string("Today is Day ");
  4126  0412  3010               	movlw	low(STR_21|8000h)
  4127  0413  00F9               	movwf	(?_send_string)
  4128  0414  309A               	movlw	high(STR_21|8000h)
  4129  0415  00FA               	movwf	((?_send_string))+1
  4130  0416  160A  158A  25FD   	fcall	_send_string
              120A  118A         
  4131                           	line	419
  4132                           	
  4133  041B                     l5304:	
  4134                           ;PR29.c: 419: lcd_goto(13);
  4135  041B  300D               	movlw	(0Dh)
  4136  041C  120A  158A  2004   	fcall	_lcd_goto
              120A  118A         
  4137                           	line	420
  4138                           	
  4139  0421                     l5306:	
  4140                           ;PR29.c: 420: send_char(0x30+day_count);
  4141  0421  1283               	bcf	status, 5	;RP0=0, select bank0
  4142  0422  1303               	bcf	status, 6	;RP1=0, select bank0
  4143  0423  085B               	movf	(_day_count),w
  4144  0424  3E30               	addlw	030h
  4145  0425  160A  158A  2580   	fcall	_send_char
              120A  118A         
  4146                           	line	421
  4147                           	
  4148  042A                     l5308:	
  4149                           ;PR29.c: 421: lcd_goto(14);
  4150  042A  300E               	movlw	(0Eh)
  4151  042B  120A  158A  2004   	fcall	_lcd_goto
              120A  118A         
  4152                           	line	422
  4153                           	
  4154  0430                     l5310:	
  4155                           ;PR29.c: 422: send_string("/5");
  4156  0430  30B1               	movlw	low(STR_22|8000h)
  4157  0431  00F9               	movwf	(?_send_string)
  4158  0432  309A               	movlw	high(STR_22|8000h)
  4159  0433  00FA               	movwf	((?_send_string))+1
  4160  0434  160A  158A  25FD   	fcall	_send_string
              120A  118A         
  4161                           	line	423
  4162                           ;PR29.c: 423: lcd_goto(20);
  4163  0439  3014               	movlw	(014h)
  4164  043A  120A  158A  2004   	fcall	_lcd_goto
              120A  118A         
  4165                           	line	424
  4166                           	
  4167  043F                     l5312:	
  4168                           ;PR29.c: 424: send_string("Press 3 to set  ");
  4169  043F  3034               	movlw	low(STR_23|8000h)
  4170  0440  00F9               	movwf	(?_send_string)
  4171  0441  3099               	movlw	high(STR_23|8000h)
  4172  0442  00FA               	movwf	((?_send_string))+1
  4173  0443  160A  158A  25FD   	fcall	_send_string
              120A  118A         
  4174  0448  2C49               	goto	l5314
  4175                           	line	425
  4176                           	
  4177  0449                     l695:	
  4178                           	line	364
  4179                           	
  4180  0449                     l5314:	
  4181  0449  1283               	bcf	status, 5	;RP0=0, select bank0
  4182  044A  1303               	bcf	status, 6	;RP1=0, select bank0
  4183  044B  1D59               	btfss	(_day_enter/8),(_day_enter)&7
  4184  044C  2C4E               	goto	u5051
  4185  044D  2C4F               	goto	u5050
  4186  044E                     u5051:
  4187  044E  2B24               	goto	l696
  4188  044F                     u5050:
  4189                           	
  4190  044F                     l724:	
  4191                           	line	426
  4192                           ;PR29.c: 425: }
  4193                           ;PR29.c: 426: day_enter=0;
  4194  044F  1159               	bcf	(_day_enter/8),(_day_enter)&7
  4195                           	line	427
  4196                           ;PR29.c: 427: }
  4197  0450  2FFA               	goto	l725
  4198                           	line	428
  4199                           	
  4200  0451                     l694:	
  4201                           	
  4202  0451                     l5316:	
  4203                           ;PR29.c: 428: else if (data==2)
  4204  0451  084C               	movf	(mode@data),w
  4205  0452  3A02               	xorlw	02h
  4206  0453  1D03               	skipz
  4207  0454  2C56               	goto	u5061
  4208  0455  2C57               	goto	u5060
  4209  0456                     u5061:
  4210  0456  2CE6               	goto	l5354
  4211  0457                     u5060:
  4212                           	line	430
  4213                           	
  4214  0457                     l5318:	
  4215                           ;PR29.c: 429: {
  4216                           ;PR29.c: 430: delay(10000);
  4217  0457  3000               	movlw	0
  4218  0458  00F3               	movwf	(?_delay+3)
  4219  0459  3000               	movlw	0
  4220  045A  00F2               	movwf	(?_delay+2)
  4221  045B  3027               	movlw	027h
  4222  045C  00F1               	movwf	(?_delay+1)
  4223  045D  3010               	movlw	010h
  4224  045E  00F0               	movwf	(?_delay)
  4225                           
  4226  045F  160A  158A  25CD   	fcall	_delay
              120A  118A         
  4227                           	line	432
  4228                           ;PR29.c: 432: while(location_enter==0)
  4229  0464  2CDE               	goto	l5352
  4230                           	
  4231  0465                     l728:	
  4232                           	line	434
  4233                           	
  4234  0465                     l5320:	
  4235                           ;PR29.c: 433: {
  4236                           ;PR29.c: 434: lcd_goto(0);
  4237  0465  3000               	movlw	(0)
  4238  0466  120A  158A  2004   	fcall	_lcd_goto
              120A  118A         
  4239                           	line	435
  4240                           	
  4241  046B                     l5322:	
  4242                           ;PR29.c: 435: send_string("Choose User     ");
  4243  046B  30AC               	movlw	low(STR_24|8000h)
  4244  046C  00F9               	movwf	(?_send_string)
  4245  046D  3098               	movlw	high(STR_24|8000h)
  4246  046E  00FA               	movwf	((?_send_string))+1
  4247  046F  160A  158A  25FD   	fcall	_send_string
              120A  118A         
  4248                           	line	436
  4249                           	
  4250  0474                     l5324:	
  4251                           ;PR29.c: 436: lcd_goto(20);
  4252  0474  3014               	movlw	(014h)
  4253  0475  120A  158A  2004   	fcall	_lcd_goto
              120A  118A         
  4254                           	line	437
  4255                           ;PR29.c: 437: send_string("User ");
  4256  047A  304D               	movlw	low(STR_25|8000h)
  4257  047B  00F9               	movwf	(?_send_string)
  4258  047C  309A               	movlw	high(STR_25|8000h)
  4259  047D  00FA               	movwf	((?_send_string))+1
  4260  047E  160A  158A  25FD   	fcall	_send_string
              120A  118A         
  4261                           	line	438
  4262                           	
  4263  0483                     l5326:	
  4264                           ;PR29.c: 438: lcd_goto(25);
  4265  0483  3019               	movlw	(019h)
  4266  0484  120A  158A  2004   	fcall	_lcd_goto
              120A  118A         
  4267                           	line	439
  4268                           	
  4269  0489                     l5328:	
  4270                           ;PR29.c: 439: send_char(0x30 + location);
  4271  0489  1283               	bcf	status, 5	;RP0=0, select bank0
  4272  048A  1303               	bcf	status, 6	;RP1=0, select bank0
  4273  048B  085C               	movf	(_location),w
  4274  048C  3E30               	addlw	030h
  4275  048D  160A  158A  2580   	fcall	_send_char
              120A  118A         
  4276                           	line	440
  4277                           	
  4278  0492                     l5330:	
  4279                           ;PR29.c: 440: if(!RA2)
  4280  0492  1283               	bcf	status, 5	;RP0=0, select bank0
  4281  0493  1303               	bcf	status, 6	;RP1=0, select bank0
  4282  0494  1905               	btfsc	(42/8),(42)&7
  4283  0495  2C97               	goto	u5071
  4284  0496  2C98               	goto	u5070
  4285  0497                     u5071:
  4286  0497  2CAF               	goto	l729
  4287  0498                     u5070:
  4288  0498  2C9A               	goto	l730
  4289                           	line	442
  4290                           	
  4291  0499                     l5332:	
  4292                           ;PR29.c: 441: {
  4293                           ;PR29.c: 442: while(!RA2);
  4294  0499  2C9A               	goto	l730
  4295                           	
  4296  049A                     l731:	
  4297                           	
  4298  049A                     l730:	
  4299  049A  1D05               	btfss	(42/8),(42)&7
  4300  049B  2C9D               	goto	u5081
  4301  049C  2C9E               	goto	u5080
  4302  049D                     u5081:
  4303  049D  2C9A               	goto	l730
  4304  049E                     u5080:
  4305  049E  2C9F               	goto	l5334
  4306                           	
  4307  049F                     l732:	
  4308                           	line	443
  4309                           	
  4310  049F                     l5334:	
  4311                           ;PR29.c: 443: if (location<5)
  4312  049F  3005               	movlw	(05h)
  4313  04A0  025C               	subwf	(_location),w
  4314  04A1  1803               	skipnc
  4315  04A2  2CA4               	goto	u5091
  4316  04A3  2CA5               	goto	u5090
  4317  04A4                     u5091:
  4318  04A4  2CAA               	goto	l5338
  4319  04A5                     u5090:
  4320                           	line	444
  4321                           	
  4322  04A5                     l5336:	
  4323                           ;PR29.c: 444: location++;
  4324  04A5  3001               	movlw	(01h)
  4325  04A6  00CA               	movwf	(??_mode+0)+0
  4326  04A7  084A               	movf	(??_mode+0)+0,w
  4327  04A8  07DC               	addwf	(_location),f
  4328  04A9  2CDE               	goto	l5352
  4329                           	line	445
  4330                           	
  4331  04AA                     l733:	
  4332                           	line	446
  4333                           	
  4334  04AA                     l5338:	
  4335                           ;PR29.c: 445: else
  4336                           ;PR29.c: 446: location=1;
  4337  04AA  01DC               	clrf	(_location)
  4338  04AB  1403               	bsf	status,0
  4339  04AC  0DDC               	rlf	(_location),f
  4340  04AD  2CDE               	goto	l5352
  4341                           	
  4342  04AE                     l734:	
  4343                           	line	447
  4344                           ;PR29.c: 447: }
  4345  04AE  2CDE               	goto	l5352
  4346                           	line	448
  4347                           	
  4348  04AF                     l729:	
  4349                           ;PR29.c: 448: else if(!RA3)
  4350  04AF  1985               	btfsc	(43/8),(43)&7
  4351  04B0  2CB2               	goto	u5101
  4352  04B1  2CB3               	goto	u5100
  4353  04B2                     u5101:
  4354  04B2  2CC9               	goto	l736
  4355  04B3                     u5100:
  4356  04B3  2CB5               	goto	l737
  4357                           	line	450
  4358                           	
  4359  04B4                     l5340:	
  4360                           ;PR29.c: 449: {
  4361                           ;PR29.c: 450: while(!RA3);
  4362  04B4  2CB5               	goto	l737
  4363                           	
  4364  04B5                     l738:	
  4365                           	
  4366  04B5                     l737:	
  4367  04B5  1D85               	btfss	(43/8),(43)&7
  4368  04B6  2CB8               	goto	u5111
  4369  04B7  2CB9               	goto	u5110
  4370  04B8                     u5111:
  4371  04B8  2CB5               	goto	l737
  4372  04B9                     u5110:
  4373  04B9  2CBA               	goto	l5342
  4374                           	
  4375  04BA                     l739:	
  4376                           	line	451
  4377                           	
  4378  04BA                     l5342:	
  4379                           ;PR29.c: 451: if (location>1)
  4380  04BA  3002               	movlw	(02h)
  4381  04BB  025C               	subwf	(_location),w
  4382  04BC  1C03               	skipc
  4383  04BD  2CBF               	goto	u5121
  4384  04BE  2CC0               	goto	u5120
  4385  04BF                     u5121:
  4386  04BF  2CC3               	goto	l5346
  4387  04C0                     u5120:
  4388                           	line	452
  4389                           	
  4390  04C0                     l5344:	
  4391                           ;PR29.c: 452: location--;
  4392  04C0  3001               	movlw	low(01h)
  4393  04C1  02DC               	subwf	(_location),f
  4394  04C2  2CDE               	goto	l5352
  4395                           	line	453
  4396                           	
  4397  04C3                     l740:	
  4398                           	line	454
  4399                           	
  4400  04C3                     l5346:	
  4401                           ;PR29.c: 453: else
  4402                           ;PR29.c: 454: location=5;
  4403  04C3  3005               	movlw	(05h)
  4404  04C4  00CA               	movwf	(??_mode+0)+0
  4405  04C5  084A               	movf	(??_mode+0)+0,w
  4406  04C6  00DC               	movwf	(_location)
  4407  04C7  2CDE               	goto	l5352
  4408                           	
  4409  04C8                     l741:	
  4410                           	line	455
  4411                           ;PR29.c: 455: }
  4412  04C8  2CDE               	goto	l5352
  4413                           	line	456
  4414                           	
  4415  04C9                     l736:	
  4416                           ;PR29.c: 456: else if(!RA4)
  4417  04C9  1A05               	btfsc	(44/8),(44)&7
  4418  04CA  2CCC               	goto	u5131
  4419  04CB  2CCD               	goto	u5130
  4420  04CC                     u5131:
  4421  04CC  2CDE               	goto	l5352
  4422  04CD                     u5130:
  4423  04CD  2CCF               	goto	l744
  4424                           	line	458
  4425                           	
  4426  04CE                     l5348:	
  4427                           ;PR29.c: 457: {
  4428                           ;PR29.c: 458: while(!RA4);
  4429  04CE  2CCF               	goto	l744
  4430                           	
  4431  04CF                     l745:	
  4432                           	
  4433  04CF                     l744:	
  4434  04CF  1E05               	btfss	(44/8),(44)&7
  4435  04D0  2CD2               	goto	u5141
  4436  04D1  2CD3               	goto	u5140
  4437  04D2                     u5141:
  4438  04D2  2CCF               	goto	l744
  4439  04D3                     u5140:
  4440  04D3  2CD4               	goto	l5350
  4441                           	
  4442  04D4                     l746:	
  4443                           	line	459
  4444                           	
  4445  04D4                     l5350:	
  4446                           ;PR29.c: 459: AddNew(location);
  4447  04D4  085C               	movf	(_location),w
  4448  04D5  160A  158A  2730   	fcall	_AddNew
              120A  118A         
  4449  04DA  2CDE               	goto	l5352
  4450                           	line	460
  4451                           	
  4452  04DB                     l743:	
  4453  04DB  2CDE               	goto	l5352
  4454                           	line	461
  4455                           	
  4456  04DC                     l742:	
  4457  04DC  2CDE               	goto	l5352
  4458                           	
  4459  04DD                     l735:	
  4460  04DD  2CDE               	goto	l5352
  4461                           	
  4462  04DE                     l727:	
  4463                           	line	432
  4464                           	
  4465  04DE                     l5352:	
  4466  04DE  1283               	bcf	status, 5	;RP0=0, select bank0
  4467  04DF  1303               	bcf	status, 6	;RP1=0, select bank0
  4468  04E0  1ED9               	btfss	(_location_enter/8),(_location_enter)&7
  4469  04E1  2CE3               	goto	u5151
  4470  04E2  2CE4               	goto	u5150
  4471  04E3                     u5151:
  4472  04E3  2C65               	goto	l5320
  4473  04E4                     u5150:
  4474  04E4  2FFA               	goto	l725
  4475                           	
  4476  04E5                     l747:	
  4477                           	line	462
  4478                           ;PR29.c: 460: }
  4479                           ;PR29.c: 461: }
  4480                           ;PR29.c: 462: }
  4481  04E5  2FFA               	goto	l725
  4482                           	line	463
  4483                           	
  4484  04E6                     l726:	
  4485                           	
  4486  04E6                     l5354:	
  4487                           ;PR29.c: 463: else if (data==3)
  4488  04E6  084C               	movf	(mode@data),w
  4489  04E7  3A03               	xorlw	03h
  4490  04E8  1D03               	skipz
  4491  04E9  2CEB               	goto	u5161
  4492  04EA  2CEC               	goto	u5160
  4493  04EB                     u5161:
  4494  04EB  2D9D               	goto	l5396
  4495  04EC                     u5160:
  4496                           	line	465
  4497                           	
  4498  04EC                     l5356:	
  4499                           ;PR29.c: 464: {
  4500                           ;PR29.c: 465: delay(10000);
  4501  04EC  3000               	movlw	0
  4502  04ED  00F3               	movwf	(?_delay+3)
  4503  04EE  3000               	movlw	0
  4504  04EF  00F2               	movwf	(?_delay+2)
  4505  04F0  3027               	movlw	027h
  4506  04F1  00F1               	movwf	(?_delay+1)
  4507  04F2  3010               	movlw	010h
  4508  04F3  00F0               	movwf	(?_delay)
  4509                           
  4510  04F4  160A  158A  25CD   	fcall	_delay
              120A  118A         
  4511                           	line	467
  4512                           ;PR29.c: 467: while(location_enter==0)
  4513  04F9  2D95               	goto	l5394
  4514                           	
  4515  04FA                     l751:	
  4516                           	line	469
  4517                           	
  4518  04FA                     l5358:	
  4519                           ;PR29.c: 468: {
  4520                           ;PR29.c: 469: lcd_goto(0);
  4521  04FA  3000               	movlw	(0)
  4522  04FB  120A  158A  2004   	fcall	_lcd_goto
              120A  118A         
  4523                           	line	470
  4524                           	
  4525  0500                     l5360:	
  4526                           ;PR29.c: 470: send_string("Choose User     ");
  4527  0500  30AC               	movlw	low(STR_26|8000h)
  4528  0501  00F9               	movwf	(?_send_string)
  4529  0502  3098               	movlw	high(STR_26|8000h)
  4530  0503  00FA               	movwf	((?_send_string))+1
  4531  0504  160A  158A  25FD   	fcall	_send_string
              120A  118A         
  4532                           	line	471
  4533                           	
  4534  0509                     l5362:	
  4535                           ;PR29.c: 471: lcd_goto(20);
  4536  0509  3014               	movlw	(014h)
  4537  050A  120A  158A  2004   	fcall	_lcd_goto
              120A  118A         
  4538                           	line	472
  4539                           ;PR29.c: 472: send_string("User ");
  4540  050F  304D               	movlw	low(STR_27|8000h)
  4541  0510  00F9               	movwf	(?_send_string)
  4542  0511  309A               	movlw	high(STR_27|8000h)
  4543  0512  00FA               	movwf	((?_send_string))+1
  4544  0513  160A  158A  25FD   	fcall	_send_string
              120A  118A         
  4545                           	line	473
  4546                           	
  4547  0518                     l5364:	
  4548                           ;PR29.c: 473: lcd_goto(25);
  4549  0518  3019               	movlw	(019h)
  4550  0519  120A  158A  2004   	fcall	_lcd_goto
              120A  118A         
  4551                           	line	474
  4552                           	
  4553  051E                     l5366:	
  4554                           ;PR29.c: 474: send_char(0x30 + location);
  4555  051E  1283               	bcf	status, 5	;RP0=0, select bank0
  4556  051F  1303               	bcf	status, 6	;RP1=0, select bank0
  4557  0520  085C               	movf	(_location),w
  4558  0521  3E30               	addlw	030h
  4559  0522  160A  158A  2580   	fcall	_send_char
              120A  118A         
  4560                           	line	475
  4561                           	
  4562  0527                     l5368:	
  4563                           ;PR29.c: 475: if(!RA2)
  4564  0527  1283               	bcf	status, 5	;RP0=0, select bank0
  4565  0528  1303               	bcf	status, 6	;RP1=0, select bank0
  4566  0529  1905               	btfsc	(42/8),(42)&7
  4567  052A  2D2C               	goto	u5171
  4568  052B  2D2D               	goto	u5170
  4569  052C                     u5171:
  4570  052C  2D44               	goto	l752
  4571  052D                     u5170:
  4572  052D  2D2F               	goto	l753
  4573                           	line	477
  4574                           	
  4575  052E                     l5370:	
  4576                           ;PR29.c: 476: {
  4577                           ;PR29.c: 477: while(!RA2);
  4578  052E  2D2F               	goto	l753
  4579                           	
  4580  052F                     l754:	
  4581                           	
  4582  052F                     l753:	
  4583  052F  1D05               	btfss	(42/8),(42)&7
  4584  0530  2D32               	goto	u5181
  4585  0531  2D33               	goto	u5180
  4586  0532                     u5181:
  4587  0532  2D2F               	goto	l753
  4588  0533                     u5180:
  4589  0533  2D34               	goto	l5372
  4590                           	
  4591  0534                     l755:	
  4592                           	line	478
  4593                           	
  4594  0534                     l5372:	
  4595                           ;PR29.c: 478: if (location<5)
  4596  0534  3005               	movlw	(05h)
  4597  0535  025C               	subwf	(_location),w
  4598  0536  1803               	skipnc
  4599  0537  2D39               	goto	u5191
  4600  0538  2D3A               	goto	u5190
  4601  0539                     u5191:
  4602  0539  2D3F               	goto	l5376
  4603  053A                     u5190:
  4604                           	line	479
  4605                           	
  4606  053A                     l5374:	
  4607                           ;PR29.c: 479: location++;
  4608  053A  3001               	movlw	(01h)
  4609  053B  00CA               	movwf	(??_mode+0)+0
  4610  053C  084A               	movf	(??_mode+0)+0,w
  4611  053D  07DC               	addwf	(_location),f
  4612  053E  2D95               	goto	l5394
  4613                           	line	480
  4614                           	
  4615  053F                     l756:	
  4616                           	line	481
  4617                           	
  4618  053F                     l5376:	
  4619                           ;PR29.c: 480: else
  4620                           ;PR29.c: 481: location=1;
  4621  053F  01DC               	clrf	(_location)
  4622  0540  1403               	bsf	status,0
  4623  0541  0DDC               	rlf	(_location),f
  4624  0542  2D95               	goto	l5394
  4625                           	
  4626  0543                     l757:	
  4627                           	line	482
  4628                           ;PR29.c: 482: }
  4629  0543  2D95               	goto	l5394
  4630                           	line	483
  4631                           	
  4632  0544                     l752:	
  4633                           ;PR29.c: 483: else if(!RA3)
  4634  0544  1985               	btfsc	(43/8),(43)&7
  4635  0545  2D47               	goto	u5201
  4636  0546  2D48               	goto	u5200
  4637  0547                     u5201:
  4638  0547  2D5E               	goto	l759
  4639  0548                     u5200:
  4640  0548  2D4A               	goto	l760
  4641                           	line	485
  4642                           	
  4643  0549                     l5378:	
  4644                           ;PR29.c: 484: {
  4645                           ;PR29.c: 485: while(!RA3);
  4646  0549  2D4A               	goto	l760
  4647                           	
  4648  054A                     l761:	
  4649                           	
  4650  054A                     l760:	
  4651  054A  1D85               	btfss	(43/8),(43)&7
  4652  054B  2D4D               	goto	u5211
  4653  054C  2D4E               	goto	u5210
  4654  054D                     u5211:
  4655  054D  2D4A               	goto	l760
  4656  054E                     u5210:
  4657  054E  2D4F               	goto	l5380
  4658                           	
  4659  054F                     l762:	
  4660                           	line	486
  4661                           	
  4662  054F                     l5380:	
  4663                           ;PR29.c: 486: if (location>1)
  4664  054F  3002               	movlw	(02h)
  4665  0550  025C               	subwf	(_location),w
  4666  0551  1C03               	skipc
  4667  0552  2D54               	goto	u5221
  4668  0553  2D55               	goto	u5220
  4669  0554                     u5221:
  4670  0554  2D58               	goto	l5384
  4671  0555                     u5220:
  4672                           	line	487
  4673                           	
  4674  0555                     l5382:	
  4675                           ;PR29.c: 487: location--;
  4676  0555  3001               	movlw	low(01h)
  4677  0556  02DC               	subwf	(_location),f
  4678  0557  2D95               	goto	l5394
  4679                           	line	488
  4680                           	
  4681  0558                     l763:	
  4682                           	line	489
  4683                           	
  4684  0558                     l5384:	
  4685                           ;PR29.c: 488: else
  4686                           ;PR29.c: 489: location=5;
  4687  0558  3005               	movlw	(05h)
  4688  0559  00CA               	movwf	(??_mode+0)+0
  4689  055A  084A               	movf	(??_mode+0)+0,w
  4690  055B  00DC               	movwf	(_location)
  4691  055C  2D95               	goto	l5394
  4692                           	
  4693  055D                     l764:	
  4694                           	line	490
  4695                           ;PR29.c: 490: }
  4696  055D  2D95               	goto	l5394
  4697                           	line	491
  4698                           	
  4699  055E                     l759:	
  4700                           ;PR29.c: 491: else if(!RA4)
  4701  055E  1A05               	btfsc	(44/8),(44)&7
  4702  055F  2D61               	goto	u5231
  4703  0560  2D62               	goto	u5230
  4704  0561                     u5231:
  4705  0561  2D95               	goto	l5394
  4706  0562                     u5230:
  4707  0562  2D64               	goto	l767
  4708                           	line	493
  4709                           	
  4710  0563                     l5386:	
  4711                           ;PR29.c: 492: {
  4712                           ;PR29.c: 493: while(!RA4);
  4713  0563  2D64               	goto	l767
  4714                           	
  4715  0564                     l768:	
  4716                           	
  4717  0564                     l767:	
  4718  0564  1E05               	btfss	(44/8),(44)&7
  4719  0565  2D67               	goto	u5241
  4720  0566  2D68               	goto	u5240
  4721  0567                     u5241:
  4722  0567  2D64               	goto	l767
  4723  0568                     u5240:
  4724  0568  2D69               	goto	l5388
  4725                           	
  4726  0569                     l769:	
  4727                           	line	494
  4728                           	
  4729  0569                     l5388:	
  4730                           ;PR29.c: 494: send_cmd(0x04,0x00,location,0x03);
  4731  0569  1003               	clrc
  4732  056A  3000               	movlw	0
  4733  056B  1803               	btfsc	status,0
  4734  056C  3001               	movlw	1
  4735  056D  00F1               	movwf	(?_send_cmd)
  4736  056E  085C               	movf	(_location),w
  4737  056F  00CA               	movwf	(??_mode+0)+0
  4738  0570  084A               	movf	(??_mode+0)+0,w
  4739  0571  00F2               	movwf	0+(?_send_cmd)+01h
  4740  0572  3003               	movlw	(03h)
  4741  0573  00CB               	movwf	(??_mode+1)+0
  4742  0574  084B               	movf	(??_mode+1)+0,w
  4743  0575  00F3               	movwf	0+(?_send_cmd)+02h
  4744  0576  3004               	movlw	(04h)
  4745  0577  160A  158A  266C   	fcall	_send_cmd
              120A  118A         
  4746                           	line	495
  4747                           ;PR29.c: 495: delay(10);
  4748  057C  3000               	movlw	0
  4749  057D  00F3               	movwf	(?_delay+3)
  4750  057E  3000               	movlw	0
  4751  057F  00F2               	movwf	(?_delay+2)
  4752  0580  3000               	movlw	0
  4753  0581  00F1               	movwf	(?_delay+1)
  4754  0582  300A               	movlw	0Ah
  4755  0583  00F0               	movwf	(?_delay)
  4756                           
  4757  0584  160A  158A  25CD   	fcall	_delay
              120A  118A         
  4758                           	line	496
  4759                           	
  4760  0589                     l5390:	
  4761                           ;PR29.c: 496: receive_reply();
  4762  0589  160A  158A  26A5   	fcall	_receive_reply
              120A  118A         
  4763                           	line	497
  4764                           	
  4765  058E                     l5392:	
  4766                           ;PR29.c: 497: location_enter=1;
  4767  058E  1283               	bcf	status, 5	;RP0=0, select bank0
  4768  058F  1303               	bcf	status, 6	;RP1=0, select bank0
  4769  0590  16D9               	bsf	(_location_enter/8),(_location_enter)&7
  4770  0591  2D95               	goto	l5394
  4771                           	line	498
  4772                           	
  4773  0592                     l766:	
  4774  0592  2D95               	goto	l5394
  4775                           	line	499
  4776                           	
  4777  0593                     l765:	
  4778  0593  2D95               	goto	l5394
  4779                           	
  4780  0594                     l758:	
  4781  0594  2D95               	goto	l5394
  4782                           	
  4783  0595                     l750:	
  4784                           	line	467
  4785                           	
  4786  0595                     l5394:	
  4787  0595  1283               	bcf	status, 5	;RP0=0, select bank0
  4788  0596  1303               	bcf	status, 6	;RP1=0, select bank0
  4789  0597  1ED9               	btfss	(_location_enter/8),(_location_enter)&7
  4790  0598  2D9A               	goto	u5251
  4791  0599  2D9B               	goto	u5250
  4792  059A                     u5251:
  4793  059A  2CFA               	goto	l5358
  4794  059B                     u5250:
  4795  059B  2FFA               	goto	l725
  4796                           	
  4797  059C                     l770:	
  4798                           	line	500
  4799                           ;PR29.c: 498: }
  4800                           ;PR29.c: 499: }
  4801                           ;PR29.c: 500: }
  4802  059C  2FFA               	goto	l725
  4803                           	line	501
  4804                           	
  4805  059D                     l749:	
  4806                           	
  4807  059D                     l5396:	
  4808                           ;PR29.c: 501: else if (data==4)
  4809  059D  084C               	movf	(mode@data),w
  4810  059E  3A04               	xorlw	04h
  4811  059F  1D03               	skipz
  4812  05A0  2DA2               	goto	u5261
  4813  05A1  2DA3               	goto	u5260
  4814  05A2                     u5261:
  4815  05A2  2E25               	goto	l5420
  4816  05A3                     u5260:
  4817                           	line	503
  4818                           	
  4819  05A3                     l5398:	
  4820                           ;PR29.c: 502: {
  4821                           ;PR29.c: 503: send_cmd(0x05,0x00,location,0x03);
  4822  05A3  1003               	clrc
  4823  05A4  3000               	movlw	0
  4824  05A5  1803               	btfsc	status,0
  4825  05A6  3001               	movlw	1
  4826  05A7  00F1               	movwf	(?_send_cmd)
  4827  05A8  085C               	movf	(_location),w
  4828  05A9  00CA               	movwf	(??_mode+0)+0
  4829  05AA  084A               	movf	(??_mode+0)+0,w
  4830  05AB  00F2               	movwf	0+(?_send_cmd)+01h
  4831  05AC  3003               	movlw	(03h)
  4832  05AD  00CB               	movwf	(??_mode+1)+0
  4833  05AE  084B               	movf	(??_mode+1)+0,w
  4834  05AF  00F3               	movwf	0+(?_send_cmd)+02h
  4835  05B0  3005               	movlw	(05h)
  4836  05B1  160A  158A  266C   	fcall	_send_cmd
              120A  118A         
  4837                           	line	504
  4838                           ;PR29.c: 504: delay(10);
  4839  05B6  3000               	movlw	0
  4840  05B7  00F3               	movwf	(?_delay+3)
  4841  05B8  3000               	movlw	0
  4842  05B9  00F2               	movwf	(?_delay+2)
  4843  05BA  3000               	movlw	0
  4844  05BB  00F1               	movwf	(?_delay+1)
  4845  05BC  300A               	movlw	0Ah
  4846  05BD  00F0               	movwf	(?_delay)
  4847                           
  4848  05BE  160A  158A  25CD   	fcall	_delay
              120A  118A         
  4849                           	line	505
  4850                           	
  4851  05C3                     l5400:	
  4852                           ;PR29.c: 505: receive_reply();
  4853  05C3  160A  158A  26A5   	fcall	_receive_reply
              120A  118A         
  4854                           	line	506
  4855                           	
  4856  05C8                     l5402:	
  4857                           ;PR29.c: 506: if(error!=1)
  4858  05C8  1283               	bcf	status, 5	;RP0=0, select bank0
  4859  05C9  1303               	bcf	status, 6	;RP1=0, select bank0
  4860  05CA  19D9               	btfsc	(_error/8),(_error)&7
  4861  05CB  2DCD               	goto	u5271
  4862  05CC  2DCE               	goto	u5270
  4863  05CD                     u5271:
  4864  05CD  2FFA               	goto	l725
  4865  05CE                     u5270:
  4866  05CE  2DCF               	goto	l5404
  4867                           	line	509
  4868                           ;PR29.c: 507: {
  4869                           ;PR29.c: 509: do{
  4870                           	
  4871  05CF                     l774:	
  4872                           	line	510
  4873                           	
  4874  05CF                     l5404:	
  4875                           ;PR29.c: 510: lcd_goto(0);
  4876  05CF  3000               	movlw	(0)
  4877  05D0  120A  158A  2004   	fcall	_lcd_goto
              120A  118A         
  4878                           	line	511
  4879                           	
  4880  05D5                     l5406:	
  4881                           ;PR29.c: 511: send_string("New Admin Needed");
  4882  05D5  30DE               	movlw	low(STR_28|8000h)
  4883  05D6  00F9               	movwf	(?_send_string)
  4884  05D7  3099               	movlw	high(STR_28|8000h)
  4885  05D8  00FA               	movwf	((?_send_string))+1
  4886  05D9  160A  158A  25FD   	fcall	_send_string
              120A  118A         
  4887                           	line	512
  4888                           	
  4889  05DE                     l5408:	
  4890                           ;PR29.c: 512: delay(200000);
  4891  05DE  3000               	movlw	0
  4892  05DF  00F3               	movwf	(?_delay+3)
  4893  05E0  3003               	movlw	03h
  4894  05E1  00F2               	movwf	(?_delay+2)
  4895  05E2  300D               	movlw	0Dh
  4896  05E3  00F1               	movwf	(?_delay+1)
  4897  05E4  3040               	movlw	040h
  4898  05E5  00F0               	movwf	(?_delay)
  4899                           
  4900  05E6  160A  158A  25CD   	fcall	_delay
              120A  118A         
  4901                           	line	513
  4902                           	
  4903  05EB                     l5410:	
  4904                           ;PR29.c: 513: lcd_goto(0);
  4905  05EB  3000               	movlw	(0)
  4906  05EC  120A  158A  2004   	fcall	_lcd_goto
              120A  118A         
  4907                           	line	514
  4908                           	
  4909  05F1                     l5412:	
  4910                           ;PR29.c: 514: send_string("New Admin       ");
  4911  05F1  3068               	movlw	low(STR_29|8000h)
  4912  05F2  00F9               	movwf	(?_send_string)
  4913  05F3  3098               	movlw	high(STR_29|8000h)
  4914  05F4  00FA               	movwf	((?_send_string))+1
  4915  05F5  160A  158A  25FD   	fcall	_send_string
              120A  118A         
  4916                           	line	515
  4917                           ;PR29.c: 515: lcd_goto(20);
  4918  05FA  3014               	movlw	(014h)
  4919  05FB  120A  158A  2004   	fcall	_lcd_goto
              120A  118A         
  4920                           	line	516
  4921                           	
  4922  0600                     l5414:	
  4923                           ;PR29.c: 516: send_string("Standby         ");
  4924  0600  3057               	movlw	low(STR_30|8000h)
  4925  0601  00F9               	movwf	(?_send_string)
  4926  0602  3098               	movlw	high(STR_30|8000h)
  4927  0603  00FA               	movwf	((?_send_string))+1
  4928  0604  160A  158A  25FD   	fcall	_send_string
              120A  118A         
  4929                           	line	517
  4930                           	
  4931  0609                     l5416:	
  4932                           ;PR29.c: 517: delay(200000);
  4933  0609  3000               	movlw	0
  4934  060A  00F3               	movwf	(?_delay+3)
  4935  060B  3003               	movlw	03h
  4936  060C  00F2               	movwf	(?_delay+2)
  4937  060D  300D               	movlw	0Dh
  4938  060E  00F1               	movwf	(?_delay+1)
  4939  060F  3040               	movlw	040h
  4940  0610  00F0               	movwf	(?_delay)
  4941                           
  4942  0611  160A  158A  25CD   	fcall	_delay
              120A  118A         
  4943                           	line	518
  4944                           ;PR29.c: 518: AddNew(0xFF);
  4945  0616  30FF               	movlw	(0FFh)
  4946  0617  160A  158A  2730   	fcall	_AddNew
              120A  118A         
  4947                           	line	519
  4948                           	
  4949  061C                     l5418:	
  4950                           ;PR29.c: 519: }while(error==1) ;
  4951  061C  1283               	bcf	status, 5	;RP0=0, select bank0
  4952  061D  1303               	bcf	status, 6	;RP1=0, select bank0
  4953  061E  19D9               	btfsc	(_error/8),(_error)&7
  4954  061F  2E21               	goto	u5281
  4955  0620  2E22               	goto	u5280
  4956  0621                     u5281:
  4957  0621  2DCF               	goto	l5404
  4958  0622                     u5280:
  4959  0622  2FFA               	goto	l725
  4960                           	
  4961  0623                     l775:	
  4962  0623  2FFA               	goto	l725
  4963                           	line	520
  4964                           	
  4965  0624                     l773:	
  4966                           	line	523
  4967                           ;PR29.c: 520: }
  4968                           ;PR29.c: 523: }
  4969  0624  2FFA               	goto	l725
  4970                           	line	525
  4971                           	
  4972  0625                     l772:	
  4973                           	
  4974  0625                     l5420:	
  4975                           ;PR29.c: 525: else if(data==5)
  4976  0625  084C               	movf	(mode@data),w
  4977  0626  3A05               	xorlw	05h
  4978  0627  1D03               	skipz
  4979  0628  2E2A               	goto	u5291
  4980  0629  2E2B               	goto	u5290
  4981  062A                     u5291:
  4982  062A  2ED2               	goto	l5454
  4983  062B                     u5290:
  4984                           	line	527
  4985                           	
  4986  062B                     l5422:	
  4987                           ;PR29.c: 526: {
  4988                           ;PR29.c: 527: lcd_goto(0);
  4989  062B  3000               	movlw	(0)
  4990  062C  120A  158A  2004   	fcall	_lcd_goto
              120A  118A         
  4991                           	line	528
  4992                           	
  4993  0631                     l5424:	
  4994                           ;PR29.c: 528: send_string("Verification of ");
  4995  0631  3078               	movlw	low(STR_31|8000h)
  4996  0632  00F9               	movwf	(?_send_string)
  4997  0633  3099               	movlw	high(STR_31|8000h)
  4998  0634  00FA               	movwf	((?_send_string))+1
  4999  0635  160A  158A  25FD   	fcall	_send_string
              120A  118A         
  5000                           	line	529
  5001                           	
  5002  063A                     l5426:	
  5003                           ;PR29.c: 529: lcd_goto(20);
  5004  063A  3014               	movlw	(014h)
  5005  063B  120A  158A  2004   	fcall	_lcd_goto
              120A  118A         
  5006                           	line	530
  5007                           ;PR29.c: 530: send_string("Formal Admin    ") ;
  5008  0640  30DF               	movlw	low(STR_32|8000h)
  5009  0641  00F9               	movwf	(?_send_string)
  5010  0642  3098               	movlw	high(STR_32|8000h)
  5011  0643  00FA               	movwf	((?_send_string))+1
  5012  0644  160A  158A  25FD   	fcall	_send_string
              120A  118A         
  5013                           	line	531
  5014                           	
  5015  0649                     l5428:	
  5016                           ;PR29.c: 531: delay(200000);
  5017  0649  3000               	movlw	0
  5018  064A  00F3               	movwf	(?_delay+3)
  5019  064B  3003               	movlw	03h
  5020  064C  00F2               	movwf	(?_delay+2)
  5021  064D  300D               	movlw	0Dh
  5022  064E  00F1               	movwf	(?_delay+1)
  5023  064F  3040               	movlw	040h
  5024  0650  00F0               	movwf	(?_delay)
  5025                           
  5026  0651  160A  158A  25CD   	fcall	_delay
              120A  118A         
  5027                           	line	532
  5028                           	
  5029  0656                     l5430:	
  5030                           ;PR29.c: 532: CheckAdmin();
  5031  0656  160A  158A  26E9   	fcall	_CheckAdmin
              120A  118A         
  5032                           	line	533
  5033                           	
  5034  065B                     l5432:	
  5035                           ;PR29.c: 533: if(error==0)
  5036  065B  1283               	bcf	status, 5	;RP0=0, select bank0
  5037  065C  1303               	bcf	status, 6	;RP1=0, select bank0
  5038  065D  19D9               	btfsc	(_error/8),(_error)&7
  5039  065E  2E60               	goto	u5301
  5040  065F  2E61               	goto	u5300
  5041  0660                     u5301:
  5042  0660  2FFA               	goto	l725
  5043  0661                     u5300:
  5044                           	line	535
  5045                           	
  5046  0661                     l5434:	
  5047                           ;PR29.c: 534: {
  5048                           ;PR29.c: 535: lcd_goto(0);
  5049  0661  3000               	movlw	(0)
  5050  0662  120A  158A  2004   	fcall	_lcd_goto
              120A  118A         
  5051                           	line	536
  5052                           	
  5053  0667                     l5436:	
  5054                           ;PR29.c: 536: send_string("Deleting...");
  5055  0667  3053               	movlw	low(STR_33|8000h)
  5056  0668  00F9               	movwf	(?_send_string)
  5057  0669  309A               	movlw	high(STR_33|8000h)
  5058  066A  00FA               	movwf	((?_send_string))+1
  5059  066B  160A  158A  25FD   	fcall	_send_string
              120A  118A         
  5060                           	line	537
  5061                           	
  5062  0670                     l5438:	
  5063                           ;PR29.c: 537: delay(50000);
  5064  0670  3000               	movlw	0
  5065  0671  00F3               	movwf	(?_delay+3)
  5066  0672  3000               	movlw	0
  5067  0673  00F2               	movwf	(?_delay+2)
  5068  0674  30C3               	movlw	0C3h
  5069  0675  00F1               	movwf	(?_delay+1)
  5070  0676  3050               	movlw	050h
  5071  0677  00F0               	movwf	(?_delay)
  5072                           
  5073  0678  160A  158A  25CD   	fcall	_delay
              120A  118A         
  5074                           	line	538
  5075                           	
  5076  067D                     l5440:	
  5077                           ;PR29.c: 538: send_cmd(0x04,0x00,0xFF,0x00);
  5078  067D  1003               	clrc
  5079  067E  3000               	movlw	0
  5080  067F  1803               	btfsc	status,0
  5081  0680  3001               	movlw	1
  5082  0681  00F1               	movwf	(?_send_cmd)
  5083  0682  30FF               	movlw	(0FFh)
  5084  0683  1283               	bcf	status, 5	;RP0=0, select bank0
  5085  0684  1303               	bcf	status, 6	;RP1=0, select bank0
  5086  0685  00CA               	movwf	(??_mode+0)+0
  5087  0686  084A               	movf	(??_mode+0)+0,w
  5088  0687  00F2               	movwf	0+(?_send_cmd)+01h
  5089  0688  1003               	clrc
  5090  0689  3000               	movlw	0
  5091  068A  1803               	btfsc	status,0
  5092  068B  3001               	movlw	1
  5093  068C  00F3               	movwf	0+(?_send_cmd)+02h
  5094  068D  3004               	movlw	(04h)
  5095  068E  160A  158A  266C   	fcall	_send_cmd
              120A  118A         
  5096                           	line	539
  5097                           	
  5098  0693                     l5442:	
  5099                           ;PR29.c: 539: receive_reply();
  5100  0693  160A  158A  26A5   	fcall	_receive_reply
              120A  118A         
  5101                           	line	540
  5102                           ;PR29.c: 540: do{
  5103                           	
  5104  0698                     l779:	
  5105                           	line	541
  5106                           ;PR29.c: 541: lcd_goto(0);
  5107  0698  3000               	movlw	(0)
  5108  0699  120A  158A  2004   	fcall	_lcd_goto
              120A  118A         
  5109                           	line	542
  5110                           	
  5111  069E                     l5444:	
  5112                           ;PR29.c: 542: send_string("New Admin       ");
  5113  069E  3068               	movlw	low(STR_34|8000h)
  5114  069F  00F9               	movwf	(?_send_string)
  5115  06A0  3098               	movlw	high(STR_34|8000h)
  5116  06A1  00FA               	movwf	((?_send_string))+1
  5117  06A2  160A  158A  25FD   	fcall	_send_string
              120A  118A         
  5118                           	line	543
  5119                           	
  5120  06A7                     l5446:	
  5121                           ;PR29.c: 543: lcd_goto(20);
  5122  06A7  3014               	movlw	(014h)
  5123  06A8  120A  158A  2004   	fcall	_lcd_goto
              120A  118A         
  5124                           	line	544
  5125                           ;PR29.c: 544: send_string("Standby         ");
  5126  06AD  3057               	movlw	low(STR_35|8000h)
  5127  06AE  00F9               	movwf	(?_send_string)
  5128  06AF  3098               	movlw	high(STR_35|8000h)
  5129  06B0  00FA               	movwf	((?_send_string))+1
  5130  06B1  160A  158A  25FD   	fcall	_send_string
              120A  118A         
  5131                           	line	545
  5132                           	
  5133  06B6                     l5448:	
  5134                           ;PR29.c: 545: delay(200000);
  5135  06B6  3000               	movlw	0
  5136  06B7  00F3               	movwf	(?_delay+3)
  5137  06B8  3003               	movlw	03h
  5138  06B9  00F2               	movwf	(?_delay+2)
  5139  06BA  300D               	movlw	0Dh
  5140  06BB  00F1               	movwf	(?_delay+1)
  5141  06BC  3040               	movlw	040h
  5142  06BD  00F0               	movwf	(?_delay)
  5143                           
  5144  06BE  160A  158A  25CD   	fcall	_delay
              120A  118A         
  5145                           	line	546
  5146                           	
  5147  06C3                     l5450:	
  5148                           ;PR29.c: 546: AddNew(0xFF);
  5149  06C3  30FF               	movlw	(0FFh)
  5150  06C4  160A  158A  2730   	fcall	_AddNew
              120A  118A         
  5151                           	line	547
  5152                           	
  5153  06C9                     l5452:	
  5154                           ;PR29.c: 547: }while(error==1) ;
  5155  06C9  1283               	bcf	status, 5	;RP0=0, select bank0
  5156  06CA  1303               	bcf	status, 6	;RP1=0, select bank0
  5157  06CB  19D9               	btfsc	(_error/8),(_error)&7
  5158  06CC  2ECE               	goto	u5311
  5159  06CD  2ECF               	goto	u5310
  5160  06CE                     u5311:
  5161  06CE  2E98               	goto	l779
  5162  06CF                     u5310:
  5163  06CF  2FFA               	goto	l725
  5164                           	
  5165  06D0                     l780:	
  5166  06D0  2FFA               	goto	l725
  5167                           	line	548
  5168                           	
  5169  06D1                     l778:	
  5170                           	line	549
  5171                           ;PR29.c: 548: }
  5172                           ;PR29.c: 549: }
  5173  06D1  2FFA               	goto	l725
  5174                           	line	550
  5175                           	
  5176  06D2                     l777:	
  5177                           	
  5178  06D2                     l5454:	
  5179                           ;PR29.c: 550: else if(data==6)
  5180  06D2  084C               	movf	(mode@data),w
  5181  06D3  3A06               	xorlw	06h
  5182  06D4  1D03               	skipz
  5183  06D5  2ED7               	goto	u5321
  5184  06D6  2ED8               	goto	u5320
  5185  06D7                     u5321:
  5186  06D7  2EDE               	goto	l5458
  5187  06D8                     u5320:
  5188                           	line	552
  5189                           	
  5190  06D8                     l5456:	
  5191                           ;PR29.c: 551: {
  5192                           ;PR29.c: 552: view_attendance();
  5193  06D8  160A  118A  21F7   	fcall	_view_attendance
              120A  118A         
  5194                           	line	553
  5195                           ;PR29.c: 553: }
  5196  06DD  2FFA               	goto	l725
  5197                           	line	554
  5198                           	
  5199  06DE                     l782:	
  5200                           	
  5201  06DE                     l5458:	
  5202                           ;PR29.c: 554: else if(data==7)
  5203  06DE  1283               	bcf	status, 5	;RP0=0, select bank0
  5204  06DF  1303               	bcf	status, 6	;RP1=0, select bank0
  5205  06E0  084C               	movf	(mode@data),w
  5206  06E1  3A07               	xorlw	07h
  5207  06E2  1D03               	skipz
  5208  06E3  2EE5               	goto	u5331
  5209  06E4  2EE6               	goto	u5330
  5210  06E5                     u5331:
  5211  06E5  2F1B               	goto	l5472
  5212  06E6                     u5330:
  5213                           	line	556
  5214                           	
  5215  06E6                     l5460:	
  5216                           ;PR29.c: 555: {
  5217                           ;PR29.c: 556: RA1=1;
  5218  06E6  1485               	bsf	(41/8),(41)&7
  5219                           	line	557
  5220                           	
  5221  06E7                     l5462:	
  5222                           ;PR29.c: 557: clear_attendance();
  5223  06E7  120A  118A  20BF   	fcall	_clear_attendance
              120A  118A         
  5224                           	line	558
  5225                           ;PR29.c: 558: lcd_goto(0);
  5226  06EC  3000               	movlw	(0)
  5227  06ED  120A  158A  2004   	fcall	_lcd_goto
              120A  118A         
  5228                           	line	559
  5229                           	
  5230  06F2                     l5464:	
  5231                           ;PR29.c: 559: send_string("Attendance      ");
  5232  06F2  3079               	movlw	low(STR_36|8000h)
  5233  06F3  00F9               	movwf	(?_send_string)
  5234  06F4  3098               	movlw	high(STR_36|8000h)
  5235  06F5  00FA               	movwf	((?_send_string))+1
  5236  06F6  160A  158A  25FD   	fcall	_send_string
              120A  118A         
  5237                           	line	560
  5238                           	
  5239  06FB                     l5466:	
  5240                           ;PR29.c: 560: lcd_goto(20);
  5241  06FB  3014               	movlw	(014h)
  5242  06FC  120A  158A  2004   	fcall	_lcd_goto
              120A  118A         
  5243                           	line	561
  5244                           ;PR29.c: 561: send_string("Cleared         ");
  5245  0701  3035               	movlw	low(STR_37|8000h)
  5246  0702  00F9               	movwf	(?_send_string)
  5247  0703  3098               	movlw	high(STR_37|8000h)
  5248  0704  00FA               	movwf	((?_send_string))+1
  5249  0705  160A  158A  25FD   	fcall	_send_string
              120A  118A         
  5250                           	line	562
  5251                           	
  5252  070A                     l5468:	
  5253                           ;PR29.c: 562: delay(200000);
  5254  070A  3000               	movlw	0
  5255  070B  00F3               	movwf	(?_delay+3)
  5256  070C  3003               	movlw	03h
  5257  070D  00F2               	movwf	(?_delay+2)
  5258  070E  300D               	movlw	0Dh
  5259  070F  00F1               	movwf	(?_delay+1)
  5260  0710  3040               	movlw	040h
  5261  0711  00F0               	movwf	(?_delay)
  5262                           
  5263  0712  160A  158A  25CD   	fcall	_delay
              120A  118A         
  5264                           	line	563
  5265                           	
  5266  0717                     l5470:	
  5267                           ;PR29.c: 563: RA1=0;
  5268  0717  1283               	bcf	status, 5	;RP0=0, select bank0
  5269  0718  1303               	bcf	status, 6	;RP1=0, select bank0
  5270  0719  1085               	bcf	(41/8),(41)&7
  5271                           	line	564
  5272                           ;PR29.c: 564: }
  5273  071A  2FFA               	goto	l725
  5274                           	line	565
  5275                           	
  5276  071B                     l784:	
  5277                           	
  5278  071B                     l5472:	
  5279                           ;PR29.c: 565: else if(data==8)
  5280  071B  084C               	movf	(mode@data),w
  5281  071C  3A08               	xorlw	08h
  5282  071D  1D03               	skipz
  5283  071E  2F20               	goto	u5341
  5284  071F  2F21               	goto	u5340
  5285  0720                     u5341:
  5286  0720  2FFA               	goto	l725
  5287  0721                     u5340:
  5288  0721  2FEE               	goto	l5530
  5289                           	line	568
  5290                           	
  5291  0722                     l5474:	
  5292                           ;PR29.c: 566: {
  5293                           ;PR29.c: 568: while(export_select==0)
  5294  0722  2FEE               	goto	l5530
  5295                           	
  5296  0723                     l788:	
  5297                           	line	570
  5298                           	
  5299  0723                     l5476:	
  5300                           ;PR29.c: 569: {
  5301                           ;PR29.c: 570: lcd_goto(0);
  5302  0723  3000               	movlw	(0)
  5303  0724  120A  158A  2004   	fcall	_lcd_goto
              120A  118A         
  5304                           	line	571
  5305                           	
  5306  0729                     l5478:	
  5307                           ;PR29.c: 571: send_string("1. Export to GUI");
  5308  0729  30BC               	movlw	low(STR_38|8000h)
  5309  072A  00F9               	movwf	(?_send_string)
  5310  072B  3099               	movlw	high(STR_38|8000h)
  5311  072C  00FA               	movwf	((?_send_string))+1
  5312  072D  160A  158A  25FD   	fcall	_send_string
              120A  118A         
  5313                           	line	572
  5314                           	
  5315  0732                     l5480:	
  5316                           ;PR29.c: 572: lcd_goto(20);
  5317  0732  3014               	movlw	(014h)
  5318  0733  120A  158A  2004   	fcall	_lcd_goto
              120A  118A         
  5319                           	line	573
  5320                           ;PR29.c: 573: send_string("2. Export to HT ");
  5321  0738  3045               	movlw	low(STR_39|8000h)
  5322  0739  00F9               	movwf	(?_send_string)
  5323  073A  3099               	movlw	high(STR_39|8000h)
  5324  073B  00FA               	movwf	((?_send_string))+1
  5325  073C  160A  158A  25FD   	fcall	_send_string
              120A  118A         
  5326                           	line	574
  5327                           	
  5328  0741                     l5482:	
  5329                           ;PR29.c: 574: if(!RA2)
  5330  0741  1283               	bcf	status, 5	;RP0=0, select bank0
  5331  0742  1303               	bcf	status, 6	;RP1=0, select bank0
  5332  0743  1905               	btfsc	(42/8),(42)&7
  5333  0744  2F46               	goto	u5351
  5334  0745  2F47               	goto	u5350
  5335  0746                     u5351:
  5336  0746  2F98               	goto	l5506
  5337  0747                     u5350:
  5338  0747  2F49               	goto	l790
  5339                           	line	576
  5340                           	
  5341  0748                     l5484:	
  5342                           ;PR29.c: 575: {
  5343                           ;PR29.c: 576: while(!RA2);
  5344  0748  2F49               	goto	l790
  5345                           	
  5346  0749                     l791:	
  5347                           	
  5348  0749                     l790:	
  5349  0749  1D05               	btfss	(42/8),(42)&7
  5350  074A  2F4C               	goto	u5361
  5351  074B  2F4D               	goto	u5360
  5352  074C                     u5361:
  5353  074C  2F49               	goto	l790
  5354  074D                     u5360:
  5355  074D  2F4E               	goto	l5486
  5356                           	
  5357  074E                     l792:	
  5358                           	line	577
  5359                           	
  5360  074E                     l5486:	
  5361                           ;PR29.c: 577: lcd_clr();
  5362  074E  160A  158A  24EA   	fcall	_lcd_clr
              120A  118A         
  5363                           	line	578
  5364                           ;PR29.c: 578: lcd_goto(0);
  5365  0753  3000               	movlw	(0)
  5366  0754  120A  158A  2004   	fcall	_lcd_goto
              120A  118A         
  5367                           	line	579
  5368                           	
  5369  0759                     l5488:	
  5370                           ;PR29.c: 579: send_string("Uploading...    ");
  5371  0759  30BD               	movlw	low(STR_40|8000h)
  5372  075A  00F9               	movwf	(?_send_string)
  5373  075B  3098               	movlw	high(STR_40|8000h)
  5374  075C  00FA               	movwf	((?_send_string))+1
  5375  075D  160A  158A  25FD   	fcall	_send_string
              120A  118A         
  5376                           	line	580
  5377                           	
  5378  0762                     l5490:	
  5379                           ;PR29.c: 580: RA0=1;
  5380  0762  1283               	bcf	status, 5	;RP0=0, select bank0
  5381  0763  1303               	bcf	status, 6	;RP1=0, select bank0
  5382  0764  1405               	bsf	(40/8),(40)&7
  5383                           	line	581
  5384                           	
  5385  0765                     l5492:	
  5386                           ;PR29.c: 581: delay(150000);
  5387  0765  3000               	movlw	0
  5388  0766  00F3               	movwf	(?_delay+3)
  5389  0767  3002               	movlw	02h
  5390  0768  00F2               	movwf	(?_delay+2)
  5391  0769  3049               	movlw	049h
  5392  076A  00F1               	movwf	(?_delay+1)
  5393  076B  30F0               	movlw	0F0h
  5394  076C  00F0               	movwf	(?_delay)
  5395                           
  5396  076D  160A  158A  25CD   	fcall	_delay
              120A  118A         
  5397                           	line	582
  5398                           	
  5399  0772                     l5494:	
  5400                           ;PR29.c: 582: upload_GUI();
  5401  0772  120A  158A  2182   	fcall	_upload_GUI
              120A  118A         
  5402                           	line	583
  5403                           	
  5404  0777                     l5496:	
  5405                           ;PR29.c: 583: lcd_goto(20);
  5406  0777  3014               	movlw	(014h)
  5407  0778  120A  158A  2004   	fcall	_lcd_goto
              120A  118A         
  5408                           	line	584
  5409                           	
  5410  077D                     l5498:	
  5411                           ;PR29.c: 584: send_string("Done            ");
  5412  077D  3013               	movlw	low(STR_41|8000h)
  5413  077E  00F9               	movwf	(?_send_string)
  5414  077F  3098               	movlw	high(STR_41|8000h)
  5415  0780  00FA               	movwf	((?_send_string))+1
  5416  0781  160A  158A  25FD   	fcall	_send_string
              120A  118A         
  5417                           	line	585
  5418                           	
  5419  0786                     l5500:	
  5420                           ;PR29.c: 585: delay(100000);
  5421  0786  3000               	movlw	0
  5422  0787  00F3               	movwf	(?_delay+3)
  5423  0788  3001               	movlw	01h
  5424  0789  00F2               	movwf	(?_delay+2)
  5425  078A  3086               	movlw	086h
  5426  078B  00F1               	movwf	(?_delay+1)
  5427  078C  30A0               	movlw	0A0h
  5428  078D  00F0               	movwf	(?_delay)
  5429                           
  5430  078E  160A  158A  25CD   	fcall	_delay
              120A  118A         
  5431                           	line	586
  5432                           	
  5433  0793                     l5502:	
  5434                           ;PR29.c: 586: RA0=0;
  5435  0793  1283               	bcf	status, 5	;RP0=0, select bank0
  5436  0794  1303               	bcf	status, 6	;RP1=0, select bank0
  5437  0795  1005               	bcf	(40/8),(40)&7
  5438                           	line	587
  5439                           	
  5440  0796                     l5504:	
  5441                           ;PR29.c: 587: export_select=1;
  5442  0796  1659               	bsf	(_export_select/8),(_export_select)&7
  5443  0797  2F98               	goto	l5506
  5444                           	line	589
  5445                           	
  5446  0798                     l789:	
  5447                           	line	590
  5448                           	
  5449  0798                     l5506:	
  5450                           ;PR29.c: 589: }
  5451                           ;PR29.c: 590: if(!RA3)
  5452  0798  1985               	btfsc	(43/8),(43)&7
  5453  0799  2F9B               	goto	u5371
  5454  079A  2F9C               	goto	u5370
  5455  079B                     u5371:
  5456  079B  2FEE               	goto	l5530
  5457  079C                     u5370:
  5458  079C  2F9E               	goto	l794
  5459                           	line	592
  5460                           	
  5461  079D                     l5508:	
  5462                           ;PR29.c: 591: {
  5463                           ;PR29.c: 592: while(!RA3);
  5464  079D  2F9E               	goto	l794
  5465                           	
  5466  079E                     l795:	
  5467                           	
  5468  079E                     l794:	
  5469  079E  1D85               	btfss	(43/8),(43)&7
  5470  079F  2FA1               	goto	u5381
  5471  07A0  2FA2               	goto	u5380
  5472  07A1                     u5381:
  5473  07A1  2F9E               	goto	l794
  5474  07A2                     u5380:
  5475  07A2  2FA3               	goto	l5510
  5476                           	
  5477  07A3                     l796:	
  5478                           	line	593
  5479                           	
  5480  07A3                     l5510:	
  5481                           ;PR29.c: 593: lcd_clr();
  5482  07A3  160A  158A  24EA   	fcall	_lcd_clr
              120A  118A         
  5483                           	line	594
  5484                           ;PR29.c: 594: lcd_goto(0);
  5485  07A8  3000               	movlw	(0)
  5486  07A9  120A  158A  2004   	fcall	_lcd_goto
              120A  118A         
  5487                           	line	595
  5488                           	
  5489  07AE                     l5512:	
  5490                           ;PR29.c: 595: send_string("Uploading...    ");
  5491  07AE  30BD               	movlw	low(STR_42|8000h)
  5492  07AF  00F9               	movwf	(?_send_string)
  5493  07B0  3098               	movlw	high(STR_42|8000h)
  5494  07B1  00FA               	movwf	((?_send_string))+1
  5495  07B2  160A  158A  25FD   	fcall	_send_string
              120A  118A         
  5496                           	line	596
  5497                           	
  5498  07B7                     l5514:	
  5499                           ;PR29.c: 596: RA0=1;
  5500  07B7  1283               	bcf	status, 5	;RP0=0, select bank0
  5501  07B8  1303               	bcf	status, 6	;RP1=0, select bank0
  5502  07B9  1405               	bsf	(40/8),(40)&7
  5503                           	line	597
  5504                           	
  5505  07BA                     l5516:	
  5506                           ;PR29.c: 597: delay(150000);
  5507  07BA  3000               	movlw	0
  5508  07BB  00F3               	movwf	(?_delay+3)
  5509  07BC  3002               	movlw	02h
  5510  07BD  00F2               	movwf	(?_delay+2)
  5511  07BE  3049               	movlw	049h
  5512  07BF  00F1               	movwf	(?_delay+1)
  5513  07C0  30F0               	movlw	0F0h
  5514  07C1  00F0               	movwf	(?_delay)
  5515                           
  5516  07C2  160A  158A  25CD   	fcall	_delay
              120A  118A         
  5517                           	line	598
  5518                           	
  5519  07C7                     l5518:	
  5520                           ;PR29.c: 598: upload_HT();
  5521  07C7  120A  158A  23D7   	fcall	_upload_HT
              120A  118A         
  5522                           	line	599
  5523                           	
  5524  07CC                     l5520:	
  5525                           ;PR29.c: 599: lcd_goto(20);
  5526  07CC  3014               	movlw	(014h)
  5527  07CD  120A  158A  2004   	fcall	_lcd_goto
              120A  118A         
  5528                           	line	600
  5529                           	
  5530  07D2                     l5522:	
  5531                           ;PR29.c: 600: send_string("Done            ");
  5532  07D2  3013               	movlw	low(STR_43|8000h)
  5533  07D3  00F9               	movwf	(?_send_string)
  5534  07D4  3098               	movlw	high(STR_43|8000h)
  5535  07D5  00FA               	movwf	((?_send_string))+1
  5536  07D6  160A  158A  25FD   	fcall	_send_string
              120A  118A         
  5537                           	line	601
  5538                           	
  5539  07DB                     l5524:	
  5540                           ;PR29.c: 601: delay(100000);
  5541  07DB  3000               	movlw	0
  5542  07DC  00F3               	movwf	(?_delay+3)
  5543  07DD  3001               	movlw	01h
  5544  07DE  00F2               	movwf	(?_delay+2)
  5545  07DF  3086               	movlw	086h
  5546  07E0  00F1               	movwf	(?_delay+1)
  5547  07E1  30A0               	movlw	0A0h
  5548  07E2  00F0               	movwf	(?_delay)
  5549                           
  5550  07E3  160A  158A  25CD   	fcall	_delay
              120A  118A         
  5551                           	line	602
  5552                           	
  5553  07E8                     l5526:	
  5554                           ;PR29.c: 602: RA0=0;
  5555  07E8  1283               	bcf	status, 5	;RP0=0, select bank0
  5556  07E9  1303               	bcf	status, 6	;RP1=0, select bank0
  5557  07EA  1005               	bcf	(40/8),(40)&7
  5558                           	line	603
  5559                           	
  5560  07EB                     l5528:	
  5561                           ;PR29.c: 603: export_select=1;
  5562  07EB  1659               	bsf	(_export_select/8),(_export_select)&7
  5563  07EC  2FEE               	goto	l5530
  5564                           	line	605
  5565                           	
  5566  07ED                     l793:	
  5567  07ED  2FEE               	goto	l5530
  5568                           	line	606
  5569                           	
  5570  07EE                     l787:	
  5571                           	line	568
  5572                           	
  5573  07EE                     l5530:	
  5574  07EE  1E59               	btfss	(_export_select/8),(_export_select)&7
  5575  07EF  2FF1               	goto	u5391
  5576  07F0  2FF2               	goto	u5390
  5577  07F1                     u5391:
  5578  07F1  2F23               	goto	l5476
  5579  07F2                     u5390:
  5580                           	
  5581  07F2                     l797:	
  5582                           	line	607
  5583                           ;PR29.c: 605: }
  5584                           ;PR29.c: 606: }
  5585                           ;PR29.c: 607: export_select=0;
  5586  07F2  1259               	bcf	(_export_select/8),(_export_select)&7
  5587  07F3  2FFA               	goto	l725
  5588                           	line	608
  5589                           	
  5590  07F4                     l786:	
  5591  07F4  2FFA               	goto	l725
  5592                           	line	609
  5593                           	
  5594  07F5                     l785:	
  5595  07F5  2FFA               	goto	l725
  5596                           	
  5597  07F6                     l783:	
  5598  07F6  2FFA               	goto	l725
  5599                           	
  5600  07F7                     l781:	
  5601  07F7  2FFA               	goto	l725
  5602                           	
  5603  07F8                     l776:	
  5604  07F8  2FFA               	goto	l725
  5605                           	
  5606  07F9                     l771:	
  5607  07F9  2FFA               	goto	l725
  5608                           	
  5609  07FA                     l748:	
  5610                           	
  5611  07FA                     l725:	
  5612                           ;PR29.c: 608: }
  5613                           ;PR29.c: 609: mode_enter=0;
  5614  07FA  1283               	bcf	status, 5	;RP0=0, select bank0
  5615  07FB  1303               	bcf	status, 6	;RP1=0, select bank0
  5616  07FC  1359               	bcf	(_mode_enter/8),(_mode_enter)&7
  5617                           	line	610
  5618                           ;PR29.c: 610: location_enter=0;
  5619  07FD  12D9               	bcf	(_location_enter/8),(_location_enter)&7
  5620                           	line	611
  5621                           ;PR29.c: 611: error=0;
  5622  07FE  11D9               	bcf	(_error/8),(_error)&7
  5623                           	line	612
  5624                           	
  5625  07FF                     l798:	
  5626  07FF  0008               	return
  5627                           	opt stack 0
  5628                           GLOBAL	__end_of_mode
  5629  0800                     	__end_of_mode:
  5630 ;; =============== function _mode ends ============
  5631                           
  5632                           	signat	_mode,4216
  5633                           	global	_ResetAdmin
  5634                           psect	text562,local,class=CODE,delta=2
  5635                           global __ptext562
  5636  0032                     __ptext562:
  5637                           
  5638 ;; *************** function _ResetAdmin *****************
  5639 ;; Defined at:
  5640 ;;		line 1176 in file "C:\Users\Phang\Desktop\9.80\PR 29\PR29.c"
  5641 ;; Parameters:    Size  Location     Type
  5642 ;;		None
  5643 ;; Auto vars:     Size  Location     Type
  5644 ;;		None
  5645 ;; Return value:  Size  Location     Type
  5646 ;;		None               void
  5647 ;; Registers used:
  5648 ;;		wreg, fsr0l, fsr0h, status,2, status,0, btemp+1, pclath, cstack
  5649 ;; Tracked objects:
  5650 ;;		On entry : 0/0
  5651 ;;		On exit  : 0/0
  5652 ;;		Unchanged: 0/0
  5653 ;; Data sizes:     COMMON   BANK0   BANK1   BANK3   BANK2
  5654 ;;      Params:         0       0       0       0       0
  5655 ;;      Locals:         0       0       0       0       0
  5656 ;;      Temps:          0       1       0       0       0
  5657 ;;      Totals:         0       1       0       0       0
  5658 ;;Total ram usage:        1 bytes
  5659 ;; Hardware stack levels used:    1
  5660 ;; Hardware stack levels required when called:    6
  5661 ;; This function calls:
  5662 ;;		_lcd_goto
  5663 ;;		_send_string
  5664 ;;		_delay
  5665 ;;		_send_cmd
  5666 ;;		_receive_reply
  5667 ;;		_AddNew
  5668 ;; This function is called by:
  5669 ;;		_main
  5670 ;; This function uses a non-reentrant model
  5671 ;;
  5672                           psect	text562
  5673                           	file	"C:\Users\Phang\Desktop\9.80\PR 29\PR29.c"
  5674                           	line	1176
  5675                           	global	__size_of_ResetAdmin
  5676  008D                     	__size_of_ResetAdmin	equ	__end_of_ResetAdmin-_ResetAdmin
  5677                           	
  5678  0032                     _ResetAdmin:	
  5679                           	opt	stack 1
  5680                           ; Regs used in _ResetAdmin: [wreg-fsr0h+status,2+status,0+btemp+1+pclath+cstack]
  5681                           	line	1177
  5682                           	
  5683  0032                     l5220:	
  5684                           ;PR29.c: 1177: lcd_goto(0);
  5685  0032  3000               	movlw	(0)
  5686  0033  120A  158A  2004   	fcall	_lcd_goto
              120A  118A         
  5687                           	line	1178
  5688                           	
  5689  0038                     l5222:	
  5690                           ;PR29.c: 1178: send_string("Resetting Admin...");
  5691  0038  3000               	movlw	low(STR_66|8000h)
  5692  0039  00F9               	movwf	(?_send_string)
  5693  003A  3098               	movlw	high(STR_66|8000h)
  5694  003B  00FA               	movwf	((?_send_string))+1
  5695  003C  160A  158A  25FD   	fcall	_send_string
              120A  118A         
  5696                           	line	1179
  5697                           	
  5698  0041                     l5224:	
  5699                           ;PR29.c: 1179: delay(200000);
  5700  0041  3000               	movlw	0
  5701  0042  00F3               	movwf	(?_delay+3)
  5702  0043  3003               	movlw	03h
  5703  0044  00F2               	movwf	(?_delay+2)
  5704  0045  300D               	movlw	0Dh
  5705  0046  00F1               	movwf	(?_delay+1)
  5706  0047  3040               	movlw	040h
  5707  0048  00F0               	movwf	(?_delay)
  5708                           
  5709  0049  160A  158A  25CD   	fcall	_delay
              120A  118A         
  5710                           	line	1180
  5711                           	
  5712  004E                     l5226:	
  5713                           ;PR29.c: 1180: send_cmd(0x04,0x00,0xFF,0x00);
  5714  004E  1003               	clrc
  5715  004F  3000               	movlw	0
  5716  0050  1803               	btfsc	status,0
  5717  0051  3001               	movlw	1
  5718  0052  00F1               	movwf	(?_send_cmd)
  5719  0053  30FF               	movlw	(0FFh)
  5720  0054  1283               	bcf	status, 5	;RP0=0, select bank0
  5721  0055  1303               	bcf	status, 6	;RP1=0, select bank0
  5722  0056  00A7               	movwf	(??_ResetAdmin+0)+0
  5723  0057  0827               	movf	(??_ResetAdmin+0)+0,w
  5724  0058  00F2               	movwf	0+(?_send_cmd)+01h
  5725  0059  1003               	clrc
  5726  005A  3000               	movlw	0
  5727  005B  1803               	btfsc	status,0
  5728  005C  3001               	movlw	1
  5729  005D  00F3               	movwf	0+(?_send_cmd)+02h
  5730  005E  3004               	movlw	(04h)
  5731  005F  160A  158A  266C   	fcall	_send_cmd
              120A  118A         
  5732                           	line	1181
  5733                           	
  5734  0064                     l5228:	
  5735                           ;PR29.c: 1181: receive_reply();
  5736  0064  160A  158A  26A5   	fcall	_receive_reply
              120A  118A         
  5737                           	line	1182
  5738                           ;PR29.c: 1182: lcd_goto(0);
  5739  0069  3000               	movlw	(0)
  5740  006A  120A  158A  2004   	fcall	_lcd_goto
              120A  118A         
  5741                           	line	1183
  5742                           	
  5743  006F                     l5230:	
  5744                           ;PR29.c: 1183: send_string("New Admin Needed");
  5745  006F  30DE               	movlw	low(STR_67|8000h)
  5746  0070  00F9               	movwf	(?_send_string)
  5747  0071  3099               	movlw	high(STR_67|8000h)
  5748  0072  00FA               	movwf	((?_send_string))+1
  5749  0073  160A  158A  25FD   	fcall	_send_string
              120A  118A         
  5750                           	line	1184
  5751                           	
  5752  0078                     l5232:	
  5753                           ;PR29.c: 1184: delay(200000);
  5754  0078  3000               	movlw	0
  5755  0079  00F3               	movwf	(?_delay+3)
  5756  007A  3003               	movlw	03h
  5757  007B  00F2               	movwf	(?_delay+2)
  5758  007C  300D               	movlw	0Dh
  5759  007D  00F1               	movwf	(?_delay+1)
  5760  007E  3040               	movlw	040h
  5761  007F  00F0               	movwf	(?_delay)
  5762                           
  5763  0080  160A  158A  25CD   	fcall	_delay
              120A  118A         
  5764  0085  2886               	goto	l5234
  5765                           	line	1185
  5766                           ;PR29.c: 1185: do{
  5767                           	
  5768  0086                     l978:	
  5769                           	line	1186
  5770                           	
  5771  0086                     l5234:	
  5772                           ;PR29.c: 1186: lcd_goto(0);
  5773  0086  3000               	movlw	(0)
  5774  0087  120A  158A  2004   	fcall	_lcd_goto
              120A  118A         
  5775                           	line	1187
  5776                           	
  5777  008C                     l5236:	
  5778                           ;PR29.c: 1187: send_string("New Admin       ");
  5779  008C  3068               	movlw	low(STR_68|8000h)
  5780  008D  00F9               	movwf	(?_send_string)
  5781  008E  3098               	movlw	high(STR_68|8000h)
  5782  008F  00FA               	movwf	((?_send_string))+1
  5783  0090  160A  158A  25FD   	fcall	_send_string
              120A  118A         
  5784                           	line	1188
  5785                           ;PR29.c: 1188: lcd_goto(20);
  5786  0095  3014               	movlw	(014h)
  5787  0096  120A  158A  2004   	fcall	_lcd_goto
              120A  118A         
  5788                           	line	1189
  5789                           	
  5790  009B                     l5238:	
  5791                           ;PR29.c: 1189: send_string("Standby");
  5792  009B  308F               	movlw	low(STR_69|8000h)
  5793  009C  00F9               	movwf	(?_send_string)
  5794  009D  309A               	movlw	high(STR_69|8000h)
  5795  009E  00FA               	movwf	((?_send_string))+1
  5796  009F  160A  158A  25FD   	fcall	_send_string
              120A  118A         
  5797                           	line	1190
  5798                           	
  5799  00A4                     l5240:	
  5800                           ;PR29.c: 1190: delay(200000);
  5801  00A4  3000               	movlw	0
  5802  00A5  00F3               	movwf	(?_delay+3)
  5803  00A6  3003               	movlw	03h
  5804  00A7  00F2               	movwf	(?_delay+2)
  5805  00A8  300D               	movlw	0Dh
  5806  00A9  00F1               	movwf	(?_delay+1)
  5807  00AA  3040               	movlw	040h
  5808  00AB  00F0               	movwf	(?_delay)
  5809                           
  5810  00AC  160A  158A  25CD   	fcall	_delay
              120A  118A         
  5811                           	line	1191
  5812                           ;PR29.c: 1191: AddNew(0xff);
  5813  00B1  30FF               	movlw	(0FFh)
  5814  00B2  160A  158A  2730   	fcall	_AddNew
              120A  118A         
  5815                           	line	1192
  5816                           	
  5817  00B7                     l5242:	
  5818                           ;PR29.c: 1192: } while(error==1) ;
  5819  00B7  1283               	bcf	status, 5	;RP0=0, select bank0
  5820  00B8  1303               	bcf	status, 6	;RP1=0, select bank0
  5821  00B9  19D9               	btfsc	(_error/8),(_error)&7
  5822  00BA  28BC               	goto	u4901
  5823  00BB  28BD               	goto	u4900
  5824  00BC                     u4901:
  5825  00BC  2886               	goto	l5234
  5826  00BD                     u4900:
  5827  00BD  28BE               	goto	l980
  5828                           	
  5829  00BE                     l979:	
  5830                           	line	1193
  5831                           	
  5832  00BE                     l980:	
  5833  00BE  0008               	return
  5834                           	opt stack 0
  5835                           GLOBAL	__end_of_ResetAdmin
  5836  00BF                     	__end_of_ResetAdmin:
  5837 ;; =============== function _ResetAdmin ends ============
  5838                           
  5839                           	signat	_ResetAdmin,88
  5840                           	global	_AddNew
  5841                           psect	text563,local,class=CODE,delta=2
  5842                           global __ptext563
  5843  1F30                     __ptext563:
  5844                           
  5845 ;; *************** function _AddNew *****************
  5846 ;; Defined at:
  5847 ;;		line 761 in file "C:\Users\Phang\Desktop\9.80\PR 29\PR29.c"
  5848 ;; Parameters:    Size  Location     Type
  5849 ;;  data            1    wreg     unsigned char 
  5850 ;; Auto vars:     Size  Location     Type
  5851 ;;  data            1    6[BANK0 ] unsigned char 
  5852 ;; Return value:  Size  Location     Type
  5853 ;;		None               void
  5854 ;; Registers used:
  5855 ;;		wreg, fsr0l, fsr0h, status,2, status,0, btemp+1, pclath, cstack
  5856 ;; Tracked objects:
  5857 ;;		On entry : 0/0
  5858 ;;		On exit  : 0/0
  5859 ;;		Unchanged: 0/0
  5860 ;; Data sizes:     COMMON   BANK0   BANK1   BANK3   BANK2
  5861 ;;      Params:         0       0       0       0       0
  5862 ;;      Locals:         0       1       0       0       0
  5863 ;;      Temps:          0       2       0       0       0
  5864 ;;      Totals:         0       3       0       0       0
  5865 ;;Total ram usage:        3 bytes
  5866 ;; Hardware stack levels used:    1
  5867 ;; Hardware stack levels required when called:    5
  5868 ;; This function calls:
  5869 ;;		_send_cmd
  5870 ;;		_lcd_goto
  5871 ;;		_send_string
  5872 ;;		_delay
  5873 ;;		_receive_reply
  5874 ;;		_lcd_clr
  5875 ;; This function is called by:
  5876 ;;		_mode
  5877 ;;		_ResetAdmin
  5878 ;; This function uses a non-reentrant model
  5879 ;;
  5880                           psect	text563
  5881                           	file	"C:\Users\Phang\Desktop\9.80\PR 29\PR29.c"
  5882                           	line	761
  5883                           	global	__size_of_AddNew
  5884  00D0                     	__size_of_AddNew	equ	__end_of_AddNew-_AddNew
  5885                           	
  5886  1F30                     _AddNew:	
  5887                           	opt	stack 1
  5888                           ; Regs used in _AddNew: [wreg-fsr0h+status,2+status,0+btemp+1+pclath+cstack]
  5889                           ;AddNew@data stored from wreg
  5890  1F30  1283               	bcf	status, 5	;RP0=0, select bank0
  5891  1F31  1303               	bcf	status, 6	;RP1=0, select bank0
  5892  1F32  00A6               	movwf	(AddNew@data)
  5893                           	line	762
  5894                           	
  5895  1F33                     l5184:	
  5896                           ;PR29.c: 762: send_cmd(0x01,0x00,data,0x03);
  5897  1F33  1003               	clrc
  5898  1F34  3000               	movlw	0
  5899  1F35  1803               	btfsc	status,0
  5900  1F36  3001               	movlw	1
  5901  1F37  00F1               	movwf	(?_send_cmd)
  5902  1F38  0826               	movf	(AddNew@data),w
  5903  1F39  00A4               	movwf	(??_AddNew+0)+0
  5904  1F3A  0824               	movf	(??_AddNew+0)+0,w
  5905  1F3B  00F2               	movwf	0+(?_send_cmd)+01h
  5906  1F3C  3003               	movlw	(03h)
  5907  1F3D  00A5               	movwf	(??_AddNew+1)+0
  5908  1F3E  0825               	movf	(??_AddNew+1)+0,w
  5909  1F3F  00F3               	movwf	0+(?_send_cmd)+02h
  5910  1F40  3001               	movlw	(01h)
  5911  1F41  160A  158A  266C   	fcall	_send_cmd
              160A  158A         
  5912                           	line	763
  5913                           ;PR29.c: 763: lcd_goto(0);
  5914  1F46  3000               	movlw	(0)
  5915  1F47  120A  158A  2004   	fcall	_lcd_goto
              160A  158A         
  5916                           	line	764
  5917                           	
  5918  1F4C                     l5186:	
  5919                           ;PR29.c: 764: send_string("Place your thumb");
  5920  1F4C  30CD               	movlw	low(STR_59|8000h)
  5921  1F4D  00F9               	movwf	(?_send_string)
  5922  1F4E  3099               	movlw	high(STR_59|8000h)
  5923  1F4F  00FA               	movwf	((?_send_string))+1
  5924  1F50  160A  158A  25FD   	fcall	_send_string
              160A  158A         
  5925                           	line	765
  5926                           	
  5927  1F55                     l5188:	
  5928                           ;PR29.c: 765: lcd_goto(20);
  5929  1F55  3014               	movlw	(014h)
  5930  1F56  120A  158A  2004   	fcall	_lcd_goto
              160A  158A         
  5931                           	line	766
  5932                           ;PR29.c: 766: send_string("on the window");
  5933  1F5B  302C               	movlw	low(STR_60|8000h)
  5934  1F5C  00F9               	movwf	(?_send_string)
  5935  1F5D  309A               	movlw	high(STR_60|8000h)
  5936  1F5E  00FA               	movwf	((?_send_string))+1
  5937  1F5F  160A  158A  25FD   	fcall	_send_string
              160A  158A         
  5938                           	line	767
  5939                           	
  5940  1F64                     l5190:	
  5941                           ;PR29.c: 767: delay(5000);
  5942  1F64  3000               	movlw	0
  5943  1F65  00F3               	movwf	(?_delay+3)
  5944  1F66  3000               	movlw	0
  5945  1F67  00F2               	movwf	(?_delay+2)
  5946  1F68  3013               	movlw	013h
  5947  1F69  00F1               	movwf	(?_delay+1)
  5948  1F6A  3088               	movlw	088h
  5949  1F6B  00F0               	movwf	(?_delay)
  5950                           
  5951  1F6C  160A  158A  25CD   	fcall	_delay
              160A  158A         
  5952                           	line	768
  5953                           	
  5954  1F71                     l5192:	
  5955                           ;PR29.c: 768: receive_reply();
  5956  1F71  160A  158A  26A5   	fcall	_receive_reply
              160A  158A         
  5957                           	line	769
  5958                           	
  5959  1F76                     l5194:	
  5960                           ;PR29.c: 769: location_enter=1;
  5961  1F76  1283               	bcf	status, 5	;RP0=0, select bank0
  5962  1F77  1303               	bcf	status, 6	;RP1=0, select bank0
  5963  1F78  16D9               	bsf	(_location_enter/8),(_location_enter)&7
  5964                           	line	770
  5965                           	
  5966  1F79                     l5196:	
  5967                           ;PR29.c: 770: if(!error)
  5968  1F79  19D9               	btfsc	(_error/8),(_error)&7
  5969  1F7A  2F7C               	goto	u4881
  5970  1F7B  2F7D               	goto	u4880
  5971  1F7C                     u4881:
  5972  1F7C  2FFF               	goto	l835
  5973  1F7D                     u4880:
  5974                           	line	772
  5975                           	
  5976  1F7D                     l5198:	
  5977                           ;PR29.c: 771: {
  5978                           ;PR29.c: 772: lcd_clr();
  5979  1F7D  160A  158A  24EA   	fcall	_lcd_clr
              160A  158A         
  5980                           	line	773
  5981                           ;PR29.c: 773: lcd_goto(0);
  5982  1F82  3000               	movlw	(0)
  5983  1F83  120A  158A  2004   	fcall	_lcd_goto
              160A  158A         
  5984                           	line	774
  5985                           	
  5986  1F88                     l5200:	
  5987                           ;PR29.c: 774: send_string("Scanning...     ");
  5988  1F88  309B               	movlw	low(STR_61|8000h)
  5989  1F89  00F9               	movwf	(?_send_string)
  5990  1F8A  3098               	movlw	high(STR_61|8000h)
  5991  1F8B  00FA               	movwf	((?_send_string))+1
  5992  1F8C  160A  158A  25FD   	fcall	_send_string
              160A  158A         
  5993                           	line	775
  5994                           	
  5995  1F91                     l5202:	
  5996                           ;PR29.c: 775: lcd_goto(20);
  5997  1F91  3014               	movlw	(014h)
  5998  1F92  120A  158A  2004   	fcall	_lcd_goto
              160A  158A         
  5999                           	line	776
  6000                           ;PR29.c: 776: send_string("Verification 1/2");
  6001  1F97  309A               	movlw	low(STR_62|8000h)
  6002  1F98  00F9               	movwf	(?_send_string)
  6003  1F99  3099               	movlw	high(STR_62|8000h)
  6004  1F9A  00FA               	movwf	((?_send_string))+1
  6005  1F9B  160A  158A  25FD   	fcall	_send_string
              160A  158A         
  6006                           	line	777
  6007                           	
  6008  1FA0                     l5204:	
  6009                           ;PR29.c: 777: send_cmd(0x02,0x00,data,0x03);
  6010  1FA0  1003               	clrc
  6011  1FA1  3000               	movlw	0
  6012  1FA2  1803               	btfsc	status,0
  6013  1FA3  3001               	movlw	1
  6014  1FA4  00F1               	movwf	(?_send_cmd)
  6015  1FA5  1283               	bcf	status, 5	;RP0=0, select bank0
  6016  1FA6  1303               	bcf	status, 6	;RP1=0, select bank0
  6017  1FA7  0826               	movf	(AddNew@data),w
  6018  1FA8  00A4               	movwf	(??_AddNew+0)+0
  6019  1FA9  0824               	movf	(??_AddNew+0)+0,w
  6020  1FAA  00F2               	movwf	0+(?_send_cmd)+01h
  6021  1FAB  3003               	movlw	(03h)
  6022  1FAC  00A5               	movwf	(??_AddNew+1)+0
  6023  1FAD  0825               	movf	(??_AddNew+1)+0,w
  6024  1FAE  00F3               	movwf	0+(?_send_cmd)+02h
  6025  1FAF  3002               	movlw	(02h)
  6026  1FB0  160A  158A  266C   	fcall	_send_cmd
              160A  158A         
  6027                           	line	778
  6028                           	
  6029  1FB5                     l5206:	
  6030                           ;PR29.c: 778: receive_reply();
  6031  1FB5  160A  158A  26A5   	fcall	_receive_reply
              160A  158A         
  6032                           	line	779
  6033                           	
  6034  1FBA                     l5208:	
  6035                           ;PR29.c: 779: if(!error)
  6036  1FBA  1283               	bcf	status, 5	;RP0=0, select bank0
  6037  1FBB  1303               	bcf	status, 6	;RP1=0, select bank0
  6038  1FBC  19D9               	btfsc	(_error/8),(_error)&7
  6039  1FBD  2FBF               	goto	u4891
  6040  1FBE  2FC0               	goto	u4890
  6041  1FBF                     u4891:
  6042  1FBF  2FFF               	goto	l835
  6043  1FC0                     u4890:
  6044                           	line	781
  6045                           	
  6046  1FC0                     l5210:	
  6047                           ;PR29.c: 780: {
  6048                           ;PR29.c: 781: lcd_clr();
  6049  1FC0  160A  158A  24EA   	fcall	_lcd_clr
              160A  158A         
  6050                           	line	782
  6051                           ;PR29.c: 782: lcd_goto(0);
  6052  1FC5  3000               	movlw	(0)
  6053  1FC6  120A  158A  2004   	fcall	_lcd_goto
              160A  158A         
  6054                           	line	783
  6055                           	
  6056  1FCB                     l5212:	
  6057                           ;PR29.c: 783: send_string("Scanning...     ");
  6058  1FCB  309B               	movlw	low(STR_63|8000h)
  6059  1FCC  00F9               	movwf	(?_send_string)
  6060  1FCD  3098               	movlw	high(STR_63|8000h)
  6061  1FCE  00FA               	movwf	((?_send_string))+1
  6062  1FCF  160A  158A  25FD   	fcall	_send_string
              160A  158A         
  6063                           	line	784
  6064                           	
  6065  1FD4                     l5214:	
  6066                           ;PR29.c: 784: lcd_goto(20);
  6067  1FD4  3014               	movlw	(014h)
  6068  1FD5  120A  158A  2004   	fcall	_lcd_goto
              160A  158A         
  6069                           	line	785
  6070                           ;PR29.c: 785: send_string("Verification 2/2");
  6071  1FDA  30AB               	movlw	low(STR_64|8000h)
  6072  1FDB  00F9               	movwf	(?_send_string)
  6073  1FDC  3099               	movlw	high(STR_64|8000h)
  6074  1FDD  00FA               	movwf	((?_send_string))+1
  6075  1FDE  160A  158A  25FD   	fcall	_send_string
              160A  158A         
  6076                           	line	786
  6077                           	
  6078  1FE3                     l5216:	
  6079                           ;PR29.c: 786: send_cmd(0x03,0x00,data,0x03);
  6080  1FE3  1003               	clrc
  6081  1FE4  3000               	movlw	0
  6082  1FE5  1803               	btfsc	status,0
  6083  1FE6  3001               	movlw	1
  6084  1FE7  00F1               	movwf	(?_send_cmd)
  6085  1FE8  1283               	bcf	status, 5	;RP0=0, select bank0
  6086  1FE9  1303               	bcf	status, 6	;RP1=0, select bank0
  6087  1FEA  0826               	movf	(AddNew@data),w
  6088  1FEB  00A4               	movwf	(??_AddNew+0)+0
  6089  1FEC  0824               	movf	(??_AddNew+0)+0,w
  6090  1FED  00F2               	movwf	0+(?_send_cmd)+01h
  6091  1FEE  3003               	movlw	(03h)
  6092  1FEF  00A5               	movwf	(??_AddNew+1)+0
  6093  1FF0  0825               	movf	(??_AddNew+1)+0,w
  6094  1FF1  00F3               	movwf	0+(?_send_cmd)+02h
  6095  1FF2  3003               	movlw	(03h)
  6096  1FF3  160A  158A  266C   	fcall	_send_cmd
              160A  158A         
  6097                           	line	787
  6098                           	
  6099  1FF8                     l5218:	
  6100                           ;PR29.c: 787: receive_reply();
  6101  1FF8  160A  158A  26A5   	fcall	_receive_reply
              160A  158A         
  6102  1FFD  2FFF               	goto	l835
  6103                           	line	788
  6104                           	
  6105  1FFE                     l834:	
  6106  1FFE  2FFF               	goto	l835
  6107                           	line	790
  6108                           	
  6109  1FFF                     l833:	
  6110                           	line	792
  6111                           	
  6112  1FFF                     l835:	
  6113  1FFF  0008               	return
  6114                           	opt stack 0
  6115                           GLOBAL	__end_of_AddNew
  6116  2000                     	__end_of_AddNew:
  6117 ;; =============== function _AddNew ends ============
  6118                           
  6119                           	signat	_AddNew,4216
  6120                           	global	_CheckAdmin
  6121                           psect	text564,local,class=CODE,delta=2
  6122                           global __ptext564
  6123  1EE9                     __ptext564:
  6124                           
  6125 ;; *************** function _CheckAdmin *****************
  6126 ;; Defined at:
  6127 ;;		line 749 in file "C:\Users\Phang\Desktop\9.80\PR 29\PR29.c"
  6128 ;; Parameters:    Size  Location     Type
  6129 ;;		None
  6130 ;; Auto vars:     Size  Location     Type
  6131 ;;		None
  6132 ;; Return value:  Size  Location     Type
  6133 ;;		None               void
  6134 ;; Registers used:
  6135 ;;		wreg, fsr0l, fsr0h, status,2, status,0, btemp+1, pclath, cstack
  6136 ;; Tracked objects:
  6137 ;;		On entry : 0/0
  6138 ;;		On exit  : 0/0
  6139 ;;		Unchanged: 0/0
  6140 ;; Data sizes:     COMMON   BANK0   BANK1   BANK3   BANK2
  6141 ;;      Params:         0       0       0       0       0
  6142 ;;      Locals:         0       0       0       0       0
  6143 ;;      Temps:          0       1       0       0       0
  6144 ;;      Totals:         0       1       0       0       0
  6145 ;;Total ram usage:        1 bytes
  6146 ;; Hardware stack levels used:    1
  6147 ;; Hardware stack levels required when called:    5
  6148 ;; This function calls:
  6149 ;;		_send_cmd
  6150 ;;		_lcd_goto
  6151 ;;		_send_string
  6152 ;;		_delay
  6153 ;;		_receive_reply
  6154 ;; This function is called by:
  6155 ;;		_main
  6156 ;;		_mode
  6157 ;; This function uses a non-reentrant model
  6158 ;;
  6159                           psect	text564
  6160                           	file	"C:\Users\Phang\Desktop\9.80\PR 29\PR29.c"
  6161                           	line	749
  6162                           	global	__size_of_CheckAdmin
  6163  0047                     	__size_of_CheckAdmin	equ	__end_of_CheckAdmin-_CheckAdmin
  6164                           	
  6165  1EE9                     _CheckAdmin:	
  6166                           	opt	stack 1
  6167                           ; Regs used in _CheckAdmin: [wreg-fsr0h+status,2+status,0+btemp+1+pclath+cstack]
  6168                           	line	750
  6169                           	
  6170  1EE9                     l5174:	
  6171                           ;PR29.c: 750: send_cmd(0x0b,0x00,0xFF,0x00);
  6172  1EE9  1003               	clrc
  6173  1EEA  3000               	movlw	0
  6174  1EEB  1803               	btfsc	status,0
  6175  1EEC  3001               	movlw	1
  6176  1EED  00F1               	movwf	(?_send_cmd)
  6177  1EEE  30FF               	movlw	(0FFh)
  6178  1EEF  1283               	bcf	status, 5	;RP0=0, select bank0
  6179  1EF0  1303               	bcf	status, 6	;RP1=0, select bank0
  6180  1EF1  00A4               	movwf	(??_CheckAdmin+0)+0
  6181  1EF2  0824               	movf	(??_CheckAdmin+0)+0,w
  6182  1EF3  00F2               	movwf	0+(?_send_cmd)+01h
  6183  1EF4  1003               	clrc
  6184  1EF5  3000               	movlw	0
  6185  1EF6  1803               	btfsc	status,0
  6186  1EF7  3001               	movlw	1
  6187  1EF8  00F3               	movwf	0+(?_send_cmd)+02h
  6188  1EF9  300B               	movlw	(0Bh)
  6189  1EFA  160A  158A  266C   	fcall	_send_cmd
              160A  158A         
  6190                           	line	751
  6191                           ;PR29.c: 751: lcd_goto(0);
  6192  1EFF  3000               	movlw	(0)
  6193  1F00  120A  158A  2004   	fcall	_lcd_goto
              160A  158A         
  6194                           	line	752
  6195                           	
  6196  1F05                     l5176:	
  6197                           ;PR29.c: 752: send_string("Place your thumb");
  6198  1F05  30CD               	movlw	low(STR_57|8000h)
  6199  1F06  00F9               	movwf	(?_send_string)
  6200  1F07  3099               	movlw	high(STR_57|8000h)
  6201  1F08  00FA               	movwf	((?_send_string))+1
  6202  1F09  160A  158A  25FD   	fcall	_send_string
              160A  158A         
  6203                           	line	753
  6204                           	
  6205  1F0E                     l5178:	
  6206                           ;PR29.c: 753: lcd_goto(20);
  6207  1F0E  3014               	movlw	(014h)
  6208  1F0F  120A  158A  2004   	fcall	_lcd_goto
              160A  158A         
  6209                           	line	754
  6210                           ;PR29.c: 754: send_string("on the window");
  6211  1F14  302C               	movlw	low(STR_58|8000h)
  6212  1F15  00F9               	movwf	(?_send_string)
  6213  1F16  309A               	movlw	high(STR_58|8000h)
  6214  1F17  00FA               	movwf	((?_send_string))+1
  6215  1F18  160A  158A  25FD   	fcall	_send_string
              160A  158A         
  6216                           	line	755
  6217                           	
  6218  1F1D                     l5180:	
  6219                           ;PR29.c: 755: delay(100);
  6220  1F1D  3000               	movlw	0
  6221  1F1E  00F3               	movwf	(?_delay+3)
  6222  1F1F  3000               	movlw	0
  6223  1F20  00F2               	movwf	(?_delay+2)
  6224  1F21  3000               	movlw	0
  6225  1F22  00F1               	movwf	(?_delay+1)
  6226  1F23  3064               	movlw	064h
  6227  1F24  00F0               	movwf	(?_delay)
  6228                           
  6229  1F25  160A  158A  25CD   	fcall	_delay
              160A  158A         
  6230                           	line	756
  6231                           	
  6232  1F2A                     l5182:	
  6233                           ;PR29.c: 756: receive_reply();
  6234  1F2A  160A  158A  26A5   	fcall	_receive_reply
              160A  158A         
  6235                           	line	757
  6236                           	
  6237  1F2F                     l830:	
  6238  1F2F  0008               	return
  6239                           	opt stack 0
  6240                           GLOBAL	__end_of_CheckAdmin
  6241  1F30                     	__end_of_CheckAdmin:
  6242 ;; =============== function _CheckAdmin ends ============
  6243                           
  6244                           	signat	_CheckAdmin,88
  6245                           	global	_receive_reply
  6246                           psect	text565,local,class=CODE,delta=2
  6247                           global __ptext565
  6248  1EA5                     __ptext565:
  6249                           
  6250 ;; *************** function _receive_reply *****************
  6251 ;; Defined at:
  6252 ;;		line 729 in file "C:\Users\Phang\Desktop\9.80\PR 29\PR29.c"
  6253 ;; Parameters:    Size  Location     Type
  6254 ;;		None
  6255 ;; Auto vars:     Size  Location     Type
  6256 ;;  i               1    3[BANK0 ] unsigned char 
  6257 ;; Return value:  Size  Location     Type
  6258 ;;		None               void
  6259 ;; Registers used:
  6260 ;;		wreg, fsr0l, fsr0h, status,2, status,0, btemp+1, pclath, cstack
  6261 ;; Tracked objects:
  6262 ;;		On entry : 0/0
  6263 ;;		On exit  : 0/0
  6264 ;;		Unchanged: 0/0
  6265 ;; Data sizes:     COMMON   BANK0   BANK1   BANK3   BANK2
  6266 ;;      Params:         0       0       0       0       0
  6267 ;;      Locals:         0       1       0       0       0
  6268 ;;      Temps:          0       2       0       0       0
  6269 ;;      Totals:         0       3       0       0       0
  6270 ;;Total ram usage:        3 bytes
  6271 ;; Hardware stack levels used:    1
  6272 ;; Hardware stack levels required when called:    4
  6273 ;; This function calls:
  6274 ;;		_uart_receive
  6275 ;;		_display_status
  6276 ;;		_delay
  6277 ;; This function is called by:
  6278 ;;		_main
  6279 ;;		_mode
  6280 ;;		_CheckAdmin
  6281 ;;		_AddNew
  6282 ;;		_ResetAdmin
  6283 ;; This function uses a non-reentrant model
  6284 ;;
  6285                           psect	text565
  6286                           	file	"C:\Users\Phang\Desktop\9.80\PR 29\PR29.c"
  6287                           	line	729
  6288                           	global	__size_of_receive_reply
  6289  0044                     	__size_of_receive_reply	equ	__end_of_receive_reply-_receive_reply
  6290                           	
  6291  1EA5                     _receive_reply:	
  6292                           	opt	stack 1
  6293                           ; Regs used in _receive_reply: [wreg-fsr0h+status,2+status,0+btemp+1+pclath+cstack]
  6294                           	line	732
  6295                           	
  6296  1EA5                     l5158:	
  6297                           ;PR29.c: 731: unsigned char i;
  6298                           ;PR29.c: 732: for(i=0;i<8;i++)
  6299  1EA5  1003               	clrc
  6300  1EA6  3000               	movlw	0
  6301  1EA7  1803               	btfsc	status,0
  6302  1EA8  3001               	movlw	1
  6303  1EA9  1283               	bcf	status, 5	;RP0=0, select bank0
  6304  1EAA  1303               	bcf	status, 6	;RP1=0, select bank0
  6305  1EAB  00A3               	movwf	(receive_reply@i)
  6306                           	
  6307  1EAC                     l5160:	
  6308  1EAC  3008               	movlw	(08h)
  6309  1EAD  0223               	subwf	(receive_reply@i),w
  6310  1EAE  1C03               	skipc
  6311  1EAF  2EB1               	goto	u4861
  6312  1EB0  2EB2               	goto	u4860
  6313  1EB1                     u4861:
  6314  1EB1  2EB4               	goto	l5164
  6315  1EB2                     u4860:
  6316  1EB2  2ECD               	goto	l5170
  6317                           	
  6318  1EB3                     l5162:	
  6319  1EB3  2ECD               	goto	l5170
  6320                           	line	733
  6321                           	
  6322  1EB4                     l820:	
  6323                           	
  6324  1EB4                     l5164:	
  6325                           ;PR29.c: 733: array_resp[i]=uart_receive();
  6326  1EB4  160A  158A  24CA   	fcall	_uart_receive
              160A  158A         
  6327  1EB9  1283               	bcf	status, 5	;RP0=0, select bank0
  6328  1EBA  1303               	bcf	status, 6	;RP1=0, select bank0
  6329  1EBB  00A1               	movwf	(??_receive_reply+0)+0
  6330  1EBC  0823               	movf	(receive_reply@i),w
  6331  1EBD  3E4E               	addlw	_array_resp&0ffh
  6332  1EBE  0084               	movwf	fsr0
  6333  1EBF  0821               	movf	(??_receive_reply+0)+0,w
  6334  1EC0  1383               	bcf	status, 7	;select IRP bank0
  6335  1EC1  0080               	movwf	indf
  6336                           	line	732
  6337                           	
  6338  1EC2                     l5166:	
  6339  1EC2  3001               	movlw	(01h)
  6340  1EC3  00A1               	movwf	(??_receive_reply+0)+0
  6341  1EC4  0821               	movf	(??_receive_reply+0)+0,w
  6342  1EC5  07A3               	addwf	(receive_reply@i),f
  6343                           	
  6344  1EC6                     l5168:	
  6345  1EC6  3008               	movlw	(08h)
  6346  1EC7  0223               	subwf	(receive_reply@i),w
  6347  1EC8  1C03               	skipc
  6348  1EC9  2ECB               	goto	u4871
  6349  1ECA  2ECC               	goto	u4870
  6350  1ECB                     u4871:
  6351  1ECB  2EB4               	goto	l5164
  6352  1ECC                     u4870:
  6353  1ECC  2ECD               	goto	l5170
  6354                           	
  6355  1ECD                     l821:	
  6356                           	line	734
  6357                           	
  6358  1ECD                     l5170:	
  6359                           ;PR29.c: 734: display_status(array_resp[1],array_resp[3],array_resp[4]);
  6360  1ECD  0851               	movf	0+(_array_resp)+03h,w
  6361  1ECE  00A1               	movwf	(??_receive_reply+0)+0
  6362  1ECF  0821               	movf	(??_receive_reply+0)+0,w
  6363  1ED0  00FC               	movwf	(?_display_status)
  6364  1ED1  0852               	movf	0+(_array_resp)+04h,w
  6365  1ED2  00A2               	movwf	(??_receive_reply+1)+0
  6366  1ED3  0822               	movf	(??_receive_reply+1)+0,w
  6367  1ED4  00FD               	movwf	0+(?_display_status)+01h
  6368  1ED5  084F               	movf	0+(_array_resp)+01h,w
  6369  1ED6  160A  118A  201B   	fcall	_display_status
              160A  158A         
  6370                           	line	735
  6371                           	
  6372  1EDB                     l5172:	
  6373                           ;PR29.c: 735: delay(1000);
  6374  1EDB  3000               	movlw	0
  6375  1EDC  00F3               	movwf	(?_delay+3)
  6376  1EDD  3000               	movlw	0
  6377  1EDE  00F2               	movwf	(?_delay+2)
  6378  1EDF  3003               	movlw	03h
  6379  1EE0  00F1               	movwf	(?_delay+1)
  6380  1EE1  30E8               	movlw	0E8h
  6381  1EE2  00F0               	movwf	(?_delay)
  6382                           
  6383  1EE3  160A  158A  25CD   	fcall	_delay
              160A  158A         
  6384                           	line	737
  6385                           	
  6386  1EE8                     l822:	
  6387  1EE8  0008               	return
  6388                           	opt stack 0
  6389                           GLOBAL	__end_of_receive_reply
  6390  1EE9                     	__end_of_receive_reply:
  6391 ;; =============== function _receive_reply ends ============
  6392                           
  6393                           	signat	_receive_reply,88
  6394                           	global	_display_status
  6395                           psect	text566,local,class=CODE,delta=2
  6396                           global __ptext566
  6397  101B                     __ptext566:
  6398                           
  6399 ;; *************** function _display_status *****************
  6400 ;; Defined at:
  6401 ;;		line 616 in file "C:\Users\Phang\Desktop\9.80\PR 29\PR29.c"
  6402 ;; Parameters:    Size  Location     Type
  6403 ;;  type            1    wreg     unsigned char 
  6404 ;;  data0           1   12[COMMON] unsigned char 
  6405 ;;  data            1   13[COMMON] unsigned char 
  6406 ;; Auto vars:     Size  Location     Type
  6407 ;;  type            1    0[BANK0 ] unsigned char 
  6408 ;; Return value:  Size  Location     Type
  6409 ;;		None               void
  6410 ;; Registers used:
  6411 ;;		wreg, fsr0l, fsr0h, status,2, status,0, btemp+1, pclath, cstack
  6412 ;; Tracked objects:
  6413 ;;		On entry : 0/0
  6414 ;;		On exit  : 0/0
  6415 ;;		Unchanged: 0/0
  6416 ;; Data sizes:     COMMON   BANK0   BANK1   BANK3   BANK2
  6417 ;;      Params:         2       0       0       0       0
  6418 ;;      Locals:         0       1       0       0       0
  6419 ;;      Temps:          0       0       0       0       0
  6420 ;;      Totals:         2       1       0       0       0
  6421 ;;Total ram usage:        3 bytes
  6422 ;; Hardware stack levels used:    1
  6423 ;; Hardware stack levels required when called:    3
  6424 ;; This function calls:
  6425 ;;		_lcd_clr
  6426 ;;		_lcd_goto
  6427 ;;		_send_string
  6428 ;;		_delay
  6429 ;;		_send_char
  6430 ;; This function is called by:
  6431 ;;		_receive_reply
  6432 ;; This function uses a non-reentrant model
  6433 ;;
  6434                           psect	text566
  6435                           	file	"C:\Users\Phang\Desktop\9.80\PR 29\PR29.c"
  6436                           	line	616
  6437                           	global	__size_of_display_status
  6438  01DC                     	__size_of_display_status	equ	__end_of_display_status-_display_status
  6439                           	
  6440  101B                     _display_status:	
  6441                           	opt	stack 1
  6442                           ; Regs used in _display_status: [wreg-fsr0h+status,2+status,0+btemp+1+pclath+cstack]
  6443                           ;display_status@type stored from wreg
  6444  101B  1283               	bcf	status, 5	;RP0=0, select bank0
  6445  101C  1303               	bcf	status, 6	;RP1=0, select bank0
  6446  101D  00A0               	movwf	(display_status@type)
  6447                           	line	617
  6448                           	
  6449  101E                     l5024:	
  6450                           ;PR29.c: 617: lcd_clr();
  6451  101E  160A  158A  24EA   	fcall	_lcd_clr
              160A  118A         
  6452                           	line	618
  6453                           ;PR29.c: 618: switch(data)
  6454  1023  29E2               	goto	l5156
  6455                           	line	620
  6456                           ;PR29.c: 619: {
  6457                           ;PR29.c: 620: case 0x00: RA1=1;
  6458                           	
  6459  1024                     l802:	
  6460  1024  1283               	bcf	status, 5	;RP0=0, select bank0
  6461  1025  1303               	bcf	status, 6	;RP1=0, select bank0
  6462  1026  1485               	bsf	(41/8),(41)&7
  6463                           	line	621
  6464                           	
  6465  1027                     l5026:	
  6466                           ;PR29.c: 621: if((type != 1) && (type != 2))
  6467  1027  0820               	movf	(display_status@type),w
  6468  1028  3A01               	xorlw	01h
  6469  1029  1903               	skipnz
  6470  102A  282C               	goto	u4811
  6471  102B  282D               	goto	u4810
  6472  102C                     u4811:
  6473  102C  2843               	goto	l5034
  6474  102D                     u4810:
  6475                           	
  6476  102D                     l5028:	
  6477  102D  0820               	movf	(display_status@type),w
  6478  102E  3A02               	xorlw	02h
  6479  102F  1903               	skipnz
  6480  1030  2832               	goto	u4821
  6481  1031  2833               	goto	u4820
  6482  1032                     u4821:
  6483  1032  2843               	goto	l5034
  6484  1033                     u4820:
  6485                           	line	622
  6486                           	
  6487  1033                     l5030:	
  6488                           ;PR29.c: 622: { lcd_goto(20);
  6489  1033  3014               	movlw	(014h)
  6490  1034  120A  158A  2004   	fcall	_lcd_goto
              160A  118A         
  6491                           	line	623
  6492                           	
  6493  1039                     l5032:	
  6494                           ;PR29.c: 623: send_string("Successful      ");
  6495  1039  308A               	movlw	low(STR_44|8000h)
  6496  103A  00F9               	movwf	(?_send_string)
  6497  103B  3098               	movlw	high(STR_44|8000h)
  6498  103C  00FA               	movwf	((?_send_string))+1
  6499  103D  160A  158A  25FD   	fcall	_send_string
              160A  118A         
  6500                           	line	624
  6501                           ;PR29.c: 624: }
  6502  1042  2893               	goto	l5050
  6503                           	line	625
  6504                           	
  6505  1043                     l803:	
  6506                           	
  6507  1043                     l5034:	
  6508                           ;PR29.c: 625: else if (type ==1)
  6509  1043  1283               	bcf	status, 5	;RP0=0, select bank0
  6510  1044  1303               	bcf	status, 6	;RP1=0, select bank0
  6511  1045  0820               	movf	(display_status@type),w
  6512  1046  3A01               	xorlw	01h
  6513  1047  1D03               	skipz
  6514  1048  284A               	goto	u4831
  6515  1049  284B               	goto	u4830
  6516  104A                     u4831:
  6517  104A  286A               	goto	l5042
  6518  104B                     u4830:
  6519                           	line	627
  6520                           	
  6521  104B                     l5036:	
  6522                           ;PR29.c: 626: {
  6523                           ;PR29.c: 627: lcd_goto(0);
  6524  104B  3000               	movlw	(0)
  6525  104C  120A  158A  2004   	fcall	_lcd_goto
              160A  118A         
  6526                           	line	628
  6527                           	
  6528  1051                     l5038:	
  6529                           ;PR29.c: 628: send_string("Scanning...     ");
  6530  1051  309B               	movlw	low(STR_45|8000h)
  6531  1052  00F9               	movwf	(?_send_string)
  6532  1053  3098               	movlw	high(STR_45|8000h)
  6533  1054  00FA               	movwf	((?_send_string))+1
  6534  1055  160A  158A  25FD   	fcall	_send_string
              160A  118A         
  6535                           	line	629
  6536                           	
  6537  105A                     l5040:	
  6538                           ;PR29.c: 629: lcd_goto(20);
  6539  105A  3014               	movlw	(014h)
  6540  105B  120A  158A  2004   	fcall	_lcd_goto
              160A  118A         
  6541                           	line	630
  6542                           ;PR29.c: 630: send_string("Verification 1/2");
  6543  1060  309A               	movlw	low(STR_46|8000h)
  6544  1061  00F9               	movwf	(?_send_string)
  6545  1062  3099               	movlw	high(STR_46|8000h)
  6546  1063  00FA               	movwf	((?_send_string))+1
  6547  1064  160A  158A  25FD   	fcall	_send_string
              160A  118A         
  6548                           	line	631
  6549                           ;PR29.c: 631: }
  6550  1069  2893               	goto	l5050
  6551                           	line	632
  6552                           	
  6553  106A                     l805:	
  6554                           	
  6555  106A                     l5042:	
  6556                           ;PR29.c: 632: else if (type ==2)
  6557  106A  1283               	bcf	status, 5	;RP0=0, select bank0
  6558  106B  1303               	bcf	status, 6	;RP1=0, select bank0
  6559  106C  0820               	movf	(display_status@type),w
  6560  106D  3A02               	xorlw	02h
  6561  106E  1D03               	skipz
  6562  106F  2871               	goto	u4841
  6563  1070  2872               	goto	u4840
  6564  1071                     u4841:
  6565  1071  2893               	goto	l5050
  6566  1072                     u4840:
  6567                           	line	634
  6568                           	
  6569  1072                     l5044:	
  6570                           ;PR29.c: 633: {
  6571                           ;PR29.c: 634: lcd_goto(0);
  6572  1072  3000               	movlw	(0)
  6573  1073  120A  158A  2004   	fcall	_lcd_goto
              160A  118A         
  6574                           	line	635
  6575                           	
  6576  1078                     l5046:	
  6577                           ;PR29.c: 635: send_string("Scanning...     ");
  6578  1078  309B               	movlw	low(STR_47|8000h)
  6579  1079  00F9               	movwf	(?_send_string)
  6580  107A  3098               	movlw	high(STR_47|8000h)
  6581  107B  00FA               	movwf	((?_send_string))+1
  6582  107C  160A  158A  25FD   	fcall	_send_string
              160A  118A         
  6583                           	line	636
  6584                           	
  6585  1081                     l5048:	
  6586                           ;PR29.c: 636: lcd_goto(20);
  6587  1081  3014               	movlw	(014h)
  6588  1082  120A  158A  2004   	fcall	_lcd_goto
              160A  118A         
  6589                           	line	637
  6590                           ;PR29.c: 637: send_string("Verification 2/2");
  6591  1087  30AB               	movlw	low(STR_48|8000h)
  6592  1088  00F9               	movwf	(?_send_string)
  6593  1089  3099               	movlw	high(STR_48|8000h)
  6594  108A  00FA               	movwf	((?_send_string))+1
  6595  108B  160A  158A  25FD   	fcall	_send_string
              160A  118A         
  6596  1090  2893               	goto	l5050
  6597                           	line	638
  6598                           	
  6599  1091                     l807:	
  6600  1091  2893               	goto	l5050
  6601                           	line	639
  6602                           	
  6603  1092                     l806:	
  6604  1092  2893               	goto	l5050
  6605                           	
  6606  1093                     l804:	
  6607                           	
  6608  1093                     l5050:	
  6609                           ;PR29.c: 638: }
  6610                           ;PR29.c: 639: delay(200000);
  6611  1093  3000               	movlw	0
  6612  1094  00F3               	movwf	(?_delay+3)
  6613  1095  3003               	movlw	03h
  6614  1096  00F2               	movwf	(?_delay+2)
  6615  1097  300D               	movlw	0Dh
  6616  1098  00F1               	movwf	(?_delay+1)
  6617  1099  3040               	movlw	040h
  6618  109A  00F0               	movwf	(?_delay)
  6619                           
  6620  109B  160A  158A  25CD   	fcall	_delay
              160A  118A         
  6621                           	line	640
  6622                           	
  6623  10A0                     l5052:	
  6624                           ;PR29.c: 640: RA1=0;
  6625  10A0  1283               	bcf	status, 5	;RP0=0, select bank0
  6626  10A1  1303               	bcf	status, 6	;RP1=0, select bank0
  6627  10A2  1085               	bcf	(41/8),(41)&7
  6628                           	line	641
  6629                           	
  6630  10A3                     l5054:	
  6631                           ;PR29.c: 641: error=0;
  6632  10A3  11D9               	bcf	(_error/8),(_error)&7
  6633                           	line	642
  6634                           	
  6635  10A4                     l5056:	
  6636                           ;PR29.c: 642: lcd_clr();
  6637  10A4  160A  158A  24EA   	fcall	_lcd_clr
              160A  118A         
  6638                           	line	643
  6639                           ;PR29.c: 643: break;
  6640  10A9  29F6               	goto	l817
  6641                           	line	645
  6642                           ;PR29.c: 645: case 0X01: RA0=1;
  6643                           	
  6644  10AA                     l809:	
  6645  10AA  1283               	bcf	status, 5	;RP0=0, select bank0
  6646  10AB  1303               	bcf	status, 6	;RP1=0, select bank0
  6647  10AC  1405               	bsf	(40/8),(40)&7
  6648                           	line	646
  6649                           ;PR29.c: 646: RA5=1;
  6650  10AD  1685               	bsf	(45/8),(45)&7
  6651                           	line	647
  6652                           	
  6653  10AE                     l5058:	
  6654                           ;PR29.c: 647: lcd_goto(20);
  6655  10AE  3014               	movlw	(014h)
  6656  10AF  120A  158A  2004   	fcall	_lcd_goto
              160A  118A         
  6657                           	line	648
  6658                           	
  6659  10B4                     l5060:	
  6660                           ;PR29.c: 648: send_string("Failed");
  6661  10B4  309E               	movlw	low(STR_49|8000h)
  6662  10B5  00F9               	movwf	(?_send_string)
  6663  10B6  309A               	movlw	high(STR_49|8000h)
  6664  10B7  00FA               	movwf	((?_send_string))+1
  6665  10B8  160A  158A  25FD   	fcall	_send_string
              160A  118A         
  6666                           	line	649
  6667                           	
  6668  10BD                     l5062:	
  6669                           ;PR29.c: 649: delay(200000);
  6670  10BD  3000               	movlw	0
  6671  10BE  00F3               	movwf	(?_delay+3)
  6672  10BF  3003               	movlw	03h
  6673  10C0  00F2               	movwf	(?_delay+2)
  6674  10C1  300D               	movlw	0Dh
  6675  10C2  00F1               	movwf	(?_delay+1)
  6676  10C3  3040               	movlw	040h
  6677  10C4  00F0               	movwf	(?_delay)
  6678                           
  6679  10C5  160A  158A  25CD   	fcall	_delay
              160A  118A         
  6680                           	line	650
  6681                           	
  6682  10CA                     l5064:	
  6683                           ;PR29.c: 650: RA5=0;
  6684  10CA  1283               	bcf	status, 5	;RP0=0, select bank0
  6685  10CB  1303               	bcf	status, 6	;RP1=0, select bank0
  6686  10CC  1285               	bcf	(45/8),(45)&7
  6687                           	line	651
  6688                           	
  6689  10CD                     l5066:	
  6690                           ;PR29.c: 651: RA0=0;
  6691  10CD  1005               	bcf	(40/8),(40)&7
  6692                           	line	652
  6693                           	
  6694  10CE                     l5068:	
  6695                           ;PR29.c: 652: error=1;
  6696  10CE  15D9               	bsf	(_error/8),(_error)&7
  6697                           	line	653
  6698                           	
  6699  10CF                     l5070:	
  6700                           ;PR29.c: 653: lcd_clr();
  6701  10CF  160A  158A  24EA   	fcall	_lcd_clr
              160A  118A         
  6702                           	line	654
  6703                           ;PR29.c: 654: break;
  6704  10D4  29F6               	goto	l817
  6705                           	line	656
  6706                           ;PR29.c: 656: case 0x08: RA0=1;
  6707                           	
  6708  10D5                     l810:	
  6709  10D5  1283               	bcf	status, 5	;RP0=0, select bank0
  6710  10D6  1303               	bcf	status, 6	;RP1=0, select bank0
  6711  10D7  1405               	bsf	(40/8),(40)&7
  6712                           	line	657
  6713                           ;PR29.c: 657: RA5=1;
  6714  10D8  1685               	bsf	(45/8),(45)&7
  6715                           	line	658
  6716                           	
  6717  10D9                     l5072:	
  6718                           ;PR29.c: 658: lcd_goto(20);
  6719  10D9  3014               	movlw	(014h)
  6720  10DA  120A  158A  2004   	fcall	_lcd_goto
              160A  118A         
  6721                           	line	659
  6722                           	
  6723  10DF                     l5074:	
  6724                           ;PR29.c: 659: send_string("Timeout");
  6725  10DF  3087               	movlw	low(STR_50|8000h)
  6726  10E0  00F9               	movwf	(?_send_string)
  6727  10E1  309A               	movlw	high(STR_50|8000h)
  6728  10E2  00FA               	movwf	((?_send_string))+1
  6729  10E3  160A  158A  25FD   	fcall	_send_string
              160A  118A         
  6730                           	line	660
  6731                           	
  6732  10E8                     l5076:	
  6733                           ;PR29.c: 660: delay(200000);
  6734  10E8  3000               	movlw	0
  6735  10E9  00F3               	movwf	(?_delay+3)
  6736  10EA  3003               	movlw	03h
  6737  10EB  00F2               	movwf	(?_delay+2)
  6738  10EC  300D               	movlw	0Dh
  6739  10ED  00F1               	movwf	(?_delay+1)
  6740  10EE  3040               	movlw	040h
  6741  10EF  00F0               	movwf	(?_delay)
  6742                           
  6743  10F0  160A  158A  25CD   	fcall	_delay
              160A  118A         
  6744                           	line	661
  6745                           	
  6746  10F5                     l5078:	
  6747                           ;PR29.c: 661: RA5=0;
  6748  10F5  1283               	bcf	status, 5	;RP0=0, select bank0
  6749  10F6  1303               	bcf	status, 6	;RP1=0, select bank0
  6750  10F7  1285               	bcf	(45/8),(45)&7
  6751                           	line	662
  6752                           	
  6753  10F8                     l5080:	
  6754                           ;PR29.c: 662: RA0=0;
  6755  10F8  1005               	bcf	(40/8),(40)&7
  6756                           	line	663
  6757                           	
  6758  10F9                     l5082:	
  6759                           ;PR29.c: 663: error=1;
  6760  10F9  15D9               	bsf	(_error/8),(_error)&7
  6761                           	line	664
  6762                           	
  6763  10FA                     l5084:	
  6764                           ;PR29.c: 664: lcd_clr();
  6765  10FA  160A  158A  24EA   	fcall	_lcd_clr
              160A  118A         
  6766                           	line	665
  6767                           ;PR29.c: 665: break;
  6768  10FF  29F6               	goto	l817
  6769                           	line	667
  6770                           ;PR29.c: 667: case 0x07: RA0=1;
  6771                           	
  6772  1100                     l811:	
  6773  1100  1283               	bcf	status, 5	;RP0=0, select bank0
  6774  1101  1303               	bcf	status, 6	;RP1=0, select bank0
  6775  1102  1405               	bsf	(40/8),(40)&7
  6776                           	line	668
  6777                           ;PR29.c: 668: RA5=1;
  6778  1103  1685               	bsf	(45/8),(45)&7
  6779                           	line	669
  6780                           	
  6781  1104                     l5086:	
  6782                           ;PR29.c: 669: lcd_goto(20);
  6783  1104  3014               	movlw	(014h)
  6784  1105  120A  158A  2004   	fcall	_lcd_goto
              160A  118A         
  6785                           	line	670
  6786                           	
  6787  110A                     l5088:	
  6788                           ;PR29.c: 670: send_string("User Exist");
  6789  110A  306B               	movlw	low(STR_51|8000h)
  6790  110B  00F9               	movwf	(?_send_string)
  6791  110C  309A               	movlw	high(STR_51|8000h)
  6792  110D  00FA               	movwf	((?_send_string))+1
  6793  110E  160A  158A  25FD   	fcall	_send_string
              160A  118A         
  6794                           	line	671
  6795                           	
  6796  1113                     l5090:	
  6797                           ;PR29.c: 671: delay(200000);
  6798  1113  3000               	movlw	0
  6799  1114  00F3               	movwf	(?_delay+3)
  6800  1115  3003               	movlw	03h
  6801  1116  00F2               	movwf	(?_delay+2)
  6802  1117  300D               	movlw	0Dh
  6803  1118  00F1               	movwf	(?_delay+1)
  6804  1119  3040               	movlw	040h
  6805  111A  00F0               	movwf	(?_delay)
  6806                           
  6807  111B  160A  158A  25CD   	fcall	_delay
              160A  118A         
  6808                           	line	672
  6809                           	
  6810  1120                     l5092:	
  6811                           ;PR29.c: 672: RA5=0;
  6812  1120  1283               	bcf	status, 5	;RP0=0, select bank0
  6813  1121  1303               	bcf	status, 6	;RP1=0, select bank0
  6814  1122  1285               	bcf	(45/8),(45)&7
  6815                           	line	673
  6816                           	
  6817  1123                     l5094:	
  6818                           ;PR29.c: 673: RA0=0;
  6819  1123  1005               	bcf	(40/8),(40)&7
  6820                           	line	674
  6821                           	
  6822  1124                     l5096:	
  6823                           ;PR29.c: 674: error=1;
  6824  1124  15D9               	bsf	(_error/8),(_error)&7
  6825                           	line	675
  6826                           	
  6827  1125                     l5098:	
  6828                           ;PR29.c: 675: lcd_clr();
  6829  1125  160A  158A  24EA   	fcall	_lcd_clr
              160A  118A         
  6830                           	line	676
  6831                           ;PR29.c: 676: break;
  6832  112A  29F6               	goto	l817
  6833                           	line	678
  6834                           ;PR29.c: 678: case 0x05: RA0=1;
  6835                           	
  6836  112B                     l812:	
  6837  112B  1283               	bcf	status, 5	;RP0=0, select bank0
  6838  112C  1303               	bcf	status, 6	;RP1=0, select bank0
  6839  112D  1405               	bsf	(40/8),(40)&7
  6840                           	line	679
  6841                           ;PR29.c: 679: RA5=1;
  6842  112E  1685               	bsf	(45/8),(45)&7
  6843                           	line	680
  6844                           	
  6845  112F                     l5100:	
  6846                           ;PR29.c: 680: lcd_goto(20);
  6847  112F  3014               	movlw	(014h)
  6848  1130  120A  158A  2004   	fcall	_lcd_goto
              160A  118A         
  6849                           	line	681
  6850                           	
  6851  1135                     l5102:	
  6852                           ;PR29.c: 681: send_string("Access Denied");
  6853  1135  301E               	movlw	low(STR_52|8000h)
  6854  1136  00F9               	movwf	(?_send_string)
  6855  1137  309A               	movlw	high(STR_52|8000h)
  6856  1138  00FA               	movwf	((?_send_string))+1
  6857  1139  160A  158A  25FD   	fcall	_send_string
              160A  118A         
  6858                           	line	682
  6859                           	
  6860  113E                     l5104:	
  6861                           ;PR29.c: 682: delay(200000);
  6862  113E  3000               	movlw	0
  6863  113F  00F3               	movwf	(?_delay+3)
  6864  1140  3003               	movlw	03h
  6865  1141  00F2               	movwf	(?_delay+2)
  6866  1142  300D               	movlw	0Dh
  6867  1143  00F1               	movwf	(?_delay+1)
  6868  1144  3040               	movlw	040h
  6869  1145  00F0               	movwf	(?_delay)
  6870                           
  6871  1146  160A  158A  25CD   	fcall	_delay
              160A  118A         
  6872                           	line	683
  6873                           	
  6874  114B                     l5106:	
  6875                           ;PR29.c: 683: RA5=0;
  6876  114B  1283               	bcf	status, 5	;RP0=0, select bank0
  6877  114C  1303               	bcf	status, 6	;RP1=0, select bank0
  6878  114D  1285               	bcf	(45/8),(45)&7
  6879                           	line	684
  6880                           	
  6881  114E                     l5108:	
  6882                           ;PR29.c: 684: RA0=0;
  6883  114E  1005               	bcf	(40/8),(40)&7
  6884                           	line	685
  6885                           	
  6886  114F                     l5110:	
  6887                           ;PR29.c: 685: error=1;
  6888  114F  15D9               	bsf	(_error/8),(_error)&7
  6889                           	line	686
  6890                           	
  6891  1150                     l5112:	
  6892                           ;PR29.c: 686: lcd_clr();
  6893  1150  160A  158A  24EA   	fcall	_lcd_clr
              160A  118A         
  6894                           	line	687
  6895                           ;PR29.c: 687: break;
  6896  1155  29F6               	goto	l817
  6897                           	line	689
  6898                           ;PR29.c: 689: case 0x03: RA1=1;
  6899                           	
  6900  1156                     l813:	
  6901  1156  1283               	bcf	status, 5	;RP0=0, select bank0
  6902  1157  1303               	bcf	status, 6	;RP1=0, select bank0
  6903  1158  1485               	bsf	(41/8),(41)&7
  6904                           	line	690
  6905                           	
  6906  1159                     l5114:	
  6907                           ;PR29.c: 690: if(data0!=0xFF)
  6908  1159  087C               	movf	(display_status@data0),w
  6909  115A  3AFF               	xorlw	0FFh
  6910  115B  1903               	skipnz
  6911  115C  295E               	goto	u4851
  6912  115D  295F               	goto	u4850
  6913  115E                     u4851:
  6914  115E  298E               	goto	l5128
  6915  115F                     u4850:
  6916                           	line	692
  6917                           	
  6918  115F                     l5116:	
  6919                           ;PR29.c: 691: {
  6920                           ;PR29.c: 692: lcd_goto(0);
  6921  115F  3000               	movlw	(0)
  6922  1160  120A  158A  2004   	fcall	_lcd_goto
              160A  118A         
  6923                           	line	693
  6924                           	
  6925  1165                     l5118:	
  6926                           ;PR29.c: 693: send_string("Hello User ");
  6927  1165  3047               	movlw	low(STR_53|8000h)
  6928  1166  00F9               	movwf	(?_send_string)
  6929  1167  309A               	movlw	high(STR_53|8000h)
  6930  1168  00FA               	movwf	((?_send_string))+1
  6931  1169  160A  158A  25FD   	fcall	_send_string
              160A  118A         
  6932                           	line	694
  6933                           	
  6934  116E                     l5120:	
  6935                           ;PR29.c: 694: lcd_goto(11);
  6936  116E  300B               	movlw	(0Bh)
  6937  116F  120A  158A  2004   	fcall	_lcd_goto
              160A  118A         
  6938                           	line	695
  6939                           	
  6940  1174                     l5122:	
  6941                           ;PR29.c: 695: send_char(0x30 + data0);
  6942  1174  087C               	movf	(display_status@data0),w
  6943  1175  3E30               	addlw	030h
  6944  1176  160A  158A  2580   	fcall	_send_char
              160A  118A         
  6945                           	line	696
  6946                           	
  6947  117B                     l5124:	
  6948                           ;PR29.c: 696: lcd_goto(20);
  6949  117B  3014               	movlw	(014h)
  6950  117C  120A  158A  2004   	fcall	_lcd_goto
              160A  118A         
  6951                           	line	697
  6952                           ;PR29.c: 697: send_string("Welcome");
  6953  1181  307F               	movlw	low(STR_54|8000h)
  6954  1182  00F9               	movwf	(?_send_string)
  6955  1183  309A               	movlw	high(STR_54|8000h)
  6956  1184  00FA               	movwf	((?_send_string))+1
  6957  1185  160A  158A  25FD   	fcall	_send_string
              160A  118A         
  6958                           	line	698
  6959                           	
  6960  118A                     l5126:	
  6961                           ;PR29.c: 698: error=0;
  6962  118A  1283               	bcf	status, 5	;RP0=0, select bank0
  6963  118B  1303               	bcf	status, 6	;RP1=0, select bank0
  6964  118C  11D9               	bcf	(_error/8),(_error)&7
  6965                           	line	699
  6966                           ;PR29.c: 699: }
  6967  118D  299E               	goto	l5132
  6968                           	line	700
  6969                           	
  6970  118E                     l814:	
  6971                           	line	702
  6972                           	
  6973  118E                     l5128:	
  6974                           ;PR29.c: 700: else
  6975                           ;PR29.c: 701: {
  6976                           ;PR29.c: 702: lcd_goto(0);
  6977  118E  3000               	movlw	(0)
  6978  118F  120A  158A  2004   	fcall	_lcd_goto
              160A  118A         
  6979                           	line	703
  6980                           	
  6981  1194                     l5130:	
  6982                           ;PR29.c: 703: send_string("Hello Admin");
  6983  1194  305F               	movlw	low(STR_55|8000h)
  6984  1195  00F9               	movwf	(?_send_string)
  6985  1196  309A               	movlw	high(STR_55|8000h)
  6986  1197  00FA               	movwf	((?_send_string))+1
  6987  1198  160A  158A  25FD   	fcall	_send_string
              160A  118A         
  6988  119D  299E               	goto	l5132
  6989                           	line	704
  6990                           	
  6991  119E                     l815:	
  6992                           	line	705
  6993                           	
  6994  119E                     l5132:	
  6995                           ;PR29.c: 704: }
  6996                           ;PR29.c: 705: delay(200000);
  6997  119E  3000               	movlw	0
  6998  119F  00F3               	movwf	(?_delay+3)
  6999  11A0  3003               	movlw	03h
  7000  11A1  00F2               	movwf	(?_delay+2)
  7001  11A2  300D               	movlw	0Dh
  7002  11A3  00F1               	movwf	(?_delay+1)
  7003  11A4  3040               	movlw	040h
  7004  11A5  00F0               	movwf	(?_delay)
  7005                           
  7006  11A6  160A  158A  25CD   	fcall	_delay
              160A  118A         
  7007                           	line	706
  7008                           	
  7009  11AB                     l5134:	
  7010                           ;PR29.c: 706: RA1=0;
  7011  11AB  1283               	bcf	status, 5	;RP0=0, select bank0
  7012  11AC  1303               	bcf	status, 6	;RP1=0, select bank0
  7013  11AD  1085               	bcf	(41/8),(41)&7
  7014                           	line	707
  7015                           	
  7016  11AE                     l5136:	
  7017                           ;PR29.c: 707: lcd_clr();
  7018  11AE  160A  158A  24EA   	fcall	_lcd_clr
              160A  118A         
  7019                           	line	708
  7020                           ;PR29.c: 708: break;
  7021  11B3  29F6               	goto	l817
  7022                           	line	711
  7023                           ;PR29.c: 711: default: RA0=1;
  7024                           	
  7025  11B4                     l816:	
  7026  11B4  1283               	bcf	status, 5	;RP0=0, select bank0
  7027  11B5  1303               	bcf	status, 6	;RP1=0, select bank0
  7028  11B6  1405               	bsf	(40/8),(40)&7
  7029                           	line	712
  7030                           ;PR29.c: 712: RA1=1;
  7031  11B7  1485               	bsf	(41/8),(41)&7
  7032                           	line	713
  7033                           ;PR29.c: 713: RA5=1;
  7034  11B8  1685               	bsf	(45/8),(45)&7
  7035                           	line	714
  7036                           	
  7037  11B9                     l5138:	
  7038                           ;PR29.c: 714: lcd_goto(20);
  7039  11B9  3014               	movlw	(014h)
  7040  11BA  120A  158A  2004   	fcall	_lcd_goto
              160A  118A         
  7041                           	line	715
  7042                           	
  7043  11BF                     l5140:	
  7044                           ;PR29.c: 715: send_string("Error");
  7045  11BF  30AB               	movlw	low(STR_56|8000h)
  7046  11C0  00F9               	movwf	(?_send_string)
  7047  11C1  309A               	movlw	high(STR_56|8000h)
  7048  11C2  00FA               	movwf	((?_send_string))+1
  7049  11C3  160A  158A  25FD   	fcall	_send_string
              160A  118A         
  7050                           	line	716
  7051                           	
  7052  11C8                     l5142:	
  7053                           ;PR29.c: 716: delay(200000);
  7054  11C8  3000               	movlw	0
  7055  11C9  00F3               	movwf	(?_delay+3)
  7056  11CA  3003               	movlw	03h
  7057  11CB  00F2               	movwf	(?_delay+2)
  7058  11CC  300D               	movlw	0Dh
  7059  11CD  00F1               	movwf	(?_delay+1)
  7060  11CE  3040               	movlw	040h
  7061  11CF  00F0               	movwf	(?_delay)
  7062                           
  7063  11D0  160A  158A  25CD   	fcall	_delay
              160A  118A         
  7064                           	line	717
  7065                           	
  7066  11D5                     l5144:	
  7067                           ;PR29.c: 717: RA5=0;
  7068  11D5  1283               	bcf	status, 5	;RP0=0, select bank0
  7069  11D6  1303               	bcf	status, 6	;RP1=0, select bank0
  7070  11D7  1285               	bcf	(45/8),(45)&7
  7071                           	line	718
  7072                           	
  7073  11D8                     l5146:	
  7074                           ;PR29.c: 718: RA0=0;
  7075  11D8  1005               	bcf	(40/8),(40)&7
  7076                           	line	719
  7077                           	
  7078  11D9                     l5148:	
  7079                           ;PR29.c: 719: RA1=0;
  7080  11D9  1085               	bcf	(41/8),(41)&7
  7081                           	line	720
  7082                           	
  7083  11DA                     l5150:	
  7084                           ;PR29.c: 720: error=1;
  7085  11DA  15D9               	bsf	(_error/8),(_error)&7
  7086                           	line	721
  7087                           	
  7088  11DB                     l5152:	
  7089                           ;PR29.c: 721: lcd_clr();
  7090  11DB  160A  158A  24EA   	fcall	_lcd_clr
              160A  118A         
  7091                           	line	722
  7092                           ;PR29.c: 722: break;
  7093  11E0  29F6               	goto	l817
  7094                           	line	724
  7095                           	
  7096  11E1                     l5154:	
  7097                           ;PR29.c: 724: }
  7098  11E1  29F6               	goto	l817
  7099                           	line	618
  7100                           	
  7101  11E2                     l801:	
  7102                           	
  7103  11E2                     l5156:	
  7104  11E2  087D               	movf	(display_status@data),w
  7105                           	; Switch size 1, requested type "space"
  7106                           ; Number of cases is 6, Range of values is 0 to 8
  7107                           ; switch strategies available:
  7108                           ; Name         Bytes Cycles
  7109                           ; simple_byte    19    10 (average)
  7110                           ; direct_byte    46    19 (fixed)
  7111                           ;	Chosen strategy is simple_byte
  7112                           
  7113  11E3  3A00               	xorlw	0^0	; case 0
  7114  11E4  1903               	skipnz
  7115  11E5  2824               	goto	l802
  7116  11E6  3A01               	xorlw	1^0	; case 1
  7117  11E7  1903               	skipnz
  7118  11E8  28AA               	goto	l809
  7119  11E9  3A02               	xorlw	3^1	; case 3
  7120  11EA  1903               	skipnz
  7121  11EB  2956               	goto	l813
  7122  11EC  3A06               	xorlw	5^3	; case 5
  7123  11ED  1903               	skipnz
  7124  11EE  292B               	goto	l812
  7125  11EF  3A02               	xorlw	7^5	; case 7
  7126  11F0  1903               	skipnz
  7127  11F1  2900               	goto	l811
  7128  11F2  3A0F               	xorlw	8^7	; case 8
  7129  11F3  1903               	skipnz
  7130  11F4  28D5               	goto	l810
  7131  11F5  29B4               	goto	l816
  7132                           
  7133                           	line	724
  7134                           	
  7135  11F6                     l808:	
  7136                           	line	725
  7137                           	
  7138  11F6                     l817:	
  7139  11F6  0008               	return
  7140                           	opt stack 0
  7141                           GLOBAL	__end_of_display_status
  7142  11F7                     	__end_of_display_status:
  7143 ;; =============== function _display_status ends ============
  7144                           
  7145                           	signat	_display_status,12408
  7146                           	global	_upload_HT
  7147                           psect	text567,local,class=CODE,delta=2
  7148                           global __ptext567
  7149  0BD7                     __ptext567:
  7150                           
  7151 ;; *************** function _upload_HT *****************
  7152 ;; Defined at:
  7153 ;;		line 966 in file "C:\Users\Phang\Desktop\9.80\PR 29\PR29.c"
  7154 ;; Parameters:    Size  Location     Type
  7155 ;;		None
  7156 ;; Auto vars:     Size  Location     Type
  7157 ;;  array_title    40    0[BANK0 ] unsigned char [40]
  7158 ;;  count           1   41[BANK0 ] unsigned char 
  7159 ;;  address         1   40[BANK0 ] unsigned char 
  7160 ;; Return value:  Size  Location     Type
  7161 ;;		None               void
  7162 ;; Registers used:
  7163 ;;		wreg, fsr0l, fsr0h, status,2, status,0, pclath, cstack
  7164 ;; Tracked objects:
  7165 ;;		On entry : 0/0
  7166 ;;		On exit  : 0/0
  7167 ;;		Unchanged: 0/0
  7168 ;; Data sizes:     COMMON   BANK0   BANK1   BANK3   BANK2
  7169 ;;      Params:         0       0       0       0       0
  7170 ;;      Locals:         0      42       0       0       0
  7171 ;;      Temps:          4       0       0       0       0
  7172 ;;      Totals:         4      42       0       0       0
  7173 ;;Total ram usage:       46 bytes
  7174 ;; Hardware stack levels used:    1
  7175 ;; Hardware stack levels required when called:    2
  7176 ;; This function calls:
  7177 ;;		_uart_write
  7178 ;;		_allign
  7179 ;;		_get_eeprom
  7180 ;; This function is called by:
  7181 ;;		_mode
  7182 ;; This function uses a non-reentrant model
  7183 ;;
  7184                           psect	text567
  7185                           	file	"C:\Users\Phang\Desktop\9.80\PR 29\PR29.c"
  7186                           	line	966
  7187                           	global	__size_of_upload_HT
  7188  0429                     	__size_of_upload_HT	equ	__end_of_upload_HT-_upload_HT
  7189                           	
  7190  0BD7                     _upload_HT:	
  7191                           	opt	stack 4
  7192                           ; Regs used in _upload_HT: [wreg-fsr0h+status,2+status,0+pclath+cstack]
  7193                           	line	969
  7194                           	
  7195  0BD7                     l4796:	
  7196                           ;PR29.c: 967: unsigned char address;
  7197                           ;PR29.c: 968: unsigned char count;
  7198                           ;PR29.c: 969: unsigned char array_title[40]= {"+-+-+- Attendance List -+-+- Cytron PR29"
                                 };
  7199  0BD7  3020               	movlw	(upload_HT@array_title)&0ffh
  7200  0BD8  0084               	movwf	fsr0
  7201  0BD9  30A0               	movlw	low(upload_HT@F567)
  7202  0BDA  00F7               	movwf	(??_upload_HT+0)+0
  7203  0BDB  0804               	movf	fsr0,w
  7204  0BDC  00F8               	movwf	((??_upload_HT+0)+0+1)
  7205  0BDD  3028               	movlw	40
  7206  0BDE  00F9               	movwf	((??_upload_HT+0)+0+2)
  7207  0BDF                     u4530:
  7208  0BDF  0877               	movf	(??_upload_HT+0)+0,w
  7209  0BE0  0084               	movwf	fsr0
  7210  0BE1  1383               	bcf	status, 7	;select IRP bank1
  7211                           	
  7212  0BE2  0800               	movf	indf,w
  7213  0BE3  00FA               	movwf	((??_upload_HT+0)+0+3)
  7214  0BE4  0AF7               	incf	(??_upload_HT+0)+0,f
  7215  0BE5  0878               	movf	((??_upload_HT+0)+0+1),w
  7216  0BE6  0084               	movwf	fsr0
  7217                           	
  7218  0BE7  087A               	movf	((??_upload_HT+0)+0+3),w
  7219  0BE8  0080               	movwf	indf
  7220  0BE9  0AF8               	incf	((??_upload_HT+0)+0+1),f
  7221  0BEA  0BF9               	decfsz	((??_upload_HT+0)+0+2),f
  7222  0BEB  2BDF               	goto	u4530
  7223                           	line	971
  7224                           	
  7225  0BEC                     l4798:	
  7226                           ;PR29.c: 971: for(count=0;count<40;count++)
  7227  0BEC  1003               	clrc
  7228  0BED  3000               	movlw	0
  7229  0BEE  1803               	btfsc	status,0
  7230  0BEF  3001               	movlw	1
  7231  0BF0  1283               	bcf	status, 5	;RP0=0, select bank0
  7232  0BF1  1303               	bcf	status, 6	;RP1=0, select bank0
  7233  0BF2  00C9               	movwf	(upload_HT@count)
  7234                           	
  7235  0BF3                     l4800:	
  7236  0BF3  3028               	movlw	(028h)
  7237  0BF4  0249               	subwf	(upload_HT@count),w
  7238  0BF5  1C03               	skipc
  7239  0BF6  2BF8               	goto	u4541
  7240  0BF7  2BF9               	goto	u4540
  7241  0BF8                     u4541:
  7242  0BF8  2BFB               	goto	l4804
  7243  0BF9                     u4540:
  7244  0BF9  2C16               	goto	l4810
  7245                           	
  7246  0BFA                     l4802:	
  7247  0BFA  2C16               	goto	l4810
  7248                           	line	972
  7249                           	
  7250  0BFB                     l885:	
  7251                           	
  7252  0BFB                     l4804:	
  7253                           ;PR29.c: 972: uart_write(2,array_title[count]);
  7254  0BFB  0849               	movf	(upload_HT@count),w
  7255  0BFC  3E20               	addlw	upload_HT@array_title&0ffh
  7256  0BFD  0084               	movwf	fsr0
  7257  0BFE  1383               	bcf	status, 7	;select IRP bank0
  7258  0BFF  0800               	movf	indf,w
  7259  0C00  00F7               	movwf	(??_upload_HT+0)+0
  7260  0C01  0877               	movf	(??_upload_HT+0)+0,w
  7261  0C02  00F0               	movwf	(?_uart_write)
  7262  0C03  3002               	movlw	(02h)
  7263  0C04  120A  158A  2021   	fcall	_uart_write
              120A  158A         
  7264                           	line	971
  7265                           	
  7266  0C09                     l4806:	
  7267  0C09  3001               	movlw	(01h)
  7268  0C0A  00F7               	movwf	(??_upload_HT+0)+0
  7269  0C0B  0877               	movf	(??_upload_HT+0)+0,w
  7270  0C0C  1283               	bcf	status, 5	;RP0=0, select bank0
  7271  0C0D  1303               	bcf	status, 6	;RP1=0, select bank0
  7272  0C0E  07C9               	addwf	(upload_HT@count),f
  7273                           	
  7274  0C0F                     l4808:	
  7275  0C0F  3028               	movlw	(028h)
  7276  0C10  0249               	subwf	(upload_HT@count),w
  7277  0C11  1C03               	skipc
  7278  0C12  2C14               	goto	u4551
  7279  0C13  2C15               	goto	u4550
  7280  0C14                     u4551:
  7281  0C14  2BFB               	goto	l4804
  7282  0C15                     u4550:
  7283  0C15  2C16               	goto	l4810
  7284                           	
  7285  0C16                     l886:	
  7286                           	line	973
  7287                           	
  7288  0C16                     l4810:	
  7289                           ;PR29.c: 973: for(count=0;count<20;count++)
  7290  0C16  1003               	clrc
  7291  0C17  3000               	movlw	0
  7292  0C18  1803               	btfsc	status,0
  7293  0C19  3001               	movlw	1
  7294  0C1A  00C9               	movwf	(upload_HT@count)
  7295                           	
  7296  0C1B                     l4812:	
  7297  0C1B  3014               	movlw	(014h)
  7298  0C1C  0249               	subwf	(upload_HT@count),w
  7299  0C1D  1C03               	skipc
  7300  0C1E  2C20               	goto	u4561
  7301  0C1F  2C21               	goto	u4560
  7302  0C20                     u4561:
  7303  0C20  2C23               	goto	l4816
  7304  0C21                     u4560:
  7305  0C21  2C44               	goto	l4822
  7306                           	
  7307  0C22                     l4814:	
  7308  0C22  2C44               	goto	l4822
  7309                           	line	974
  7310                           	
  7311  0C23                     l887:	
  7312                           	
  7313  0C23                     l4816:	
  7314                           ;PR29.c: 974: { uart_write(2,'+');
  7315  0C23  302B               	movlw	(02Bh)
  7316  0C24  00F7               	movwf	(??_upload_HT+0)+0
  7317  0C25  0877               	movf	(??_upload_HT+0)+0,w
  7318  0C26  00F0               	movwf	(?_uart_write)
  7319  0C27  3002               	movlw	(02h)
  7320  0C28  120A  158A  2021   	fcall	_uart_write
              120A  158A         
  7321                           	line	975
  7322                           ;PR29.c: 975: uart_write(2,'-');
  7323  0C2D  302D               	movlw	(02Dh)
  7324  0C2E  00F7               	movwf	(??_upload_HT+0)+0
  7325  0C2F  0877               	movf	(??_upload_HT+0)+0,w
  7326  0C30  00F0               	movwf	(?_uart_write)
  7327  0C31  3002               	movlw	(02h)
  7328  0C32  120A  158A  2021   	fcall	_uart_write
              120A  158A         
  7329                           	line	973
  7330                           	
  7331  0C37                     l4818:	
  7332  0C37  3001               	movlw	(01h)
  7333  0C38  00F7               	movwf	(??_upload_HT+0)+0
  7334  0C39  0877               	movf	(??_upload_HT+0)+0,w
  7335  0C3A  1283               	bcf	status, 5	;RP0=0, select bank0
  7336  0C3B  1303               	bcf	status, 6	;RP1=0, select bank0
  7337  0C3C  07C9               	addwf	(upload_HT@count),f
  7338                           	
  7339  0C3D                     l4820:	
  7340  0C3D  3014               	movlw	(014h)
  7341  0C3E  0249               	subwf	(upload_HT@count),w
  7342  0C3F  1C03               	skipc
  7343  0C40  2C42               	goto	u4571
  7344  0C41  2C43               	goto	u4570
  7345  0C42                     u4571:
  7346  0C42  2C23               	goto	l4816
  7347  0C43                     u4570:
  7348  0C43  2C44               	goto	l4822
  7349                           	
  7350  0C44                     l888:	
  7351                           	line	977
  7352                           	
  7353  0C44                     l4822:	
  7354                           ;PR29.c: 976: }
  7355                           ;PR29.c: 977: for(count=0;count<80;count++)
  7356  0C44  1003               	clrc
  7357  0C45  3000               	movlw	0
  7358  0C46  1803               	btfsc	status,0
  7359  0C47  3001               	movlw	1
  7360  0C48  00C9               	movwf	(upload_HT@count)
  7361                           	
  7362  0C49                     l4824:	
  7363  0C49  3050               	movlw	(050h)
  7364  0C4A  0249               	subwf	(upload_HT@count),w
  7365  0C4B  1C03               	skipc
  7366  0C4C  2C4E               	goto	u4581
  7367  0C4D  2C4F               	goto	u4580
  7368  0C4E                     u4581:
  7369  0C4E  2C51               	goto	l4828
  7370  0C4F                     u4580:
  7371  0C4F  2C68               	goto	l4834
  7372                           	
  7373  0C50                     l4826:	
  7374  0C50  2C68               	goto	l4834
  7375                           	line	978
  7376                           	
  7377  0C51                     l889:	
  7378                           	
  7379  0C51                     l4828:	
  7380                           ;PR29.c: 978: uart_write(2,' ');
  7381  0C51  3020               	movlw	(020h)
  7382  0C52  00F7               	movwf	(??_upload_HT+0)+0
  7383  0C53  0877               	movf	(??_upload_HT+0)+0,w
  7384  0C54  00F0               	movwf	(?_uart_write)
  7385  0C55  3002               	movlw	(02h)
  7386  0C56  120A  158A  2021   	fcall	_uart_write
              120A  158A         
  7387                           	line	977
  7388                           	
  7389  0C5B                     l4830:	
  7390  0C5B  3001               	movlw	(01h)
  7391  0C5C  00F7               	movwf	(??_upload_HT+0)+0
  7392  0C5D  0877               	movf	(??_upload_HT+0)+0,w
  7393  0C5E  1283               	bcf	status, 5	;RP0=0, select bank0
  7394  0C5F  1303               	bcf	status, 6	;RP1=0, select bank0
  7395  0C60  07C9               	addwf	(upload_HT@count),f
  7396                           	
  7397  0C61                     l4832:	
  7398  0C61  3050               	movlw	(050h)
  7399  0C62  0249               	subwf	(upload_HT@count),w
  7400  0C63  1C03               	skipc
  7401  0C64  2C66               	goto	u4591
  7402  0C65  2C67               	goto	u4590
  7403  0C66                     u4591:
  7404  0C66  2C51               	goto	l4828
  7405  0C67                     u4590:
  7406  0C67  2C68               	goto	l4834
  7407                           	
  7408  0C68                     l890:	
  7409                           	line	979
  7410                           	
  7411  0C68                     l4834:	
  7412                           ;PR29.c: 979: uart_write(2,'U');
  7413  0C68  3055               	movlw	(055h)
  7414  0C69  00F7               	movwf	(??_upload_HT+0)+0
  7415  0C6A  0877               	movf	(??_upload_HT+0)+0,w
  7416  0C6B  00F0               	movwf	(?_uart_write)
  7417  0C6C  3002               	movlw	(02h)
  7418  0C6D  120A  158A  2021   	fcall	_uart_write
              120A  158A         
  7419                           	line	980
  7420                           ;PR29.c: 980: uart_write(2,'s');
  7421  0C72  3073               	movlw	(073h)
  7422  0C73  00F7               	movwf	(??_upload_HT+0)+0
  7423  0C74  0877               	movf	(??_upload_HT+0)+0,w
  7424  0C75  00F0               	movwf	(?_uart_write)
  7425  0C76  3002               	movlw	(02h)
  7426  0C77  120A  158A  2021   	fcall	_uart_write
              120A  158A         
  7427                           	line	981
  7428                           ;PR29.c: 981: uart_write(2,'e');
  7429  0C7C  3065               	movlw	(065h)
  7430  0C7D  00F7               	movwf	(??_upload_HT+0)+0
  7431  0C7E  0877               	movf	(??_upload_HT+0)+0,w
  7432  0C7F  00F0               	movwf	(?_uart_write)
  7433  0C80  3002               	movlw	(02h)
  7434  0C81  120A  158A  2021   	fcall	_uart_write
              120A  158A         
  7435                           	line	982
  7436                           ;PR29.c: 982: uart_write(2,'r');
  7437  0C86  3072               	movlw	(072h)
  7438  0C87  00F7               	movwf	(??_upload_HT+0)+0
  7439  0C88  0877               	movf	(??_upload_HT+0)+0,w
  7440  0C89  00F0               	movwf	(?_uart_write)
  7441  0C8A  3002               	movlw	(02h)
  7442  0C8B  120A  158A  2021   	fcall	_uart_write
              120A  158A         
  7443                           	line	983
  7444                           	
  7445  0C90                     l4836:	
  7446                           ;PR29.c: 983: for(count=1;count<6;count++)
  7447  0C90  1283               	bcf	status, 5	;RP0=0, select bank0
  7448  0C91  1303               	bcf	status, 6	;RP1=0, select bank0
  7449  0C92  01C9               	clrf	(upload_HT@count)
  7450  0C93  1403               	bsf	status,0
  7451  0C94  0DC9               	rlf	(upload_HT@count),f
  7452                           	
  7453  0C95                     l4838:	
  7454  0C95  3006               	movlw	(06h)
  7455  0C96  0249               	subwf	(upload_HT@count),w
  7456  0C97  1C03               	skipc
  7457  0C98  2C9A               	goto	u4601
  7458  0C99  2C9B               	goto	u4600
  7459  0C9A                     u4601:
  7460  0C9A  2C9D               	goto	l4842
  7461  0C9B                     u4600:
  7462  0C9B  2CC1               	goto	l4848
  7463                           	
  7464  0C9C                     l4840:	
  7465  0C9C  2CC1               	goto	l4848
  7466                           	line	984
  7467                           	
  7468  0C9D                     l891:	
  7469                           	line	985
  7470                           	
  7471  0C9D                     l4842:	
  7472                           ;PR29.c: 984: {
  7473                           ;PR29.c: 985: uart_write(2,' ');
  7474  0C9D  3020               	movlw	(020h)
  7475  0C9E  00F7               	movwf	(??_upload_HT+0)+0
  7476  0C9F  0877               	movf	(??_upload_HT+0)+0,w
  7477  0CA0  00F0               	movwf	(?_uart_write)
  7478  0CA1  3002               	movlw	(02h)
  7479  0CA2  120A  158A  2021   	fcall	_uart_write
              120A  158A         
  7480                           	line	986
  7481                           ;PR29.c: 986: uart_write(2,0x30+count);
  7482  0CA7  1283               	bcf	status, 5	;RP0=0, select bank0
  7483  0CA8  1303               	bcf	status, 6	;RP1=0, select bank0
  7484  0CA9  0849               	movf	(upload_HT@count),w
  7485  0CAA  3E30               	addlw	030h
  7486  0CAB  00F7               	movwf	(??_upload_HT+0)+0
  7487  0CAC  0877               	movf	(??_upload_HT+0)+0,w
  7488  0CAD  00F0               	movwf	(?_uart_write)
  7489  0CAE  3002               	movlw	(02h)
  7490  0CAF  120A  158A  2021   	fcall	_uart_write
              120A  158A         
  7491                           	line	983
  7492                           	
  7493  0CB4                     l4844:	
  7494  0CB4  3001               	movlw	(01h)
  7495  0CB5  00F7               	movwf	(??_upload_HT+0)+0
  7496  0CB6  0877               	movf	(??_upload_HT+0)+0,w
  7497  0CB7  1283               	bcf	status, 5	;RP0=0, select bank0
  7498  0CB8  1303               	bcf	status, 6	;RP1=0, select bank0
  7499  0CB9  07C9               	addwf	(upload_HT@count),f
  7500                           	
  7501  0CBA                     l4846:	
  7502  0CBA  3006               	movlw	(06h)
  7503  0CBB  0249               	subwf	(upload_HT@count),w
  7504  0CBC  1C03               	skipc
  7505  0CBD  2CBF               	goto	u4611
  7506  0CBE  2CC0               	goto	u4610
  7507  0CBF                     u4611:
  7508  0CBF  2C9D               	goto	l4842
  7509  0CC0                     u4610:
  7510  0CC0  2CC1               	goto	l4848
  7511                           	
  7512  0CC1                     l892:	
  7513                           	line	988
  7514                           	
  7515  0CC1                     l4848:	
  7516                           ;PR29.c: 987: }
  7517                           ;PR29.c: 988: allign();
  7518  0CC1  160A  158A  2513   	fcall	_allign
              120A  158A         
  7519                           	line	990
  7520                           	
  7521  0CC6                     l4850:	
  7522                           ;PR29.c: 990: address=0x00;
  7523  0CC6  1003               	clrc
  7524  0CC7  3000               	movlw	0
  7525  0CC8  1803               	btfsc	status,0
  7526  0CC9  3001               	movlw	1
  7527  0CCA  1283               	bcf	status, 5	;RP0=0, select bank0
  7528  0CCB  1303               	bcf	status, 6	;RP1=0, select bank0
  7529  0CCC  00C8               	movwf	(upload_HT@address)
  7530                           	line	991
  7531                           	
  7532  0CCD                     l4852:	
  7533                           ;PR29.c: 991: count=address;
  7534  0CCD  0848               	movf	(upload_HT@address),w
  7535  0CCE  00F7               	movwf	(??_upload_HT+0)+0
  7536  0CCF  0877               	movf	(??_upload_HT+0)+0,w
  7537  0CD0  00C9               	movwf	(upload_HT@count)
  7538                           	line	992
  7539  0CD1  2CF0               	goto	l4860
  7540                           	line	993
  7541                           	
  7542  0CD2                     l894:	
  7543                           	line	994
  7544                           	
  7545  0CD2                     l4854:	
  7546                           ;PR29.c: 993: {
  7547                           ;PR29.c: 994: TEMP=get_eeprom(count);
  7548  0CD2  1283               	bcf	status, 5	;RP0=0, select bank0
  7549  0CD3  1303               	bcf	status, 6	;RP1=0, select bank0
  7550  0CD4  0849               	movf	(upload_HT@count),w
  7551  0CD5  160A  158A  24FE   	fcall	_get_eeprom
              120A  158A         
  7552  0CDA  00F7               	movwf	(??_upload_HT+0)+0
  7553  0CDB  0877               	movf	(??_upload_HT+0)+0,w
  7554  0CDC  1283               	bcf	status, 5	;RP0=0, select bank0
  7555  0CDD  1303               	bcf	status, 6	;RP1=0, select bank0
  7556  0CDE  00D6               	movwf	(_TEMP)
  7557                           	line	995
  7558                           	
  7559  0CDF                     l4856:	
  7560                           ;PR29.c: 995: uart_write(2,TEMP);
  7561  0CDF  0856               	movf	(_TEMP),w
  7562  0CE0  00F7               	movwf	(??_upload_HT+0)+0
  7563  0CE1  0877               	movf	(??_upload_HT+0)+0,w
  7564  0CE2  00F0               	movwf	(?_uart_write)
  7565  0CE3  3002               	movlw	(02h)
  7566  0CE4  120A  158A  2021   	fcall	_uart_write
              120A  158A         
  7567                           	line	992
  7568                           	
  7569  0CE9                     l4858:	
  7570  0CE9  3001               	movlw	(01h)
  7571  0CEA  00F7               	movwf	(??_upload_HT+0)+0
  7572  0CEB  0877               	movf	(??_upload_HT+0)+0,w
  7573  0CEC  1283               	bcf	status, 5	;RP0=0, select bank0
  7574  0CED  1303               	bcf	status, 6	;RP1=0, select bank0
  7575  0CEE  07C9               	addwf	(upload_HT@count),f
  7576  0CEF  2CF0               	goto	l4860
  7577                           	
  7578  0CF0                     l893:	
  7579                           	
  7580  0CF0                     l4860:	
  7581  0CF0  0848               	movf	(upload_HT@address),w
  7582  0CF1  3E03               	addlw	low(03h)
  7583  0CF2  00F7               	movwf	(??_upload_HT+0)+0
  7584  0CF3  3000               	movlw	high(03h)
  7585  0CF4  1803               	skipnc
  7586  0CF5  3001               	movlw	(high(03h)+1)&0ffh
  7587  0CF6  00F8               	movwf	((??_upload_HT+0)+0)+1
  7588  0CF7  0878               	movf	1+(??_upload_HT+0)+0,w
  7589  0CF8  3A80               	xorlw	80h
  7590  0CF9  00F9               	movwf	(??_upload_HT+2)+0
  7591  0CFA  3080               	movlw	80h
  7592  0CFB  0279               	subwf	(??_upload_HT+2)+0,w
  7593  0CFC  1D03               	skipz
  7594  0CFD  2D00               	goto	u4625
  7595  0CFE  0849               	movf	(upload_HT@count),w
  7596  0CFF  0277               	subwf	0+(??_upload_HT+0)+0,w
  7597  0D00                     u4625:
  7598                           
  7599  0D00  1803               	skipnc
  7600  0D01  2D03               	goto	u4621
  7601  0D02  2D04               	goto	u4620
  7602  0D03                     u4621:
  7603  0D03  2CD2               	goto	l4854
  7604  0D04                     u4620:
  7605  0D04  2D05               	goto	l4862
  7606                           	
  7607  0D05                     l895:	
  7608                           	line	997
  7609                           	
  7610  0D05                     l4862:	
  7611                           ;PR29.c: 996: }
  7612                           ;PR29.c: 997: address=count;
  7613  0D05  1283               	bcf	status, 5	;RP0=0, select bank0
  7614  0D06  1303               	bcf	status, 6	;RP1=0, select bank0
  7615  0D07  0849               	movf	(upload_HT@count),w
  7616  0D08  00F7               	movwf	(??_upload_HT+0)+0
  7617  0D09  0877               	movf	(??_upload_HT+0)+0,w
  7618  0D0A  00C8               	movwf	(upload_HT@address)
  7619                           	line	998
  7620  0D0B  2D41               	goto	l4876
  7621                           	line	999
  7622                           	
  7623  0D0C                     l897:	
  7624                           	line	1000
  7625                           	
  7626  0D0C                     l4864:	
  7627                           ;PR29.c: 999: {
  7628                           ;PR29.c: 1000: TEMP=get_eeprom(count);
  7629  0D0C  1283               	bcf	status, 5	;RP0=0, select bank0
  7630  0D0D  1303               	bcf	status, 6	;RP1=0, select bank0
  7631  0D0E  0849               	movf	(upload_HT@count),w
  7632  0D0F  160A  158A  24FE   	fcall	_get_eeprom
              120A  158A         
  7633  0D14  00F7               	movwf	(??_upload_HT+0)+0
  7634  0D15  0877               	movf	(??_upload_HT+0)+0,w
  7635  0D16  1283               	bcf	status, 5	;RP0=0, select bank0
  7636  0D17  1303               	bcf	status, 6	;RP1=0, select bank0
  7637  0D18  00D6               	movwf	(_TEMP)
  7638                           	line	1001
  7639                           	
  7640  0D19                     l4866:	
  7641                           ;PR29.c: 1001: uart_write(2,' ');
  7642  0D19  3020               	movlw	(020h)
  7643  0D1A  00F7               	movwf	(??_upload_HT+0)+0
  7644  0D1B  0877               	movf	(??_upload_HT+0)+0,w
  7645  0D1C  00F0               	movwf	(?_uart_write)
  7646  0D1D  3002               	movlw	(02h)
  7647  0D1E  120A  158A  2021   	fcall	_uart_write
              120A  158A         
  7648                           	line	1002
  7649                           	
  7650  0D23                     l4868:	
  7651                           ;PR29.c: 1002: if(TEMP==0xff) TEMP=0x30;
  7652  0D23  1283               	bcf	status, 5	;RP0=0, select bank0
  7653  0D24  1303               	bcf	status, 6	;RP1=0, select bank0
  7654  0D25  0856               	movf	(_TEMP),w
  7655  0D26  3AFF               	xorlw	0FFh
  7656  0D27  1D03               	skipz
  7657  0D28  2D2A               	goto	u4631
  7658  0D29  2D2B               	goto	u4630
  7659  0D2A                     u4631:
  7660  0D2A  2D30               	goto	l4872
  7661  0D2B                     u4630:
  7662                           	
  7663  0D2B                     l4870:	
  7664  0D2B  3030               	movlw	(030h)
  7665  0D2C  00F7               	movwf	(??_upload_HT+0)+0
  7666  0D2D  0877               	movf	(??_upload_HT+0)+0,w
  7667  0D2E  00D6               	movwf	(_TEMP)
  7668  0D2F  2D30               	goto	l4872
  7669                           	
  7670  0D30                     l898:	
  7671                           	line	1003
  7672                           	
  7673  0D30                     l4872:	
  7674                           ;PR29.c: 1003: uart_write(2,TEMP);
  7675  0D30  0856               	movf	(_TEMP),w
  7676  0D31  00F7               	movwf	(??_upload_HT+0)+0
  7677  0D32  0877               	movf	(??_upload_HT+0)+0,w
  7678  0D33  00F0               	movwf	(?_uart_write)
  7679  0D34  3002               	movlw	(02h)
  7680  0D35  120A  158A  2021   	fcall	_uart_write
              120A  158A         
  7681                           	line	998
  7682                           	
  7683  0D3A                     l4874:	
  7684  0D3A  3001               	movlw	(01h)
  7685  0D3B  00F7               	movwf	(??_upload_HT+0)+0
  7686  0D3C  0877               	movf	(??_upload_HT+0)+0,w
  7687  0D3D  1283               	bcf	status, 5	;RP0=0, select bank0
  7688  0D3E  1303               	bcf	status, 6	;RP1=0, select bank0
  7689  0D3F  07C9               	addwf	(upload_HT@count),f
  7690  0D40  2D41               	goto	l4876
  7691                           	
  7692  0D41                     l896:	
  7693                           	
  7694  0D41                     l4876:	
  7695  0D41  0848               	movf	(upload_HT@address),w
  7696  0D42  3E04               	addlw	low(04h)
  7697  0D43  00F7               	movwf	(??_upload_HT+0)+0
  7698  0D44  3000               	movlw	high(04h)
  7699  0D45  1803               	skipnc
  7700  0D46  3001               	movlw	(high(04h)+1)&0ffh
  7701  0D47  00F8               	movwf	((??_upload_HT+0)+0)+1
  7702  0D48  0878               	movf	1+(??_upload_HT+0)+0,w
  7703  0D49  3A80               	xorlw	80h
  7704  0D4A  00F9               	movwf	(??_upload_HT+2)+0
  7705  0D4B  3080               	movlw	80h
  7706  0D4C  0279               	subwf	(??_upload_HT+2)+0,w
  7707  0D4D  1D03               	skipz
  7708  0D4E  2D51               	goto	u4645
  7709  0D4F  0849               	movf	(upload_HT@count),w
  7710  0D50  0277               	subwf	0+(??_upload_HT+0)+0,w
  7711  0D51                     u4645:
  7712                           
  7713  0D51  1803               	skipnc
  7714  0D52  2D54               	goto	u4641
  7715  0D53  2D55               	goto	u4640
  7716  0D54                     u4641:
  7717  0D54  2D0C               	goto	l4864
  7718  0D55                     u4640:
  7719  0D55  2D56               	goto	l4878
  7720                           	
  7721  0D56                     l899:	
  7722                           	line	1005
  7723                           	
  7724  0D56                     l4878:	
  7725                           ;PR29.c: 1004: }
  7726                           ;PR29.c: 1005: allign();
  7727  0D56  160A  158A  2513   	fcall	_allign
              120A  158A         
  7728                           	line	1007
  7729                           	
  7730  0D5B                     l4880:	
  7731                           ;PR29.c: 1007: address=0x10;
  7732  0D5B  3010               	movlw	(010h)
  7733  0D5C  00F7               	movwf	(??_upload_HT+0)+0
  7734  0D5D  0877               	movf	(??_upload_HT+0)+0,w
  7735  0D5E  1283               	bcf	status, 5	;RP0=0, select bank0
  7736  0D5F  1303               	bcf	status, 6	;RP1=0, select bank0
  7737  0D60  00C8               	movwf	(upload_HT@address)
  7738                           	line	1008
  7739                           	
  7740  0D61                     l4882:	
  7741                           ;PR29.c: 1008: count=address;
  7742  0D61  0848               	movf	(upload_HT@address),w
  7743  0D62  00F7               	movwf	(??_upload_HT+0)+0
  7744  0D63  0877               	movf	(??_upload_HT+0)+0,w
  7745  0D64  00C9               	movwf	(upload_HT@count)
  7746                           	line	1009
  7747  0D65  2D84               	goto	l4890
  7748                           	line	1010
  7749                           	
  7750  0D66                     l901:	
  7751                           	line	1011
  7752                           	
  7753  0D66                     l4884:	
  7754                           ;PR29.c: 1010: {
  7755                           ;PR29.c: 1011: TEMP=get_eeprom(count);
  7756  0D66  1283               	bcf	status, 5	;RP0=0, select bank0
  7757  0D67  1303               	bcf	status, 6	;RP1=0, select bank0
  7758  0D68  0849               	movf	(upload_HT@count),w
  7759  0D69  160A  158A  24FE   	fcall	_get_eeprom
              120A  158A         
  7760  0D6E  00F7               	movwf	(??_upload_HT+0)+0
  7761  0D6F  0877               	movf	(??_upload_HT+0)+0,w
  7762  0D70  1283               	bcf	status, 5	;RP0=0, select bank0
  7763  0D71  1303               	bcf	status, 6	;RP1=0, select bank0
  7764  0D72  00D6               	movwf	(_TEMP)
  7765                           	line	1012
  7766                           	
  7767  0D73                     l4886:	
  7768                           ;PR29.c: 1012: uart_write(2,TEMP);
  7769  0D73  0856               	movf	(_TEMP),w
  7770  0D74  00F7               	movwf	(??_upload_HT+0)+0
  7771  0D75  0877               	movf	(??_upload_HT+0)+0,w
  7772  0D76  00F0               	movwf	(?_uart_write)
  7773  0D77  3002               	movlw	(02h)
  7774  0D78  120A  158A  2021   	fcall	_uart_write
              120A  158A         
  7775                           	line	1009
  7776                           	
  7777  0D7D                     l4888:	
  7778  0D7D  3001               	movlw	(01h)
  7779  0D7E  00F7               	movwf	(??_upload_HT+0)+0
  7780  0D7F  0877               	movf	(??_upload_HT+0)+0,w
  7781  0D80  1283               	bcf	status, 5	;RP0=0, select bank0
  7782  0D81  1303               	bcf	status, 6	;RP1=0, select bank0
  7783  0D82  07C9               	addwf	(upload_HT@count),f
  7784  0D83  2D84               	goto	l4890
  7785                           	
  7786  0D84                     l900:	
  7787                           	
  7788  0D84                     l4890:	
  7789  0D84  0848               	movf	(upload_HT@address),w
  7790  0D85  3E03               	addlw	low(03h)
  7791  0D86  00F7               	movwf	(??_upload_HT+0)+0
  7792  0D87  3000               	movlw	high(03h)
  7793  0D88  1803               	skipnc
  7794  0D89  3001               	movlw	(high(03h)+1)&0ffh
  7795  0D8A  00F8               	movwf	((??_upload_HT+0)+0)+1
  7796  0D8B  0878               	movf	1+(??_upload_HT+0)+0,w
  7797  0D8C  3A80               	xorlw	80h
  7798  0D8D  00F9               	movwf	(??_upload_HT+2)+0
  7799  0D8E  3080               	movlw	80h
  7800  0D8F  0279               	subwf	(??_upload_HT+2)+0,w
  7801  0D90  1D03               	skipz
  7802  0D91  2D94               	goto	u4655
  7803  0D92  0849               	movf	(upload_HT@count),w
  7804  0D93  0277               	subwf	0+(??_upload_HT+0)+0,w
  7805  0D94                     u4655:
  7806                           
  7807  0D94  1803               	skipnc
  7808  0D95  2D97               	goto	u4651
  7809  0D96  2D98               	goto	u4650
  7810  0D97                     u4651:
  7811  0D97  2D66               	goto	l4884
  7812  0D98                     u4650:
  7813  0D98  2D99               	goto	l4892
  7814                           	
  7815  0D99                     l902:	
  7816                           	line	1014
  7817                           	
  7818  0D99                     l4892:	
  7819                           ;PR29.c: 1013: }
  7820                           ;PR29.c: 1014: address=count;
  7821  0D99  1283               	bcf	status, 5	;RP0=0, select bank0
  7822  0D9A  1303               	bcf	status, 6	;RP1=0, select bank0
  7823  0D9B  0849               	movf	(upload_HT@count),w
  7824  0D9C  00F7               	movwf	(??_upload_HT+0)+0
  7825  0D9D  0877               	movf	(??_upload_HT+0)+0,w
  7826  0D9E  00C8               	movwf	(upload_HT@address)
  7827                           	line	1015
  7828  0D9F  2DD5               	goto	l4906
  7829                           	line	1016
  7830                           	
  7831  0DA0                     l904:	
  7832                           	line	1017
  7833                           	
  7834  0DA0                     l4894:	
  7835                           ;PR29.c: 1016: {
  7836                           ;PR29.c: 1017: TEMP=get_eeprom(count);
  7837  0DA0  1283               	bcf	status, 5	;RP0=0, select bank0
  7838  0DA1  1303               	bcf	status, 6	;RP1=0, select bank0
  7839  0DA2  0849               	movf	(upload_HT@count),w
  7840  0DA3  160A  158A  24FE   	fcall	_get_eeprom
              120A  158A         
  7841  0DA8  00F7               	movwf	(??_upload_HT+0)+0
  7842  0DA9  0877               	movf	(??_upload_HT+0)+0,w
  7843  0DAA  1283               	bcf	status, 5	;RP0=0, select bank0
  7844  0DAB  1303               	bcf	status, 6	;RP1=0, select bank0
  7845  0DAC  00D6               	movwf	(_TEMP)
  7846                           	line	1018
  7847                           	
  7848  0DAD                     l4896:	
  7849                           ;PR29.c: 1018: uart_write(2,' ');
  7850  0DAD  3020               	movlw	(020h)
  7851  0DAE  00F7               	movwf	(??_upload_HT+0)+0
  7852  0DAF  0877               	movf	(??_upload_HT+0)+0,w
  7853  0DB0  00F0               	movwf	(?_uart_write)
  7854  0DB1  3002               	movlw	(02h)
  7855  0DB2  120A  158A  2021   	fcall	_uart_write
              120A  158A         
  7856                           	line	1019
  7857                           	
  7858  0DB7                     l4898:	
  7859                           ;PR29.c: 1019: if(TEMP==0xff) TEMP=0x30;
  7860  0DB7  1283               	bcf	status, 5	;RP0=0, select bank0
  7861  0DB8  1303               	bcf	status, 6	;RP1=0, select bank0
  7862  0DB9  0856               	movf	(_TEMP),w
  7863  0DBA  3AFF               	xorlw	0FFh
  7864  0DBB  1D03               	skipz
  7865  0DBC  2DBE               	goto	u4661
  7866  0DBD  2DBF               	goto	u4660
  7867  0DBE                     u4661:
  7868  0DBE  2DC4               	goto	l4902
  7869  0DBF                     u4660:
  7870                           	
  7871  0DBF                     l4900:	
  7872  0DBF  3030               	movlw	(030h)
  7873  0DC0  00F7               	movwf	(??_upload_HT+0)+0
  7874  0DC1  0877               	movf	(??_upload_HT+0)+0,w
  7875  0DC2  00D6               	movwf	(_TEMP)
  7876  0DC3  2DC4               	goto	l4902
  7877                           	
  7878  0DC4                     l905:	
  7879                           	line	1020
  7880                           	
  7881  0DC4                     l4902:	
  7882                           ;PR29.c: 1020: uart_write(2,TEMP);
  7883  0DC4  0856               	movf	(_TEMP),w
  7884  0DC5  00F7               	movwf	(??_upload_HT+0)+0
  7885  0DC6  0877               	movf	(??_upload_HT+0)+0,w
  7886  0DC7  00F0               	movwf	(?_uart_write)
  7887  0DC8  3002               	movlw	(02h)
  7888  0DC9  120A  158A  2021   	fcall	_uart_write
              120A  158A         
  7889                           	line	1015
  7890                           	
  7891  0DCE                     l4904:	
  7892  0DCE  3001               	movlw	(01h)
  7893  0DCF  00F7               	movwf	(??_upload_HT+0)+0
  7894  0DD0  0877               	movf	(??_upload_HT+0)+0,w
  7895  0DD1  1283               	bcf	status, 5	;RP0=0, select bank0
  7896  0DD2  1303               	bcf	status, 6	;RP1=0, select bank0
  7897  0DD3  07C9               	addwf	(upload_HT@count),f
  7898  0DD4  2DD5               	goto	l4906
  7899                           	
  7900  0DD5                     l903:	
  7901                           	
  7902  0DD5                     l4906:	
  7903  0DD5  0848               	movf	(upload_HT@address),w
  7904  0DD6  3E04               	addlw	low(04h)
  7905  0DD7  00F7               	movwf	(??_upload_HT+0)+0
  7906  0DD8  3000               	movlw	high(04h)
  7907  0DD9  1803               	skipnc
  7908  0DDA  3001               	movlw	(high(04h)+1)&0ffh
  7909  0DDB  00F8               	movwf	((??_upload_HT+0)+0)+1
  7910  0DDC  0878               	movf	1+(??_upload_HT+0)+0,w
  7911  0DDD  3A80               	xorlw	80h
  7912  0DDE  00F9               	movwf	(??_upload_HT+2)+0
  7913  0DDF  3080               	movlw	80h
  7914  0DE0  0279               	subwf	(??_upload_HT+2)+0,w
  7915  0DE1  1D03               	skipz
  7916  0DE2  2DE5               	goto	u4675
  7917  0DE3  0849               	movf	(upload_HT@count),w
  7918  0DE4  0277               	subwf	0+(??_upload_HT+0)+0,w
  7919  0DE5                     u4675:
  7920                           
  7921  0DE5  1803               	skipnc
  7922  0DE6  2DE8               	goto	u4671
  7923  0DE7  2DE9               	goto	u4670
  7924  0DE8                     u4671:
  7925  0DE8  2DA0               	goto	l4894
  7926  0DE9                     u4670:
  7927  0DE9  2DEA               	goto	l4908
  7928                           	
  7929  0DEA                     l906:	
  7930                           	line	1022
  7931                           	
  7932  0DEA                     l4908:	
  7933                           ;PR29.c: 1021: }
  7934                           ;PR29.c: 1022: allign();
  7935  0DEA  160A  158A  2513   	fcall	_allign
              120A  158A         
  7936                           	line	1024
  7937                           	
  7938  0DEF                     l4910:	
  7939                           ;PR29.c: 1024: address=0x20;
  7940  0DEF  3020               	movlw	(020h)
  7941  0DF0  00F7               	movwf	(??_upload_HT+0)+0
  7942  0DF1  0877               	movf	(??_upload_HT+0)+0,w
  7943  0DF2  1283               	bcf	status, 5	;RP0=0, select bank0
  7944  0DF3  1303               	bcf	status, 6	;RP1=0, select bank0
  7945  0DF4  00C8               	movwf	(upload_HT@address)
  7946                           	line	1025
  7947                           	
  7948  0DF5                     l4912:	
  7949                           ;PR29.c: 1025: count=address;
  7950  0DF5  0848               	movf	(upload_HT@address),w
  7951  0DF6  00F7               	movwf	(??_upload_HT+0)+0
  7952  0DF7  0877               	movf	(??_upload_HT+0)+0,w
  7953  0DF8  00C9               	movwf	(upload_HT@count)
  7954                           	line	1026
  7955  0DF9  2E18               	goto	l4920
  7956                           	line	1027
  7957                           	
  7958  0DFA                     l908:	
  7959                           	line	1028
  7960                           	
  7961  0DFA                     l4914:	
  7962                           ;PR29.c: 1027: {
  7963                           ;PR29.c: 1028: TEMP=get_eeprom(count);
  7964  0DFA  1283               	bcf	status, 5	;RP0=0, select bank0
  7965  0DFB  1303               	bcf	status, 6	;RP1=0, select bank0
  7966  0DFC  0849               	movf	(upload_HT@count),w
  7967  0DFD  160A  158A  24FE   	fcall	_get_eeprom
              120A  158A         
  7968  0E02  00F7               	movwf	(??_upload_HT+0)+0
  7969  0E03  0877               	movf	(??_upload_HT+0)+0,w
  7970  0E04  1283               	bcf	status, 5	;RP0=0, select bank0
  7971  0E05  1303               	bcf	status, 6	;RP1=0, select bank0
  7972  0E06  00D6               	movwf	(_TEMP)
  7973                           	line	1029
  7974                           	
  7975  0E07                     l4916:	
  7976                           ;PR29.c: 1029: uart_write(2,TEMP);
  7977  0E07  0856               	movf	(_TEMP),w
  7978  0E08  00F7               	movwf	(??_upload_HT+0)+0
  7979  0E09  0877               	movf	(??_upload_HT+0)+0,w
  7980  0E0A  00F0               	movwf	(?_uart_write)
  7981  0E0B  3002               	movlw	(02h)
  7982  0E0C  120A  158A  2021   	fcall	_uart_write
              120A  158A         
  7983                           	line	1026
  7984                           	
  7985  0E11                     l4918:	
  7986  0E11  3001               	movlw	(01h)
  7987  0E12  00F7               	movwf	(??_upload_HT+0)+0
  7988  0E13  0877               	movf	(??_upload_HT+0)+0,w
  7989  0E14  1283               	bcf	status, 5	;RP0=0, select bank0
  7990  0E15  1303               	bcf	status, 6	;RP1=0, select bank0
  7991  0E16  07C9               	addwf	(upload_HT@count),f
  7992  0E17  2E18               	goto	l4920
  7993                           	
  7994  0E18                     l907:	
  7995                           	
  7996  0E18                     l4920:	
  7997  0E18  0848               	movf	(upload_HT@address),w
  7998  0E19  3E03               	addlw	low(03h)
  7999  0E1A  00F7               	movwf	(??_upload_HT+0)+0
  8000  0E1B  3000               	movlw	high(03h)
  8001  0E1C  1803               	skipnc
  8002  0E1D  3001               	movlw	(high(03h)+1)&0ffh
  8003  0E1E  00F8               	movwf	((??_upload_HT+0)+0)+1
  8004  0E1F  0878               	movf	1+(??_upload_HT+0)+0,w
  8005  0E20  3A80               	xorlw	80h
  8006  0E21  00F9               	movwf	(??_upload_HT+2)+0
  8007  0E22  3080               	movlw	80h
  8008  0E23  0279               	subwf	(??_upload_HT+2)+0,w
  8009  0E24  1D03               	skipz
  8010  0E25  2E28               	goto	u4685
  8011  0E26  0849               	movf	(upload_HT@count),w
  8012  0E27  0277               	subwf	0+(??_upload_HT+0)+0,w
  8013  0E28                     u4685:
  8014                           
  8015  0E28  1803               	skipnc
  8016  0E29  2E2B               	goto	u4681
  8017  0E2A  2E2C               	goto	u4680
  8018  0E2B                     u4681:
  8019  0E2B  2DFA               	goto	l4914
  8020  0E2C                     u4680:
  8021  0E2C  2E2D               	goto	l4922
  8022                           	
  8023  0E2D                     l909:	
  8024                           	line	1031
  8025                           	
  8026  0E2D                     l4922:	
  8027                           ;PR29.c: 1030: }
  8028                           ;PR29.c: 1031: address=count;
  8029  0E2D  1283               	bcf	status, 5	;RP0=0, select bank0
  8030  0E2E  1303               	bcf	status, 6	;RP1=0, select bank0
  8031  0E2F  0849               	movf	(upload_HT@count),w
  8032  0E30  00F7               	movwf	(??_upload_HT+0)+0
  8033  0E31  0877               	movf	(??_upload_HT+0)+0,w
  8034  0E32  00C8               	movwf	(upload_HT@address)
  8035                           	line	1032
  8036  0E33  2E69               	goto	l4936
  8037                           	line	1033
  8038                           	
  8039  0E34                     l911:	
  8040                           	line	1034
  8041                           	
  8042  0E34                     l4924:	
  8043                           ;PR29.c: 1033: {
  8044                           ;PR29.c: 1034: TEMP=get_eeprom(count);
  8045  0E34  1283               	bcf	status, 5	;RP0=0, select bank0
  8046  0E35  1303               	bcf	status, 6	;RP1=0, select bank0
  8047  0E36  0849               	movf	(upload_HT@count),w
  8048  0E37  160A  158A  24FE   	fcall	_get_eeprom
              120A  158A         
  8049  0E3C  00F7               	movwf	(??_upload_HT+0)+0
  8050  0E3D  0877               	movf	(??_upload_HT+0)+0,w
  8051  0E3E  1283               	bcf	status, 5	;RP0=0, select bank0
  8052  0E3F  1303               	bcf	status, 6	;RP1=0, select bank0
  8053  0E40  00D6               	movwf	(_TEMP)
  8054                           	line	1035
  8055                           	
  8056  0E41                     l4926:	
  8057                           ;PR29.c: 1035: uart_write(2,' ');
  8058  0E41  3020               	movlw	(020h)
  8059  0E42  00F7               	movwf	(??_upload_HT+0)+0
  8060  0E43  0877               	movf	(??_upload_HT+0)+0,w
  8061  0E44  00F0               	movwf	(?_uart_write)
  8062  0E45  3002               	movlw	(02h)
  8063  0E46  120A  158A  2021   	fcall	_uart_write
              120A  158A         
  8064                           	line	1036
  8065                           	
  8066  0E4B                     l4928:	
  8067                           ;PR29.c: 1036: if(TEMP==0xff) TEMP=0x30;
  8068  0E4B  1283               	bcf	status, 5	;RP0=0, select bank0
  8069  0E4C  1303               	bcf	status, 6	;RP1=0, select bank0
  8070  0E4D  0856               	movf	(_TEMP),w
  8071  0E4E  3AFF               	xorlw	0FFh
  8072  0E4F  1D03               	skipz
  8073  0E50  2E52               	goto	u4691
  8074  0E51  2E53               	goto	u4690
  8075  0E52                     u4691:
  8076  0E52  2E58               	goto	l4932
  8077  0E53                     u4690:
  8078                           	
  8079  0E53                     l4930:	
  8080  0E53  3030               	movlw	(030h)
  8081  0E54  00F7               	movwf	(??_upload_HT+0)+0
  8082  0E55  0877               	movf	(??_upload_HT+0)+0,w
  8083  0E56  00D6               	movwf	(_TEMP)
  8084  0E57  2E58               	goto	l4932
  8085                           	
  8086  0E58                     l912:	
  8087                           	line	1037
  8088                           	
  8089  0E58                     l4932:	
  8090                           ;PR29.c: 1037: uart_write(2,TEMP);
  8091  0E58  0856               	movf	(_TEMP),w
  8092  0E59  00F7               	movwf	(??_upload_HT+0)+0
  8093  0E5A  0877               	movf	(??_upload_HT+0)+0,w
  8094  0E5B  00F0               	movwf	(?_uart_write)
  8095  0E5C  3002               	movlw	(02h)
  8096  0E5D  120A  158A  2021   	fcall	_uart_write
              120A  158A         
  8097                           	line	1032
  8098                           	
  8099  0E62                     l4934:	
  8100  0E62  3001               	movlw	(01h)
  8101  0E63  00F7               	movwf	(??_upload_HT+0)+0
  8102  0E64  0877               	movf	(??_upload_HT+0)+0,w
  8103  0E65  1283               	bcf	status, 5	;RP0=0, select bank0
  8104  0E66  1303               	bcf	status, 6	;RP1=0, select bank0
  8105  0E67  07C9               	addwf	(upload_HT@count),f
  8106  0E68  2E69               	goto	l4936
  8107                           	
  8108  0E69                     l910:	
  8109                           	
  8110  0E69                     l4936:	
  8111  0E69  0848               	movf	(upload_HT@address),w
  8112  0E6A  3E04               	addlw	low(04h)
  8113  0E6B  00F7               	movwf	(??_upload_HT+0)+0
  8114  0E6C  3000               	movlw	high(04h)
  8115  0E6D  1803               	skipnc
  8116  0E6E  3001               	movlw	(high(04h)+1)&0ffh
  8117  0E6F  00F8               	movwf	((??_upload_HT+0)+0)+1
  8118  0E70  0878               	movf	1+(??_upload_HT+0)+0,w
  8119  0E71  3A80               	xorlw	80h
  8120  0E72  00F9               	movwf	(??_upload_HT+2)+0
  8121  0E73  3080               	movlw	80h
  8122  0E74  0279               	subwf	(??_upload_HT+2)+0,w
  8123  0E75  1D03               	skipz
  8124  0E76  2E79               	goto	u4705
  8125  0E77  0849               	movf	(upload_HT@count),w
  8126  0E78  0277               	subwf	0+(??_upload_HT+0)+0,w
  8127  0E79                     u4705:
  8128                           
  8129  0E79  1803               	skipnc
  8130  0E7A  2E7C               	goto	u4701
  8131  0E7B  2E7D               	goto	u4700
  8132  0E7C                     u4701:
  8133  0E7C  2E34               	goto	l4924
  8134  0E7D                     u4700:
  8135  0E7D  2E7E               	goto	l4938
  8136                           	
  8137  0E7E                     l913:	
  8138                           	line	1039
  8139                           	
  8140  0E7E                     l4938:	
  8141                           ;PR29.c: 1038: }
  8142                           ;PR29.c: 1039: allign();
  8143  0E7E  160A  158A  2513   	fcall	_allign
              120A  158A         
  8144                           	line	1041
  8145                           	
  8146  0E83                     l4940:	
  8147                           ;PR29.c: 1041: address=0x30;
  8148  0E83  3030               	movlw	(030h)
  8149  0E84  00F7               	movwf	(??_upload_HT+0)+0
  8150  0E85  0877               	movf	(??_upload_HT+0)+0,w
  8151  0E86  1283               	bcf	status, 5	;RP0=0, select bank0
  8152  0E87  1303               	bcf	status, 6	;RP1=0, select bank0
  8153  0E88  00C8               	movwf	(upload_HT@address)
  8154                           	line	1042
  8155                           	
  8156  0E89                     l4942:	
  8157                           ;PR29.c: 1042: count=address;
  8158  0E89  0848               	movf	(upload_HT@address),w
  8159  0E8A  00F7               	movwf	(??_upload_HT+0)+0
  8160  0E8B  0877               	movf	(??_upload_HT+0)+0,w
  8161  0E8C  00C9               	movwf	(upload_HT@count)
  8162                           	line	1043
  8163  0E8D  2EAC               	goto	l4950
  8164                           	line	1044
  8165                           	
  8166  0E8E                     l915:	
  8167                           	line	1045
  8168                           	
  8169  0E8E                     l4944:	
  8170                           ;PR29.c: 1044: {
  8171                           ;PR29.c: 1045: TEMP=get_eeprom(count);
  8172  0E8E  1283               	bcf	status, 5	;RP0=0, select bank0
  8173  0E8F  1303               	bcf	status, 6	;RP1=0, select bank0
  8174  0E90  0849               	movf	(upload_HT@count),w
  8175  0E91  160A  158A  24FE   	fcall	_get_eeprom
              120A  158A         
  8176  0E96  00F7               	movwf	(??_upload_HT+0)+0
  8177  0E97  0877               	movf	(??_upload_HT+0)+0,w
  8178  0E98  1283               	bcf	status, 5	;RP0=0, select bank0
  8179  0E99  1303               	bcf	status, 6	;RP1=0, select bank0
  8180  0E9A  00D6               	movwf	(_TEMP)
  8181                           	line	1046
  8182                           	
  8183  0E9B                     l4946:	
  8184                           ;PR29.c: 1046: uart_write(2,TEMP);
  8185  0E9B  0856               	movf	(_TEMP),w
  8186  0E9C  00F7               	movwf	(??_upload_HT+0)+0
  8187  0E9D  0877               	movf	(??_upload_HT+0)+0,w
  8188  0E9E  00F0               	movwf	(?_uart_write)
  8189  0E9F  3002               	movlw	(02h)
  8190  0EA0  120A  158A  2021   	fcall	_uart_write
              120A  158A         
  8191                           	line	1043
  8192                           	
  8193  0EA5                     l4948:	
  8194  0EA5  3001               	movlw	(01h)
  8195  0EA6  00F7               	movwf	(??_upload_HT+0)+0
  8196  0EA7  0877               	movf	(??_upload_HT+0)+0,w
  8197  0EA8  1283               	bcf	status, 5	;RP0=0, select bank0
  8198  0EA9  1303               	bcf	status, 6	;RP1=0, select bank0
  8199  0EAA  07C9               	addwf	(upload_HT@count),f
  8200  0EAB  2EAC               	goto	l4950
  8201                           	
  8202  0EAC                     l914:	
  8203                           	
  8204  0EAC                     l4950:	
  8205  0EAC  0848               	movf	(upload_HT@address),w
  8206  0EAD  3E03               	addlw	low(03h)
  8207  0EAE  00F7               	movwf	(??_upload_HT+0)+0
  8208  0EAF  3000               	movlw	high(03h)
  8209  0EB0  1803               	skipnc
  8210  0EB1  3001               	movlw	(high(03h)+1)&0ffh
  8211  0EB2  00F8               	movwf	((??_upload_HT+0)+0)+1
  8212  0EB3  0878               	movf	1+(??_upload_HT+0)+0,w
  8213  0EB4  3A80               	xorlw	80h
  8214  0EB5  00F9               	movwf	(??_upload_HT+2)+0
  8215  0EB6  3080               	movlw	80h
  8216  0EB7  0279               	subwf	(??_upload_HT+2)+0,w
  8217  0EB8  1D03               	skipz
  8218  0EB9  2EBC               	goto	u4715
  8219  0EBA  0849               	movf	(upload_HT@count),w
  8220  0EBB  0277               	subwf	0+(??_upload_HT+0)+0,w
  8221  0EBC                     u4715:
  8222                           
  8223  0EBC  1803               	skipnc
  8224  0EBD  2EBF               	goto	u4711
  8225  0EBE  2EC0               	goto	u4710
  8226  0EBF                     u4711:
  8227  0EBF  2E8E               	goto	l4944
  8228  0EC0                     u4710:
  8229  0EC0  2EC1               	goto	l4952
  8230                           	
  8231  0EC1                     l916:	
  8232                           	line	1048
  8233                           	
  8234  0EC1                     l4952:	
  8235                           ;PR29.c: 1047: }
  8236                           ;PR29.c: 1048: address=count;
  8237  0EC1  1283               	bcf	status, 5	;RP0=0, select bank0
  8238  0EC2  1303               	bcf	status, 6	;RP1=0, select bank0
  8239  0EC3  0849               	movf	(upload_HT@count),w
  8240  0EC4  00F7               	movwf	(??_upload_HT+0)+0
  8241  0EC5  0877               	movf	(??_upload_HT+0)+0,w
  8242  0EC6  00C8               	movwf	(upload_HT@address)
  8243                           	line	1049
  8244  0EC7  2EFD               	goto	l4966
  8245                           	line	1050
  8246                           	
  8247  0EC8                     l918:	
  8248                           	line	1051
  8249                           	
  8250  0EC8                     l4954:	
  8251                           ;PR29.c: 1050: {
  8252                           ;PR29.c: 1051: TEMP=get_eeprom(count);
  8253  0EC8  1283               	bcf	status, 5	;RP0=0, select bank0
  8254  0EC9  1303               	bcf	status, 6	;RP1=0, select bank0
  8255  0ECA  0849               	movf	(upload_HT@count),w
  8256  0ECB  160A  158A  24FE   	fcall	_get_eeprom
              120A  158A         
  8257  0ED0  00F7               	movwf	(??_upload_HT+0)+0
  8258  0ED1  0877               	movf	(??_upload_HT+0)+0,w
  8259  0ED2  1283               	bcf	status, 5	;RP0=0, select bank0
  8260  0ED3  1303               	bcf	status, 6	;RP1=0, select bank0
  8261  0ED4  00D6               	movwf	(_TEMP)
  8262                           	line	1052
  8263                           	
  8264  0ED5                     l4956:	
  8265                           ;PR29.c: 1052: uart_write(2,' ');
  8266  0ED5  3020               	movlw	(020h)
  8267  0ED6  00F7               	movwf	(??_upload_HT+0)+0
  8268  0ED7  0877               	movf	(??_upload_HT+0)+0,w
  8269  0ED8  00F0               	movwf	(?_uart_write)
  8270  0ED9  3002               	movlw	(02h)
  8271  0EDA  120A  158A  2021   	fcall	_uart_write
              120A  158A         
  8272                           	line	1053
  8273                           	
  8274  0EDF                     l4958:	
  8275                           ;PR29.c: 1053: if(TEMP==0xff) TEMP=0x30;
  8276  0EDF  1283               	bcf	status, 5	;RP0=0, select bank0
  8277  0EE0  1303               	bcf	status, 6	;RP1=0, select bank0
  8278  0EE1  0856               	movf	(_TEMP),w
  8279  0EE2  3AFF               	xorlw	0FFh
  8280  0EE3  1D03               	skipz
  8281  0EE4  2EE6               	goto	u4721
  8282  0EE5  2EE7               	goto	u4720
  8283  0EE6                     u4721:
  8284  0EE6  2EEC               	goto	l4962
  8285  0EE7                     u4720:
  8286                           	
  8287  0EE7                     l4960:	
  8288  0EE7  3030               	movlw	(030h)
  8289  0EE8  00F7               	movwf	(??_upload_HT+0)+0
  8290  0EE9  0877               	movf	(??_upload_HT+0)+0,w
  8291  0EEA  00D6               	movwf	(_TEMP)
  8292  0EEB  2EEC               	goto	l4962
  8293                           	
  8294  0EEC                     l919:	
  8295                           	line	1054
  8296                           	
  8297  0EEC                     l4962:	
  8298                           ;PR29.c: 1054: uart_write(2,TEMP);
  8299  0EEC  0856               	movf	(_TEMP),w
  8300  0EED  00F7               	movwf	(??_upload_HT+0)+0
  8301  0EEE  0877               	movf	(??_upload_HT+0)+0,w
  8302  0EEF  00F0               	movwf	(?_uart_write)
  8303  0EF0  3002               	movlw	(02h)
  8304  0EF1  120A  158A  2021   	fcall	_uart_write
              120A  158A         
  8305                           	line	1049
  8306                           	
  8307  0EF6                     l4964:	
  8308  0EF6  3001               	movlw	(01h)
  8309  0EF7  00F7               	movwf	(??_upload_HT+0)+0
  8310  0EF8  0877               	movf	(??_upload_HT+0)+0,w
  8311  0EF9  1283               	bcf	status, 5	;RP0=0, select bank0
  8312  0EFA  1303               	bcf	status, 6	;RP1=0, select bank0
  8313  0EFB  07C9               	addwf	(upload_HT@count),f
  8314  0EFC  2EFD               	goto	l4966
  8315                           	
  8316  0EFD                     l917:	
  8317                           	
  8318  0EFD                     l4966:	
  8319  0EFD  0848               	movf	(upload_HT@address),w
  8320  0EFE  3E04               	addlw	low(04h)
  8321  0EFF  00F7               	movwf	(??_upload_HT+0)+0
  8322  0F00  3000               	movlw	high(04h)
  8323  0F01  1803               	skipnc
  8324  0F02  3001               	movlw	(high(04h)+1)&0ffh
  8325  0F03  00F8               	movwf	((??_upload_HT+0)+0)+1
  8326  0F04  0878               	movf	1+(??_upload_HT+0)+0,w
  8327  0F05  3A80               	xorlw	80h
  8328  0F06  00F9               	movwf	(??_upload_HT+2)+0
  8329  0F07  3080               	movlw	80h
  8330  0F08  0279               	subwf	(??_upload_HT+2)+0,w
  8331  0F09  1D03               	skipz
  8332  0F0A  2F0D               	goto	u4735
  8333  0F0B  0849               	movf	(upload_HT@count),w
  8334  0F0C  0277               	subwf	0+(??_upload_HT+0)+0,w
  8335  0F0D                     u4735:
  8336                           
  8337  0F0D  1803               	skipnc
  8338  0F0E  2F10               	goto	u4731
  8339  0F0F  2F11               	goto	u4730
  8340  0F10                     u4731:
  8341  0F10  2EC8               	goto	l4954
  8342  0F11                     u4730:
  8343  0F11  2F12               	goto	l4968
  8344                           	
  8345  0F12                     l920:	
  8346                           	line	1056
  8347                           	
  8348  0F12                     l4968:	
  8349                           ;PR29.c: 1055: }
  8350                           ;PR29.c: 1056: allign();
  8351  0F12  160A  158A  2513   	fcall	_allign
              120A  158A         
  8352                           	line	1058
  8353                           	
  8354  0F17                     l4970:	
  8355                           ;PR29.c: 1058: address=0x40;
  8356  0F17  3040               	movlw	(040h)
  8357  0F18  00F7               	movwf	(??_upload_HT+0)+0
  8358  0F19  0877               	movf	(??_upload_HT+0)+0,w
  8359  0F1A  1283               	bcf	status, 5	;RP0=0, select bank0
  8360  0F1B  1303               	bcf	status, 6	;RP1=0, select bank0
  8361  0F1C  00C8               	movwf	(upload_HT@address)
  8362                           	line	1059
  8363                           	
  8364  0F1D                     l4972:	
  8365                           ;PR29.c: 1059: count=address;
  8366  0F1D  0848               	movf	(upload_HT@address),w
  8367  0F1E  00F7               	movwf	(??_upload_HT+0)+0
  8368  0F1F  0877               	movf	(??_upload_HT+0)+0,w
  8369  0F20  00C9               	movwf	(upload_HT@count)
  8370                           	line	1060
  8371  0F21  2F40               	goto	l4980
  8372                           	line	1061
  8373                           	
  8374  0F22                     l922:	
  8375                           	line	1062
  8376                           	
  8377  0F22                     l4974:	
  8378                           ;PR29.c: 1061: {
  8379                           ;PR29.c: 1062: TEMP=get_eeprom(count);
  8380  0F22  1283               	bcf	status, 5	;RP0=0, select bank0
  8381  0F23  1303               	bcf	status, 6	;RP1=0, select bank0
  8382  0F24  0849               	movf	(upload_HT@count),w
  8383  0F25  160A  158A  24FE   	fcall	_get_eeprom
              120A  158A         
  8384  0F2A  00F7               	movwf	(??_upload_HT+0)+0
  8385  0F2B  0877               	movf	(??_upload_HT+0)+0,w
  8386  0F2C  1283               	bcf	status, 5	;RP0=0, select bank0
  8387  0F2D  1303               	bcf	status, 6	;RP1=0, select bank0
  8388  0F2E  00D6               	movwf	(_TEMP)
  8389                           	line	1063
  8390                           	
  8391  0F2F                     l4976:	
  8392                           ;PR29.c: 1063: uart_write(2,TEMP);
  8393  0F2F  0856               	movf	(_TEMP),w
  8394  0F30  00F7               	movwf	(??_upload_HT+0)+0
  8395  0F31  0877               	movf	(??_upload_HT+0)+0,w
  8396  0F32  00F0               	movwf	(?_uart_write)
  8397  0F33  3002               	movlw	(02h)
  8398  0F34  120A  158A  2021   	fcall	_uart_write
              120A  158A         
  8399                           	line	1060
  8400                           	
  8401  0F39                     l4978:	
  8402  0F39  3001               	movlw	(01h)
  8403  0F3A  00F7               	movwf	(??_upload_HT+0)+0
  8404  0F3B  0877               	movf	(??_upload_HT+0)+0,w
  8405  0F3C  1283               	bcf	status, 5	;RP0=0, select bank0
  8406  0F3D  1303               	bcf	status, 6	;RP1=0, select bank0
  8407  0F3E  07C9               	addwf	(upload_HT@count),f
  8408  0F3F  2F40               	goto	l4980
  8409                           	
  8410  0F40                     l921:	
  8411                           	
  8412  0F40                     l4980:	
  8413  0F40  0848               	movf	(upload_HT@address),w
  8414  0F41  3E03               	addlw	low(03h)
  8415  0F42  00F7               	movwf	(??_upload_HT+0)+0
  8416  0F43  3000               	movlw	high(03h)
  8417  0F44  1803               	skipnc
  8418  0F45  3001               	movlw	(high(03h)+1)&0ffh
  8419  0F46  00F8               	movwf	((??_upload_HT+0)+0)+1
  8420  0F47  0878               	movf	1+(??_upload_HT+0)+0,w
  8421  0F48  3A80               	xorlw	80h
  8422  0F49  00F9               	movwf	(??_upload_HT+2)+0
  8423  0F4A  3080               	movlw	80h
  8424  0F4B  0279               	subwf	(??_upload_HT+2)+0,w
  8425  0F4C  1D03               	skipz
  8426  0F4D  2F50               	goto	u4745
  8427  0F4E  0849               	movf	(upload_HT@count),w
  8428  0F4F  0277               	subwf	0+(??_upload_HT+0)+0,w
  8429  0F50                     u4745:
  8430                           
  8431  0F50  1803               	skipnc
  8432  0F51  2F53               	goto	u4741
  8433  0F52  2F54               	goto	u4740
  8434  0F53                     u4741:
  8435  0F53  2F22               	goto	l4974
  8436  0F54                     u4740:
  8437  0F54  2F55               	goto	l4982
  8438                           	
  8439  0F55                     l923:	
  8440                           	line	1065
  8441                           	
  8442  0F55                     l4982:	
  8443                           ;PR29.c: 1064: }
  8444                           ;PR29.c: 1065: address=count;
  8445  0F55  1283               	bcf	status, 5	;RP0=0, select bank0
  8446  0F56  1303               	bcf	status, 6	;RP1=0, select bank0
  8447  0F57  0849               	movf	(upload_HT@count),w
  8448  0F58  00F7               	movwf	(??_upload_HT+0)+0
  8449  0F59  0877               	movf	(??_upload_HT+0)+0,w
  8450  0F5A  00C8               	movwf	(upload_HT@address)
  8451                           	line	1066
  8452  0F5B  2F91               	goto	l4996
  8453                           	line	1067
  8454                           	
  8455  0F5C                     l925:	
  8456                           	line	1068
  8457                           	
  8458  0F5C                     l4984:	
  8459                           ;PR29.c: 1067: {
  8460                           ;PR29.c: 1068: TEMP=get_eeprom(count);
  8461  0F5C  1283               	bcf	status, 5	;RP0=0, select bank0
  8462  0F5D  1303               	bcf	status, 6	;RP1=0, select bank0
  8463  0F5E  0849               	movf	(upload_HT@count),w
  8464  0F5F  160A  158A  24FE   	fcall	_get_eeprom
              120A  158A         
  8465  0F64  00F7               	movwf	(??_upload_HT+0)+0
  8466  0F65  0877               	movf	(??_upload_HT+0)+0,w
  8467  0F66  1283               	bcf	status, 5	;RP0=0, select bank0
  8468  0F67  1303               	bcf	status, 6	;RP1=0, select bank0
  8469  0F68  00D6               	movwf	(_TEMP)
  8470                           	line	1069
  8471                           	
  8472  0F69                     l4986:	
  8473                           ;PR29.c: 1069: uart_write(2,0xff);
  8474  0F69  30FF               	movlw	(0FFh)
  8475  0F6A  00F7               	movwf	(??_upload_HT+0)+0
  8476  0F6B  0877               	movf	(??_upload_HT+0)+0,w
  8477  0F6C  00F0               	movwf	(?_uart_write)
  8478  0F6D  3002               	movlw	(02h)
  8479  0F6E  120A  158A  2021   	fcall	_uart_write
              120A  158A         
  8480                           	line	1070
  8481                           	
  8482  0F73                     l4988:	
  8483                           ;PR29.c: 1070: if(TEMP==0xff) TEMP=0x30;
  8484  0F73  1283               	bcf	status, 5	;RP0=0, select bank0
  8485  0F74  1303               	bcf	status, 6	;RP1=0, select bank0
  8486  0F75  0856               	movf	(_TEMP),w
  8487  0F76  3AFF               	xorlw	0FFh
  8488  0F77  1D03               	skipz
  8489  0F78  2F7A               	goto	u4751
  8490  0F79  2F7B               	goto	u4750
  8491  0F7A                     u4751:
  8492  0F7A  2F80               	goto	l4992
  8493  0F7B                     u4750:
  8494                           	
  8495  0F7B                     l4990:	
  8496  0F7B  3030               	movlw	(030h)
  8497  0F7C  00F7               	movwf	(??_upload_HT+0)+0
  8498  0F7D  0877               	movf	(??_upload_HT+0)+0,w
  8499  0F7E  00D6               	movwf	(_TEMP)
  8500  0F7F  2F80               	goto	l4992
  8501                           	
  8502  0F80                     l926:	
  8503                           	line	1071
  8504                           	
  8505  0F80                     l4992:	
  8506                           ;PR29.c: 1071: uart_write(2,TEMP);
  8507  0F80  0856               	movf	(_TEMP),w
  8508  0F81  00F7               	movwf	(??_upload_HT+0)+0
  8509  0F82  0877               	movf	(??_upload_HT+0)+0,w
  8510  0F83  00F0               	movwf	(?_uart_write)
  8511  0F84  3002               	movlw	(02h)
  8512  0F85  120A  158A  2021   	fcall	_uart_write
              120A  158A         
  8513                           	line	1066
  8514                           	
  8515  0F8A                     l4994:	
  8516  0F8A  3001               	movlw	(01h)
  8517  0F8B  00F7               	movwf	(??_upload_HT+0)+0
  8518  0F8C  0877               	movf	(??_upload_HT+0)+0,w
  8519  0F8D  1283               	bcf	status, 5	;RP0=0, select bank0
  8520  0F8E  1303               	bcf	status, 6	;RP1=0, select bank0
  8521  0F8F  07C9               	addwf	(upload_HT@count),f
  8522  0F90  2F91               	goto	l4996
  8523                           	
  8524  0F91                     l924:	
  8525                           	
  8526  0F91                     l4996:	
  8527  0F91  0848               	movf	(upload_HT@address),w
  8528  0F92  3E04               	addlw	low(04h)
  8529  0F93  00F7               	movwf	(??_upload_HT+0)+0
  8530  0F94  3000               	movlw	high(04h)
  8531  0F95  1803               	skipnc
  8532  0F96  3001               	movlw	(high(04h)+1)&0ffh
  8533  0F97  00F8               	movwf	((??_upload_HT+0)+0)+1
  8534  0F98  0878               	movf	1+(??_upload_HT+0)+0,w
  8535  0F99  3A80               	xorlw	80h
  8536  0F9A  00F9               	movwf	(??_upload_HT+2)+0
  8537  0F9B  3080               	movlw	80h
  8538  0F9C  0279               	subwf	(??_upload_HT+2)+0,w
  8539  0F9D  1D03               	skipz
  8540  0F9E  2FA1               	goto	u4765
  8541  0F9F  0849               	movf	(upload_HT@count),w
  8542  0FA0  0277               	subwf	0+(??_upload_HT+0)+0,w
  8543  0FA1                     u4765:
  8544                           
  8545  0FA1  1803               	skipnc
  8546  0FA2  2FA4               	goto	u4761
  8547  0FA3  2FA5               	goto	u4760
  8548  0FA4                     u4761:
  8549  0FA4  2F5C               	goto	l4984
  8550  0FA5                     u4760:
  8551  0FA5  2FA6               	goto	l4998
  8552                           	
  8553  0FA6                     l927:	
  8554                           	line	1073
  8555                           	
  8556  0FA6                     l4998:	
  8557                           ;PR29.c: 1072: }
  8558                           ;PR29.c: 1073: allign();
  8559  0FA6  160A  158A  2513   	fcall	_allign
              120A  158A         
  8560                           	line	1074
  8561                           	
  8562  0FAB                     l5000:	
  8563                           ;PR29.c: 1074: for(count=0;count<80;count++)
  8564  0FAB  1003               	clrc
  8565  0FAC  3000               	movlw	0
  8566  0FAD  1803               	btfsc	status,0
  8567  0FAE  3001               	movlw	1
  8568  0FAF  1283               	bcf	status, 5	;RP0=0, select bank0
  8569  0FB0  1303               	bcf	status, 6	;RP1=0, select bank0
  8570  0FB1  00C9               	movwf	(upload_HT@count)
  8571                           	
  8572  0FB2                     l5002:	
  8573  0FB2  3050               	movlw	(050h)
  8574  0FB3  0249               	subwf	(upload_HT@count),w
  8575  0FB4  1C03               	skipc
  8576  0FB5  2FB7               	goto	u4771
  8577  0FB6  2FB8               	goto	u4770
  8578  0FB7                     u4771:
  8579  0FB7  2FBA               	goto	l5006
  8580  0FB8                     u4770:
  8581  0FB8  2FD1               	goto	l5012
  8582                           	
  8583  0FB9                     l5004:	
  8584  0FB9  2FD1               	goto	l5012
  8585                           	line	1075
  8586                           	
  8587  0FBA                     l928:	
  8588                           	
  8589  0FBA                     l5006:	
  8590                           ;PR29.c: 1075: uart_write(2,' ');
  8591  0FBA  3020               	movlw	(020h)
  8592  0FBB  00F7               	movwf	(??_upload_HT+0)+0
  8593  0FBC  0877               	movf	(??_upload_HT+0)+0,w
  8594  0FBD  00F0               	movwf	(?_uart_write)
  8595  0FBE  3002               	movlw	(02h)
  8596  0FBF  120A  158A  2021   	fcall	_uart_write
              120A  158A         
  8597                           	line	1074
  8598                           	
  8599  0FC4                     l5008:	
  8600  0FC4  3001               	movlw	(01h)
  8601  0FC5  00F7               	movwf	(??_upload_HT+0)+0
  8602  0FC6  0877               	movf	(??_upload_HT+0)+0,w
  8603  0FC7  1283               	bcf	status, 5	;RP0=0, select bank0
  8604  0FC8  1303               	bcf	status, 6	;RP1=0, select bank0
  8605  0FC9  07C9               	addwf	(upload_HT@count),f
  8606                           	
  8607  0FCA                     l5010:	
  8608  0FCA  3050               	movlw	(050h)
  8609  0FCB  0249               	subwf	(upload_HT@count),w
  8610  0FCC  1C03               	skipc
  8611  0FCD  2FCF               	goto	u4781
  8612  0FCE  2FD0               	goto	u4780
  8613  0FCF                     u4781:
  8614  0FCF  2FBA               	goto	l5006
  8615  0FD0                     u4780:
  8616  0FD0  2FD1               	goto	l5012
  8617                           	
  8618  0FD1                     l929:	
  8619                           	line	1076
  8620                           	
  8621  0FD1                     l5012:	
  8622                           ;PR29.c: 1076: for(count=0;count<40;count++)
  8623  0FD1  1003               	clrc
  8624  0FD2  3000               	movlw	0
  8625  0FD3  1803               	btfsc	status,0
  8626  0FD4  3001               	movlw	1
  8627  0FD5  00C9               	movwf	(upload_HT@count)
  8628                           	
  8629  0FD6                     l5014:	
  8630  0FD6  3028               	movlw	(028h)
  8631  0FD7  0249               	subwf	(upload_HT@count),w
  8632  0FD8  1C03               	skipc
  8633  0FD9  2FDB               	goto	u4791
  8634  0FDA  2FDC               	goto	u4790
  8635  0FDB                     u4791:
  8636  0FDB  2FDE               	goto	l5018
  8637  0FDC                     u4790:
  8638  0FDC  2FFF               	goto	l932
  8639                           	
  8640  0FDD                     l5016:	
  8641  0FDD  2FFF               	goto	l932
  8642                           	line	1077
  8643                           	
  8644  0FDE                     l930:	
  8645                           	
  8646  0FDE                     l5018:	
  8647                           ;PR29.c: 1077: { uart_write(2,'+');
  8648  0FDE  302B               	movlw	(02Bh)
  8649  0FDF  00F7               	movwf	(??_upload_HT+0)+0
  8650  0FE0  0877               	movf	(??_upload_HT+0)+0,w
  8651  0FE1  00F0               	movwf	(?_uart_write)
  8652  0FE2  3002               	movlw	(02h)
  8653  0FE3  120A  158A  2021   	fcall	_uart_write
              120A  158A         
  8654                           	line	1078
  8655                           ;PR29.c: 1078: uart_write(2,'-');
  8656  0FE8  302D               	movlw	(02Dh)
  8657  0FE9  00F7               	movwf	(??_upload_HT+0)+0
  8658  0FEA  0877               	movf	(??_upload_HT+0)+0,w
  8659  0FEB  00F0               	movwf	(?_uart_write)
  8660  0FEC  3002               	movlw	(02h)
  8661  0FED  120A  158A  2021   	fcall	_uart_write
              120A  158A         
  8662                           	line	1076
  8663                           	
  8664  0FF2                     l5020:	
  8665  0FF2  3001               	movlw	(01h)
  8666  0FF3  00F7               	movwf	(??_upload_HT+0)+0
  8667  0FF4  0877               	movf	(??_upload_HT+0)+0,w
  8668  0FF5  1283               	bcf	status, 5	;RP0=0, select bank0
  8669  0FF6  1303               	bcf	status, 6	;RP1=0, select bank0
  8670  0FF7  07C9               	addwf	(upload_HT@count),f
  8671                           	
  8672  0FF8                     l5022:	
  8673  0FF8  3028               	movlw	(028h)
  8674  0FF9  0249               	subwf	(upload_HT@count),w
  8675  0FFA  1C03               	skipc
  8676  0FFB  2FFD               	goto	u4801
  8677  0FFC  2FFE               	goto	u4800
  8678  0FFD                     u4801:
  8679  0FFD  2FDE               	goto	l5018
  8680  0FFE                     u4800:
  8681  0FFE  2FFF               	goto	l932
  8682                           	
  8683  0FFF                     l931:	
  8684                           	line	1081
  8685                           	
  8686  0FFF                     l932:	
  8687  0FFF  0008               	return
  8688                           	opt stack 0
  8689                           GLOBAL	__end_of_upload_HT
  8690  1000                     	__end_of_upload_HT:
  8691 ;; =============== function _upload_HT ends ============
  8692                           
  8693                           	signat	_upload_HT,88
  8694                           	global	_view_attendance
  8695                           psect	text568,local,class=CODE,delta=2
  8696                           global __ptext568
  8697  11F7                     __ptext568:
  8698                           
  8699 ;; *************** function _view_attendance *****************
  8700 ;; Defined at:
  8701 ;;		line 812 in file "C:\Users\Phang\Desktop\9.80\PR 29\PR29.c"
  8702 ;; Parameters:    Size  Location     Type
  8703 ;;		None
  8704 ;; Auto vars:     Size  Location     Type
  8705 ;;  x               1   13[COMMON] unsigned char 
  8706 ;; Return value:  Size  Location     Type
  8707 ;;		None               void
  8708 ;; Registers used:
  8709 ;;		wreg, fsr0l, fsr0h, status,2, status,0, btemp+1, pclath, cstack
  8710 ;; Tracked objects:
  8711 ;;		On entry : 0/0
  8712 ;;		On exit  : 0/0
  8713 ;;		Unchanged: 0/0
  8714 ;; Data sizes:     COMMON   BANK0   BANK1   BANK3   BANK2
  8715 ;;      Params:         0       0       0       0       0
  8716 ;;      Locals:         1       0       0       0       0
  8717 ;;      Temps:          1       0       0       0       0
  8718 ;;      Totals:         2       0       0       0       0
  8719 ;;Total ram usage:        2 bytes
  8720 ;; Hardware stack levels used:    1
  8721 ;; Hardware stack levels required when called:    3
  8722 ;; This function calls:
  8723 ;;		_lcd_clr
  8724 ;;		_lcd_goto
  8725 ;;		_send_string
  8726 ;;		_get_eeprom
  8727 ;;		_send_char
  8728 ;;		_delay
  8729 ;; This function is called by:
  8730 ;;		_mode
  8731 ;; This function uses a non-reentrant model
  8732 ;;
  8733                           psect	text568
  8734                           	file	"C:\Users\Phang\Desktop\9.80\PR 29\PR29.c"
  8735                           	line	812
  8736                           	global	__size_of_view_attendance
  8737  0223                     	__size_of_view_attendance	equ	__end_of_view_attendance-_view_attendance
  8738                           	
  8739  11F7                     _view_attendance:	
  8740                           	opt	stack 3
  8741                           ; Regs used in _view_attendance: [wreg-fsr0h+status,2+status,0+btemp+1+pclath+cstack]
  8742                           	line	813
  8743                           	
  8744  11F7                     l4670:	
  8745                           ;PR29.c: 813: lcd_clr();
  8746  11F7  160A  158A  24EA   	fcall	_lcd_clr
              160A  118A         
  8747                           	line	814
  8748                           ;PR29.c: 814: lcd_goto(0);
  8749  11FC  3000               	movlw	(0)
  8750  11FD  120A  158A  2004   	fcall	_lcd_goto
              160A  118A         
  8751                           	line	815
  8752                           	
  8753  1202                     l4672:	
  8754                           ;PR29.c: 815: send_string("User 1 2 3 4 5 ");
  8755  1202  3000               	movlw	low(STR_65|8000h)
  8756  1203  00F9               	movwf	(?_send_string)
  8757  1204  309A               	movlw	high(STR_65|8000h)
  8758  1205  00FA               	movwf	((?_send_string))+1
  8759  1206  160A  158A  25FD   	fcall	_send_string
              160A  118A         
  8760                           	line	816
  8761                           	
  8762  120B                     l4674:	
  8763                           ;PR29.c: 816: lcd_goto(20);
  8764  120B  3014               	movlw	(014h)
  8765  120C  120A  158A  2004   	fcall	_lcd_goto
              160A  118A         
  8766                           	line	818
  8767                           	
  8768  1211                     l4676:	
  8769                           ;PR29.c: 817: unsigned char x;
  8770                           ;PR29.c: 818: for(x=0; x<4; x++)
  8771  1211  1003               	clrc
  8772  1212  3000               	movlw	0
  8773  1213  1803               	btfsc	status,0
  8774  1214  3001               	movlw	1
  8775  1215  00FD               	movwf	(view_attendance@x)
  8776                           	
  8777  1216                     l4678:	
  8778  1216  3004               	movlw	(04h)
  8779  1217  027D               	subwf	(view_attendance@x),w
  8780  1218  1C03               	skipc
  8781  1219  2A1B               	goto	u4331
  8782  121A  2A1C               	goto	u4330
  8783  121B                     u4331:
  8784  121B  2A1E               	goto	l4682
  8785  121C                     u4330:
  8786  121C  2A3A               	goto	l4688
  8787                           	
  8788  121D                     l4680:	
  8789  121D  2A3A               	goto	l4688
  8790                           	line	819
  8791                           	
  8792  121E                     l854:	
  8793                           	
  8794  121E                     l4682:	
  8795                           ;PR29.c: 819: { TEMP=get_eeprom(x);
  8796  121E  087D               	movf	(view_attendance@x),w
  8797  121F  160A  158A  24FE   	fcall	_get_eeprom
              160A  118A         
  8798  1224  00FC               	movwf	(??_view_attendance+0)+0
  8799  1225  087C               	movf	(??_view_attendance+0)+0,w
  8800  1226  1283               	bcf	status, 5	;RP0=0, select bank0
  8801  1227  1303               	bcf	status, 6	;RP1=0, select bank0
  8802  1228  00D6               	movwf	(_TEMP)
  8803                           	line	820
  8804                           ;PR29.c: 820: send_char(TEMP);
  8805  1229  0856               	movf	(_TEMP),w
  8806  122A  160A  158A  2580   	fcall	_send_char
              160A  118A         
  8807                           	line	818
  8808                           	
  8809  122F                     l4684:	
  8810  122F  3001               	movlw	(01h)
  8811  1230  00FC               	movwf	(??_view_attendance+0)+0
  8812  1231  087C               	movf	(??_view_attendance+0)+0,w
  8813  1232  07FD               	addwf	(view_attendance@x),f
  8814                           	
  8815  1233                     l4686:	
  8816  1233  3004               	movlw	(04h)
  8817  1234  027D               	subwf	(view_attendance@x),w
  8818  1235  1C03               	skipc
  8819  1236  2A38               	goto	u4341
  8820  1237  2A39               	goto	u4340
  8821  1238                     u4341:
  8822  1238  2A1E               	goto	l4682
  8823  1239                     u4340:
  8824  1239  2A3A               	goto	l4688
  8825                           	
  8826  123A                     l855:	
  8827                           	line	822
  8828                           	
  8829  123A                     l4688:	
  8830                           ;PR29.c: 821: }
  8831                           ;PR29.c: 822: for(x=4; x<9; x++)
  8832  123A  3004               	movlw	(04h)
  8833  123B  00FC               	movwf	(??_view_attendance+0)+0
  8834  123C  087C               	movf	(??_view_attendance+0)+0,w
  8835  123D  00FD               	movwf	(view_attendance@x)
  8836  123E  3009               	movlw	(09h)
  8837  123F  027D               	subwf	(view_attendance@x),w
  8838  1240  1C03               	skipc
  8839  1241  2A43               	goto	u4351
  8840  1242  2A44               	goto	u4350
  8841  1243                     u4351:
  8842  1243  2A46               	goto	l4692
  8843  1244                     u4350:
  8844  1244  2A68               	goto	l4698
  8845                           	
  8846  1245                     l4690:	
  8847  1245  2A68               	goto	l4698
  8848                           	line	823
  8849                           	
  8850  1246                     l856:	
  8851                           	
  8852  1246                     l4692:	
  8853                           ;PR29.c: 823: { send_char(0x20);
  8854  1246  3020               	movlw	(020h)
  8855  1247  160A  158A  2580   	fcall	_send_char
              160A  118A         
  8856                           	line	824
  8857                           ;PR29.c: 824: TEMP=get_eeprom(x);
  8858  124C  087D               	movf	(view_attendance@x),w
  8859  124D  160A  158A  24FE   	fcall	_get_eeprom
              160A  118A         
  8860  1252  00FC               	movwf	(??_view_attendance+0)+0
  8861  1253  087C               	movf	(??_view_attendance+0)+0,w
  8862  1254  1283               	bcf	status, 5	;RP0=0, select bank0
  8863  1255  1303               	bcf	status, 6	;RP1=0, select bank0
  8864  1256  00D6               	movwf	(_TEMP)
  8865                           	line	825
  8866                           ;PR29.c: 825: send_char(TEMP);
  8867  1257  0856               	movf	(_TEMP),w
  8868  1258  160A  158A  2580   	fcall	_send_char
              160A  118A         
  8869                           	line	822
  8870                           	
  8871  125D                     l4694:	
  8872  125D  3001               	movlw	(01h)
  8873  125E  00FC               	movwf	(??_view_attendance+0)+0
  8874  125F  087C               	movf	(??_view_attendance+0)+0,w
  8875  1260  07FD               	addwf	(view_attendance@x),f
  8876                           	
  8877  1261                     l4696:	
  8878  1261  3009               	movlw	(09h)
  8879  1262  027D               	subwf	(view_attendance@x),w
  8880  1263  1C03               	skipc
  8881  1264  2A66               	goto	u4361
  8882  1265  2A67               	goto	u4360
  8883  1266                     u4361:
  8884  1266  2A46               	goto	l4692
  8885  1267                     u4360:
  8886  1267  2A68               	goto	l4698
  8887                           	
  8888  1268                     l857:	
  8889                           	line	827
  8890                           	
  8891  1268                     l4698:	
  8892                           ;PR29.c: 826: }
  8893                           ;PR29.c: 827: delay(300000);
  8894  1268  3000               	movlw	0
  8895  1269  00F3               	movwf	(?_delay+3)
  8896  126A  3004               	movlw	04h
  8897  126B  00F2               	movwf	(?_delay+2)
  8898  126C  3093               	movlw	093h
  8899  126D  00F1               	movwf	(?_delay+1)
  8900  126E  30E0               	movlw	0E0h
  8901  126F  00F0               	movwf	(?_delay)
  8902                           
  8903  1270  160A  158A  25CD   	fcall	_delay
              160A  118A         
  8904                           	line	828
  8905                           ;PR29.c: 828: lcd_goto(20);
  8906  1275  3014               	movlw	(014h)
  8907  1276  120A  158A  2004   	fcall	_lcd_goto
              160A  118A         
  8908                           	line	829
  8909                           	
  8910  127B                     l4700:	
  8911                           ;PR29.c: 829: for(x=16; x<20; x++)
  8912  127B  3010               	movlw	(010h)
  8913  127C  00FC               	movwf	(??_view_attendance+0)+0
  8914  127D  087C               	movf	(??_view_attendance+0)+0,w
  8915  127E  00FD               	movwf	(view_attendance@x)
  8916                           	
  8917  127F                     l4702:	
  8918  127F  3014               	movlw	(014h)
  8919  1280  027D               	subwf	(view_attendance@x),w
  8920  1281  1C03               	skipc
  8921  1282  2A84               	goto	u4371
  8922  1283  2A85               	goto	u4370
  8923  1284                     u4371:
  8924  1284  2A87               	goto	l4706
  8925  1285                     u4370:
  8926  1285  2AA3               	goto	l4712
  8927                           	
  8928  1286                     l4704:	
  8929  1286  2AA3               	goto	l4712
  8930                           	line	830
  8931                           	
  8932  1287                     l858:	
  8933                           	
  8934  1287                     l4706:	
  8935                           ;PR29.c: 830: { TEMP=get_eeprom(x);
  8936  1287  087D               	movf	(view_attendance@x),w
  8937  1288  160A  158A  24FE   	fcall	_get_eeprom
              160A  118A         
  8938  128D  00FC               	movwf	(??_view_attendance+0)+0
  8939  128E  087C               	movf	(??_view_attendance+0)+0,w
  8940  128F  1283               	bcf	status, 5	;RP0=0, select bank0
  8941  1290  1303               	bcf	status, 6	;RP1=0, select bank0
  8942  1291  00D6               	movwf	(_TEMP)
  8943                           	line	831
  8944                           ;PR29.c: 831: send_char(TEMP);
  8945  1292  0856               	movf	(_TEMP),w
  8946  1293  160A  158A  2580   	fcall	_send_char
              160A  118A         
  8947                           	line	829
  8948                           	
  8949  1298                     l4708:	
  8950  1298  3001               	movlw	(01h)
  8951  1299  00FC               	movwf	(??_view_attendance+0)+0
  8952  129A  087C               	movf	(??_view_attendance+0)+0,w
  8953  129B  07FD               	addwf	(view_attendance@x),f
  8954                           	
  8955  129C                     l4710:	
  8956  129C  3014               	movlw	(014h)
  8957  129D  027D               	subwf	(view_attendance@x),w
  8958  129E  1C03               	skipc
  8959  129F  2AA1               	goto	u4381
  8960  12A0  2AA2               	goto	u4380
  8961  12A1                     u4381:
  8962  12A1  2A87               	goto	l4706
  8963  12A2                     u4380:
  8964  12A2  2AA3               	goto	l4712
  8965                           	
  8966  12A3                     l859:	
  8967                           	line	833
  8968                           	
  8969  12A3                     l4712:	
  8970                           ;PR29.c: 832: }
  8971                           ;PR29.c: 833: for(x=20; x<25; x++)
  8972  12A3  3014               	movlw	(014h)
  8973  12A4  00FC               	movwf	(??_view_attendance+0)+0
  8974  12A5  087C               	movf	(??_view_attendance+0)+0,w
  8975  12A6  00FD               	movwf	(view_attendance@x)
  8976  12A7  3019               	movlw	(019h)
  8977  12A8  027D               	subwf	(view_attendance@x),w
  8978  12A9  1C03               	skipc
  8979  12AA  2AAC               	goto	u4391
  8980  12AB  2AAD               	goto	u4390
  8981  12AC                     u4391:
  8982  12AC  2AAF               	goto	l4716
  8983  12AD                     u4390:
  8984  12AD  2AD1               	goto	l4722
  8985                           	
  8986  12AE                     l4714:	
  8987  12AE  2AD1               	goto	l4722
  8988                           	line	834
  8989                           	
  8990  12AF                     l860:	
  8991                           	
  8992  12AF                     l4716:	
  8993                           ;PR29.c: 834: { send_char(0x20);
  8994  12AF  3020               	movlw	(020h)
  8995  12B0  160A  158A  2580   	fcall	_send_char
              160A  118A         
  8996                           	line	835
  8997                           ;PR29.c: 835: TEMP=get_eeprom(x);
  8998  12B5  087D               	movf	(view_attendance@x),w
  8999  12B6  160A  158A  24FE   	fcall	_get_eeprom
              160A  118A         
  9000  12BB  00FC               	movwf	(??_view_attendance+0)+0
  9001  12BC  087C               	movf	(??_view_attendance+0)+0,w
  9002  12BD  1283               	bcf	status, 5	;RP0=0, select bank0
  9003  12BE  1303               	bcf	status, 6	;RP1=0, select bank0
  9004  12BF  00D6               	movwf	(_TEMP)
  9005                           	line	836
  9006                           ;PR29.c: 836: send_char(TEMP);
  9007  12C0  0856               	movf	(_TEMP),w
  9008  12C1  160A  158A  2580   	fcall	_send_char
              160A  118A         
  9009                           	line	833
  9010                           	
  9011  12C6                     l4718:	
  9012  12C6  3001               	movlw	(01h)
  9013  12C7  00FC               	movwf	(??_view_attendance+0)+0
  9014  12C8  087C               	movf	(??_view_attendance+0)+0,w
  9015  12C9  07FD               	addwf	(view_attendance@x),f
  9016                           	
  9017  12CA                     l4720:	
  9018  12CA  3019               	movlw	(019h)
  9019  12CB  027D               	subwf	(view_attendance@x),w
  9020  12CC  1C03               	skipc
  9021  12CD  2ACF               	goto	u4401
  9022  12CE  2AD0               	goto	u4400
  9023  12CF                     u4401:
  9024  12CF  2AAF               	goto	l4716
  9025  12D0                     u4400:
  9026  12D0  2AD1               	goto	l4722
  9027                           	
  9028  12D1                     l861:	
  9029                           	line	838
  9030                           	
  9031  12D1                     l4722:	
  9032                           ;PR29.c: 837: }
  9033                           ;PR29.c: 838: delay(300000);
  9034  12D1  3000               	movlw	0
  9035  12D2  00F3               	movwf	(?_delay+3)
  9036  12D3  3004               	movlw	04h
  9037  12D4  00F2               	movwf	(?_delay+2)
  9038  12D5  3093               	movlw	093h
  9039  12D6  00F1               	movwf	(?_delay+1)
  9040  12D7  30E0               	movlw	0E0h
  9041  12D8  00F0               	movwf	(?_delay)
  9042                           
  9043  12D9  160A  158A  25CD   	fcall	_delay
              160A  118A         
  9044                           	line	839
  9045                           ;PR29.c: 839: lcd_goto(20);
  9046  12DE  3014               	movlw	(014h)
  9047  12DF  120A  158A  2004   	fcall	_lcd_goto
              160A  118A         
  9048                           	line	840
  9049                           	
  9050  12E4                     l4724:	
  9051                           ;PR29.c: 840: for(x=32; x<36; x++)
  9052  12E4  3020               	movlw	(020h)
  9053  12E5  00FC               	movwf	(??_view_attendance+0)+0
  9054  12E6  087C               	movf	(??_view_attendance+0)+0,w
  9055  12E7  00FD               	movwf	(view_attendance@x)
  9056                           	
  9057  12E8                     l4726:	
  9058  12E8  3024               	movlw	(024h)
  9059  12E9  027D               	subwf	(view_attendance@x),w
  9060  12EA  1C03               	skipc
  9061  12EB  2AED               	goto	u4411
  9062  12EC  2AEE               	goto	u4410
  9063  12ED                     u4411:
  9064  12ED  2AF0               	goto	l4730
  9065  12EE                     u4410:
  9066  12EE  2B0C               	goto	l4736
  9067                           	
  9068  12EF                     l4728:	
  9069  12EF  2B0C               	goto	l4736
  9070                           	line	841
  9071                           	
  9072  12F0                     l862:	
  9073                           	
  9074  12F0                     l4730:	
  9075                           ;PR29.c: 841: { TEMP=get_eeprom(x);
  9076  12F0  087D               	movf	(view_attendance@x),w
  9077  12F1  160A  158A  24FE   	fcall	_get_eeprom
              160A  118A         
  9078  12F6  00FC               	movwf	(??_view_attendance+0)+0
  9079  12F7  087C               	movf	(??_view_attendance+0)+0,w
  9080  12F8  1283               	bcf	status, 5	;RP0=0, select bank0
  9081  12F9  1303               	bcf	status, 6	;RP1=0, select bank0
  9082  12FA  00D6               	movwf	(_TEMP)
  9083                           	line	842
  9084                           ;PR29.c: 842: send_char(TEMP);
  9085  12FB  0856               	movf	(_TEMP),w
  9086  12FC  160A  158A  2580   	fcall	_send_char
              160A  118A         
  9087                           	line	840
  9088                           	
  9089  1301                     l4732:	
  9090  1301  3001               	movlw	(01h)
  9091  1302  00FC               	movwf	(??_view_attendance+0)+0
  9092  1303  087C               	movf	(??_view_attendance+0)+0,w
  9093  1304  07FD               	addwf	(view_attendance@x),f
  9094                           	
  9095  1305                     l4734:	
  9096  1305  3024               	movlw	(024h)
  9097  1306  027D               	subwf	(view_attendance@x),w
  9098  1307  1C03               	skipc
  9099  1308  2B0A               	goto	u4421
  9100  1309  2B0B               	goto	u4420
  9101  130A                     u4421:
  9102  130A  2AF0               	goto	l4730
  9103  130B                     u4420:
  9104  130B  2B0C               	goto	l4736
  9105                           	
  9106  130C                     l863:	
  9107                           	line	844
  9108                           	
  9109  130C                     l4736:	
  9110                           ;PR29.c: 843: }
  9111                           ;PR29.c: 844: for(x=36; x<41; x++)
  9112  130C  3024               	movlw	(024h)
  9113  130D  00FC               	movwf	(??_view_attendance+0)+0
  9114  130E  087C               	movf	(??_view_attendance+0)+0,w
  9115  130F  00FD               	movwf	(view_attendance@x)
  9116  1310  3029               	movlw	(029h)
  9117  1311  027D               	subwf	(view_attendance@x),w
  9118  1312  1C03               	skipc
  9119  1313  2B15               	goto	u4431
  9120  1314  2B16               	goto	u4430
  9121  1315                     u4431:
  9122  1315  2B18               	goto	l4740
  9123  1316                     u4430:
  9124  1316  2B3A               	goto	l4746
  9125                           	
  9126  1317                     l4738:	
  9127  1317  2B3A               	goto	l4746
  9128                           	line	845
  9129                           	
  9130  1318                     l864:	
  9131                           	
  9132  1318                     l4740:	
  9133                           ;PR29.c: 845: { send_char(0x20);
  9134  1318  3020               	movlw	(020h)
  9135  1319  160A  158A  2580   	fcall	_send_char
              160A  118A         
  9136                           	line	846
  9137                           ;PR29.c: 846: TEMP=get_eeprom(x);
  9138  131E  087D               	movf	(view_attendance@x),w
  9139  131F  160A  158A  24FE   	fcall	_get_eeprom
              160A  118A         
  9140  1324  00FC               	movwf	(??_view_attendance+0)+0
  9141  1325  087C               	movf	(??_view_attendance+0)+0,w
  9142  1326  1283               	bcf	status, 5	;RP0=0, select bank0
  9143  1327  1303               	bcf	status, 6	;RP1=0, select bank0
  9144  1328  00D6               	movwf	(_TEMP)
  9145                           	line	847
  9146                           ;PR29.c: 847: send_char(TEMP);
  9147  1329  0856               	movf	(_TEMP),w
  9148  132A  160A  158A  2580   	fcall	_send_char
              160A  118A         
  9149                           	line	844
  9150                           	
  9151  132F                     l4742:	
  9152  132F  3001               	movlw	(01h)
  9153  1330  00FC               	movwf	(??_view_attendance+0)+0
  9154  1331  087C               	movf	(??_view_attendance+0)+0,w
  9155  1332  07FD               	addwf	(view_attendance@x),f
  9156                           	
  9157  1333                     l4744:	
  9158  1333  3029               	movlw	(029h)
  9159  1334  027D               	subwf	(view_attendance@x),w
  9160  1335  1C03               	skipc
  9161  1336  2B38               	goto	u4441
  9162  1337  2B39               	goto	u4440
  9163  1338                     u4441:
  9164  1338  2B18               	goto	l4740
  9165  1339                     u4440:
  9166  1339  2B3A               	goto	l4746
  9167                           	
  9168  133A                     l865:	
  9169                           	line	849
  9170                           	
  9171  133A                     l4746:	
  9172                           ;PR29.c: 848: }
  9173                           ;PR29.c: 849: delay(300000);
  9174  133A  3000               	movlw	0
  9175  133B  00F3               	movwf	(?_delay+3)
  9176  133C  3004               	movlw	04h
  9177  133D  00F2               	movwf	(?_delay+2)
  9178  133E  3093               	movlw	093h
  9179  133F  00F1               	movwf	(?_delay+1)
  9180  1340  30E0               	movlw	0E0h
  9181  1341  00F0               	movwf	(?_delay)
  9182                           
  9183  1342  160A  158A  25CD   	fcall	_delay
              160A  118A         
  9184                           	line	850
  9185                           ;PR29.c: 850: lcd_goto(20);
  9186  1347  3014               	movlw	(014h)
  9187  1348  120A  158A  2004   	fcall	_lcd_goto
              160A  118A         
  9188                           	line	851
  9189                           	
  9190  134D                     l4748:	
  9191                           ;PR29.c: 851: for(x=48; x<52; x++)
  9192  134D  3030               	movlw	(030h)
  9193  134E  00FC               	movwf	(??_view_attendance+0)+0
  9194  134F  087C               	movf	(??_view_attendance+0)+0,w
  9195  1350  00FD               	movwf	(view_attendance@x)
  9196                           	
  9197  1351                     l4750:	
  9198  1351  3034               	movlw	(034h)
  9199  1352  027D               	subwf	(view_attendance@x),w
  9200  1353  1C03               	skipc
  9201  1354  2B56               	goto	u4451
  9202  1355  2B57               	goto	u4450
  9203  1356                     u4451:
  9204  1356  2B59               	goto	l4754
  9205  1357                     u4450:
  9206  1357  2B75               	goto	l4760
  9207                           	
  9208  1358                     l4752:	
  9209  1358  2B75               	goto	l4760
  9210                           	line	852
  9211                           	
  9212  1359                     l866:	
  9213                           	
  9214  1359                     l4754:	
  9215                           ;PR29.c: 852: { TEMP=get_eeprom(x);
  9216  1359  087D               	movf	(view_attendance@x),w
  9217  135A  160A  158A  24FE   	fcall	_get_eeprom
              160A  118A         
  9218  135F  00FC               	movwf	(??_view_attendance+0)+0
  9219  1360  087C               	movf	(??_view_attendance+0)+0,w
  9220  1361  1283               	bcf	status, 5	;RP0=0, select bank0
  9221  1362  1303               	bcf	status, 6	;RP1=0, select bank0
  9222  1363  00D6               	movwf	(_TEMP)
  9223                           	line	853
  9224                           ;PR29.c: 853: send_char(TEMP);
  9225  1364  0856               	movf	(_TEMP),w
  9226  1365  160A  158A  2580   	fcall	_send_char
              160A  118A         
  9227                           	line	851
  9228                           	
  9229  136A                     l4756:	
  9230  136A  3001               	movlw	(01h)
  9231  136B  00FC               	movwf	(??_view_attendance+0)+0
  9232  136C  087C               	movf	(??_view_attendance+0)+0,w
  9233  136D  07FD               	addwf	(view_attendance@x),f
  9234                           	
  9235  136E                     l4758:	
  9236  136E  3034               	movlw	(034h)
  9237  136F  027D               	subwf	(view_attendance@x),w
  9238  1370  1C03               	skipc
  9239  1371  2B73               	goto	u4461
  9240  1372  2B74               	goto	u4460
  9241  1373                     u4461:
  9242  1373  2B59               	goto	l4754
  9243  1374                     u4460:
  9244  1374  2B75               	goto	l4760
  9245                           	
  9246  1375                     l867:	
  9247                           	line	855
  9248                           	
  9249  1375                     l4760:	
  9250                           ;PR29.c: 854: }
  9251                           ;PR29.c: 855: for(x=52; x<57; x++)
  9252  1375  3034               	movlw	(034h)
  9253  1376  00FC               	movwf	(??_view_attendance+0)+0
  9254  1377  087C               	movf	(??_view_attendance+0)+0,w
  9255  1378  00FD               	movwf	(view_attendance@x)
  9256  1379  3039               	movlw	(039h)
  9257  137A  027D               	subwf	(view_attendance@x),w
  9258  137B  1C03               	skipc
  9259  137C  2B7E               	goto	u4471
  9260  137D  2B7F               	goto	u4470
  9261  137E                     u4471:
  9262  137E  2B81               	goto	l4764
  9263  137F                     u4470:
  9264  137F  2BA3               	goto	l4770
  9265                           	
  9266  1380                     l4762:	
  9267  1380  2BA3               	goto	l4770
  9268                           	line	856
  9269                           	
  9270  1381                     l868:	
  9271                           	
  9272  1381                     l4764:	
  9273                           ;PR29.c: 856: { send_char(0x20);
  9274  1381  3020               	movlw	(020h)
  9275  1382  160A  158A  2580   	fcall	_send_char
              160A  118A         
  9276                           	line	857
  9277                           ;PR29.c: 857: TEMP=get_eeprom(x);
  9278  1387  087D               	movf	(view_attendance@x),w
  9279  1388  160A  158A  24FE   	fcall	_get_eeprom
              160A  118A         
  9280  138D  00FC               	movwf	(??_view_attendance+0)+0
  9281  138E  087C               	movf	(??_view_attendance+0)+0,w
  9282  138F  1283               	bcf	status, 5	;RP0=0, select bank0
  9283  1390  1303               	bcf	status, 6	;RP1=0, select bank0
  9284  1391  00D6               	movwf	(_TEMP)
  9285                           	line	858
  9286                           ;PR29.c: 858: send_char(TEMP);
  9287  1392  0856               	movf	(_TEMP),w
  9288  1393  160A  158A  2580   	fcall	_send_char
              160A  118A         
  9289                           	line	855
  9290                           	
  9291  1398                     l4766:	
  9292  1398  3001               	movlw	(01h)
  9293  1399  00FC               	movwf	(??_view_attendance+0)+0
  9294  139A  087C               	movf	(??_view_attendance+0)+0,w
  9295  139B  07FD               	addwf	(view_attendance@x),f
  9296                           	
  9297  139C                     l4768:	
  9298  139C  3039               	movlw	(039h)
  9299  139D  027D               	subwf	(view_attendance@x),w
  9300  139E  1C03               	skipc
  9301  139F  2BA1               	goto	u4481
  9302  13A0  2BA2               	goto	u4480
  9303  13A1                     u4481:
  9304  13A1  2B81               	goto	l4764
  9305  13A2                     u4480:
  9306  13A2  2BA3               	goto	l4770
  9307                           	
  9308  13A3                     l869:	
  9309                           	line	860
  9310                           	
  9311  13A3                     l4770:	
  9312                           ;PR29.c: 859: }
  9313                           ;PR29.c: 860: delay(300000);
  9314  13A3  3000               	movlw	0
  9315  13A4  00F3               	movwf	(?_delay+3)
  9316  13A5  3004               	movlw	04h
  9317  13A6  00F2               	movwf	(?_delay+2)
  9318  13A7  3093               	movlw	093h
  9319  13A8  00F1               	movwf	(?_delay+1)
  9320  13A9  30E0               	movlw	0E0h
  9321  13AA  00F0               	movwf	(?_delay)
  9322                           
  9323  13AB  160A  158A  25CD   	fcall	_delay
              160A  118A         
  9324                           	line	861
  9325                           ;PR29.c: 861: lcd_goto(20);
  9326  13B0  3014               	movlw	(014h)
  9327  13B1  120A  158A  2004   	fcall	_lcd_goto
              160A  118A         
  9328                           	line	862
  9329                           	
  9330  13B6                     l4772:	
  9331                           ;PR29.c: 862: for(x=64; x<68; x++)
  9332  13B6  3040               	movlw	(040h)
  9333  13B7  00FC               	movwf	(??_view_attendance+0)+0
  9334  13B8  087C               	movf	(??_view_attendance+0)+0,w
  9335  13B9  00FD               	movwf	(view_attendance@x)
  9336                           	
  9337  13BA                     l4774:	
  9338  13BA  3044               	movlw	(044h)
  9339  13BB  027D               	subwf	(view_attendance@x),w
  9340  13BC  1C03               	skipc
  9341  13BD  2BBF               	goto	u4491
  9342  13BE  2BC0               	goto	u4490
  9343  13BF                     u4491:
  9344  13BF  2BC2               	goto	l4778
  9345  13C0                     u4490:
  9346  13C0  2BDE               	goto	l4784
  9347                           	
  9348  13C1                     l4776:	
  9349  13C1  2BDE               	goto	l4784
  9350                           	line	863
  9351                           	
  9352  13C2                     l870:	
  9353                           	
  9354  13C2                     l4778:	
  9355                           ;PR29.c: 863: { TEMP=get_eeprom(x);
  9356  13C2  087D               	movf	(view_attendance@x),w
  9357  13C3  160A  158A  24FE   	fcall	_get_eeprom
              160A  118A         
  9358  13C8  00FC               	movwf	(??_view_attendance+0)+0
  9359  13C9  087C               	movf	(??_view_attendance+0)+0,w
  9360  13CA  1283               	bcf	status, 5	;RP0=0, select bank0
  9361  13CB  1303               	bcf	status, 6	;RP1=0, select bank0
  9362  13CC  00D6               	movwf	(_TEMP)
  9363                           	line	864
  9364                           ;PR29.c: 864: send_char(TEMP);
  9365  13CD  0856               	movf	(_TEMP),w
  9366  13CE  160A  158A  2580   	fcall	_send_char
              160A  118A         
  9367                           	line	862
  9368                           	
  9369  13D3                     l4780:	
  9370  13D3  3001               	movlw	(01h)
  9371  13D4  00FC               	movwf	(??_view_attendance+0)+0
  9372  13D5  087C               	movf	(??_view_attendance+0)+0,w
  9373  13D6  07FD               	addwf	(view_attendance@x),f
  9374                           	
  9375  13D7                     l4782:	
  9376  13D7  3044               	movlw	(044h)
  9377  13D8  027D               	subwf	(view_attendance@x),w
  9378  13D9  1C03               	skipc
  9379  13DA  2BDC               	goto	u4501
  9380  13DB  2BDD               	goto	u4500
  9381  13DC                     u4501:
  9382  13DC  2BC2               	goto	l4778
  9383  13DD                     u4500:
  9384  13DD  2BDE               	goto	l4784
  9385                           	
  9386  13DE                     l871:	
  9387                           	line	866
  9388                           	
  9389  13DE                     l4784:	
  9390                           ;PR29.c: 865: }
  9391                           ;PR29.c: 866: for(x=68; x<73; x++)
  9392  13DE  3044               	movlw	(044h)
  9393  13DF  00FC               	movwf	(??_view_attendance+0)+0
  9394  13E0  087C               	movf	(??_view_attendance+0)+0,w
  9395  13E1  00FD               	movwf	(view_attendance@x)
  9396  13E2  3049               	movlw	(049h)
  9397  13E3  027D               	subwf	(view_attendance@x),w
  9398  13E4  1C03               	skipc
  9399  13E5  2BE7               	goto	u4511
  9400  13E6  2BE8               	goto	u4510
  9401  13E7                     u4511:
  9402  13E7  2BEA               	goto	l4788
  9403  13E8                     u4510:
  9404  13E8  2C0C               	goto	l4794
  9405                           	
  9406  13E9                     l4786:	
  9407  13E9  2C0C               	goto	l4794
  9408                           	line	867
  9409                           	
  9410  13EA                     l872:	
  9411                           	
  9412  13EA                     l4788:	
  9413                           ;PR29.c: 867: { send_char(0x20);
  9414  13EA  3020               	movlw	(020h)
  9415  13EB  160A  158A  2580   	fcall	_send_char
              160A  118A         
  9416                           	line	868
  9417                           ;PR29.c: 868: TEMP=get_eeprom(x);
  9418  13F0  087D               	movf	(view_attendance@x),w
  9419  13F1  160A  158A  24FE   	fcall	_get_eeprom
              160A  118A         
  9420  13F6  00FC               	movwf	(??_view_attendance+0)+0
  9421  13F7  087C               	movf	(??_view_attendance+0)+0,w
  9422  13F8  1283               	bcf	status, 5	;RP0=0, select bank0
  9423  13F9  1303               	bcf	status, 6	;RP1=0, select bank0
  9424  13FA  00D6               	movwf	(_TEMP)
  9425                           	line	869
  9426                           ;PR29.c: 869: send_char(TEMP);
  9427  13FB  0856               	movf	(_TEMP),w
  9428  13FC  160A  158A  2580   	fcall	_send_char
              160A  118A         
  9429                           	line	866
  9430                           	
  9431  1401                     l4790:	
  9432  1401  3001               	movlw	(01h)
  9433  1402  00FC               	movwf	(??_view_attendance+0)+0
  9434  1403  087C               	movf	(??_view_attendance+0)+0,w
  9435  1404  07FD               	addwf	(view_attendance@x),f
  9436                           	
  9437  1405                     l4792:	
  9438  1405  3049               	movlw	(049h)
  9439  1406  027D               	subwf	(view_attendance@x),w
  9440  1407  1C03               	skipc
  9441  1408  2C0A               	goto	u4521
  9442  1409  2C0B               	goto	u4520
  9443  140A                     u4521:
  9444  140A  2BEA               	goto	l4788
  9445  140B                     u4520:
  9446  140B  2C0C               	goto	l4794
  9447                           	
  9448  140C                     l873:	
  9449                           	line	871
  9450                           	
  9451  140C                     l4794:	
  9452                           ;PR29.c: 870: }
  9453                           ;PR29.c: 871: delay(300000);
  9454  140C  3000               	movlw	0
  9455  140D  00F3               	movwf	(?_delay+3)
  9456  140E  3004               	movlw	04h
  9457  140F  00F2               	movwf	(?_delay+2)
  9458  1410  3093               	movlw	093h
  9459  1411  00F1               	movwf	(?_delay+1)
  9460  1412  30E0               	movlw	0E0h
  9461  1413  00F0               	movwf	(?_delay)
  9462                           
  9463  1414  160A  158A  25CD   	fcall	_delay
              160A  118A         
  9464                           	line	873
  9465                           	
  9466  1419                     l874:	
  9467  1419  0008               	return
  9468                           	opt stack 0
  9469                           GLOBAL	__end_of_view_attendance
  9470  141A                     	__end_of_view_attendance:
  9471 ;; =============== function _view_attendance ends ============
  9472                           
  9473                           	signat	_view_attendance,88
  9474                           	global	_allign
  9475                           psect	text569,local,class=CODE,delta=2
  9476                           global __ptext569
  9477  1D13                     __ptext569:
  9478                           
  9479 ;; *************** function _allign *****************
  9480 ;; Defined at:
  9481 ;;		line 1168 in file "C:\Users\Phang\Desktop\9.80\PR 29\PR29.c"
  9482 ;; Parameters:    Size  Location     Type
  9483 ;;		None
  9484 ;; Auto vars:     Size  Location     Type
  9485 ;;  Allign          1    6[COMMON] unsigned char 
  9486 ;; Return value:  Size  Location     Type
  9487 ;;		None               void
  9488 ;; Registers used:
  9489 ;;		wreg, fsr0l, fsr0h, status,2, status,0, pclath, cstack
  9490 ;; Tracked objects:
  9491 ;;		On entry : 0/0
  9492 ;;		On exit  : 0/0
  9493 ;;		Unchanged: 0/0
  9494 ;; Data sizes:     COMMON   BANK0   BANK1   BANK3   BANK2
  9495 ;;      Params:         0       0       0       0       0
  9496 ;;      Locals:         1       0       0       0       0
  9497 ;;      Temps:          1       0       0       0       0
  9498 ;;      Totals:         2       0       0       0       0
  9499 ;;Total ram usage:        2 bytes
  9500 ;; Hardware stack levels used:    1
  9501 ;; Hardware stack levels required when called:    1
  9502 ;; This function calls:
  9503 ;;		_uart_write
  9504 ;; This function is called by:
  9505 ;;		_upload_HT
  9506 ;; This function uses a non-reentrant model
  9507 ;;
  9508                           psect	text569
  9509                           	file	"C:\Users\Phang\Desktop\9.80\PR 29\PR29.c"
  9510                           	line	1168
  9511                           	global	__size_of_allign
  9512  0023                     	__size_of_allign	equ	__end_of_allign-_allign
  9513                           	
  9514  1D13                     _allign:	
  9515                           	opt	stack 4
  9516                           ; Regs used in _allign: [wreg-fsr0h+status,2+status,0+pclath+cstack]
  9517                           	line	1170
  9518                           	
  9519  1D13                     l4658:	
  9520                           ;PR29.c: 1169: unsigned char Allign;
  9521                           ;PR29.c: 1170: for(Allign=0;Allign<66;Allign++)
  9522  1D13  1003               	clrc
  9523  1D14  3000               	movlw	0
  9524  1D15  1803               	btfsc	status,0
  9525  1D16  3001               	movlw	1
  9526  1D17  00F6               	movwf	(allign@Allign)
  9527                           	
  9528  1D18                     l4660:	
  9529  1D18  3042               	movlw	(042h)
  9530  1D19  0276               	subwf	(allign@Allign),w
  9531  1D1A  1C03               	skipc
  9532  1D1B  2D1D               	goto	u4311
  9533  1D1C  2D1E               	goto	u4310
  9534  1D1D                     u4311:
  9535  1D1D  2D20               	goto	l4664
  9536  1D1E                     u4310:
  9537  1D1E  2D35               	goto	l975
  9538                           	
  9539  1D1F                     l4662:	
  9540  1D1F  2D35               	goto	l975
  9541                           	line	1171
  9542                           	
  9543  1D20                     l973:	
  9544                           	
  9545  1D20                     l4664:	
  9546                           ;PR29.c: 1171: uart_write(2,' ');
  9547  1D20  3020               	movlw	(020h)
  9548  1D21  00F5               	movwf	(??_allign+0)+0
  9549  1D22  0875               	movf	(??_allign+0)+0,w
  9550  1D23  00F0               	movwf	(?_uart_write)
  9551  1D24  3002               	movlw	(02h)
  9552  1D25  120A  158A  2021   	fcall	_uart_write
              160A  158A         
  9553                           	line	1170
  9554                           	
  9555  1D2A                     l4666:	
  9556  1D2A  3001               	movlw	(01h)
  9557  1D2B  00F5               	movwf	(??_allign+0)+0
  9558  1D2C  0875               	movf	(??_allign+0)+0,w
  9559  1D2D  07F6               	addwf	(allign@Allign),f
  9560                           	
  9561  1D2E                     l4668:	
  9562  1D2E  3042               	movlw	(042h)
  9563  1D2F  0276               	subwf	(allign@Allign),w
  9564  1D30  1C03               	skipc
  9565  1D31  2D33               	goto	u4321
  9566  1D32  2D34               	goto	u4320
  9567  1D33                     u4321:
  9568  1D33  2D20               	goto	l4664
  9569  1D34                     u4320:
  9570  1D34  2D35               	goto	l975
  9571                           	
  9572  1D35                     l974:	
  9573                           	line	1172
  9574                           	
  9575  1D35                     l975:	
  9576  1D35  0008               	return
  9577                           	opt stack 0
  9578                           GLOBAL	__end_of_allign
  9579  1D36                     	__end_of_allign:
  9580 ;; =============== function _allign ends ============
  9581                           
  9582                           	signat	_allign,88
  9583                           	global	_upload_GUI
  9584                           psect	text570,local,class=CODE,delta=2
  9585                           global __ptext570
  9586  0982                     __ptext570:
  9587                           
  9588 ;; *************** function _upload_GUI *****************
  9589 ;; Defined at:
  9590 ;;		line 1085 in file "C:\Users\Phang\Desktop\9.80\PR 29\PR29.c"
  9591 ;; Parameters:    Size  Location     Type
  9592 ;;		None
  9593 ;; Auto vars:     Size  Location     Type
  9594 ;;  count           1    9[COMMON] unsigned char 
  9595 ;;  address         1    8[COMMON] unsigned char 
  9596 ;; Return value:  Size  Location     Type
  9597 ;;		None               void
  9598 ;; Registers used:
  9599 ;;		wreg, fsr0l, fsr0h, status,2, status,0, pclath, cstack
  9600 ;; Tracked objects:
  9601 ;;		On entry : 0/0
  9602 ;;		On exit  : 0/0
  9603 ;;		Unchanged: 0/0
  9604 ;; Data sizes:     COMMON   BANK0   BANK1   BANK3   BANK2
  9605 ;;      Params:         0       0       0       0       0
  9606 ;;      Locals:         2       0       0       0       0
  9607 ;;      Temps:          3       0       0       0       0
  9608 ;;      Totals:         5       0       0       0       0
  9609 ;;Total ram usage:        5 bytes
  9610 ;; Hardware stack levels used:    1
  9611 ;; Hardware stack levels required when called:    1
  9612 ;; This function calls:
  9613 ;;		_get_eeprom
  9614 ;;		_uart_write
  9615 ;; This function is called by:
  9616 ;;		_mode
  9617 ;; This function uses a non-reentrant model
  9618 ;;
  9619                           psect	text570
  9620                           	file	"C:\Users\Phang\Desktop\9.80\PR 29\PR29.c"
  9621                           	line	1085
  9622                           	global	__size_of_upload_GUI
  9623  0255                     	__size_of_upload_GUI	equ	__end_of_upload_GUI-_upload_GUI
  9624                           	
  9625  0982                     _upload_GUI:	
  9626                           	opt	stack 5
  9627                           ; Regs used in _upload_GUI: [wreg-fsr0h+status,2+status,0+pclath+cstack]
  9628                           	line	1089
  9629                           	
  9630  0982                     l4536:	
  9631                           ;PR29.c: 1086: unsigned char address;
  9632                           ;PR29.c: 1087: unsigned char count;
  9633                           ;PR29.c: 1089: address=0x00;
  9634  0982  1003               	clrc
  9635  0983  3000               	movlw	0
  9636  0984  1803               	btfsc	status,0
  9637  0985  3001               	movlw	1
  9638  0986  00F8               	movwf	(upload_GUI@address)
  9639                           	line	1090
  9640                           	
  9641  0987                     l4538:	
  9642                           ;PR29.c: 1090: count=address;
  9643  0987  0878               	movf	(upload_GUI@address),w
  9644  0988  00F5               	movwf	(??_upload_GUI+0)+0
  9645  0989  0875               	movf	(??_upload_GUI+0)+0,w
  9646  098A  00F9               	movwf	(upload_GUI@count)
  9647                           	line	1091
  9648  098B  29A6               	goto	l4546
  9649                           	line	1092
  9650                           	
  9651  098C                     l936:	
  9652                           	line	1093
  9653                           	
  9654  098C                     l4540:	
  9655                           ;PR29.c: 1092: {
  9656                           ;PR29.c: 1093: TEMP=get_eeprom(count);
  9657  098C  0879               	movf	(upload_GUI@count),w
  9658  098D  160A  158A  24FE   	fcall	_get_eeprom
              120A  158A         
  9659  0992  00F5               	movwf	(??_upload_GUI+0)+0
  9660  0993  0875               	movf	(??_upload_GUI+0)+0,w
  9661  0994  1283               	bcf	status, 5	;RP0=0, select bank0
  9662  0995  1303               	bcf	status, 6	;RP1=0, select bank0
  9663  0996  00D6               	movwf	(_TEMP)
  9664                           	line	1094
  9665                           	
  9666  0997                     l4542:	
  9667                           ;PR29.c: 1094: uart_write(2,TEMP);
  9668  0997  0856               	movf	(_TEMP),w
  9669  0998  00F5               	movwf	(??_upload_GUI+0)+0
  9670  0999  0875               	movf	(??_upload_GUI+0)+0,w
  9671  099A  00F0               	movwf	(?_uart_write)
  9672  099B  3002               	movlw	(02h)
  9673  099C  120A  158A  2021   	fcall	_uart_write
              120A  158A         
  9674                           	line	1091
  9675                           	
  9676  09A1                     l4544:	
  9677  09A1  3001               	movlw	(01h)
  9678  09A2  00F5               	movwf	(??_upload_GUI+0)+0
  9679  09A3  0875               	movf	(??_upload_GUI+0)+0,w
  9680  09A4  07F9               	addwf	(upload_GUI@count),f
  9681  09A5  29A6               	goto	l4546
  9682                           	
  9683  09A6                     l935:	
  9684                           	
  9685  09A6                     l4546:	
  9686  09A6  0878               	movf	(upload_GUI@address),w
  9687  09A7  3E03               	addlw	low(03h)
  9688  09A8  00F5               	movwf	(??_upload_GUI+0)+0
  9689  09A9  3000               	movlw	high(03h)
  9690  09AA  1803               	skipnc
  9691  09AB  3001               	movlw	(high(03h)+1)&0ffh
  9692  09AC  00F6               	movwf	((??_upload_GUI+0)+0)+1
  9693  09AD  0876               	movf	1+(??_upload_GUI+0)+0,w
  9694  09AE  3A80               	xorlw	80h
  9695  09AF  00F7               	movwf	(??_upload_GUI+2)+0
  9696  09B0  3080               	movlw	80h
  9697  09B1  0277               	subwf	(??_upload_GUI+2)+0,w
  9698  09B2  1D03               	skipz
  9699  09B3  29B6               	goto	u4165
  9700  09B4  0879               	movf	(upload_GUI@count),w
  9701  09B5  0275               	subwf	0+(??_upload_GUI+0)+0,w
  9702  09B6                     u4165:
  9703                           
  9704  09B6  1803               	skipnc
  9705  09B7  29B9               	goto	u4161
  9706  09B8  29BA               	goto	u4160
  9707  09B9                     u4161:
  9708  09B9  298C               	goto	l4540
  9709  09BA                     u4160:
  9710  09BA  29BB               	goto	l4548
  9711                           	
  9712  09BB                     l937:	
  9713                           	line	1096
  9714                           	
  9715  09BB                     l4548:	
  9716                           ;PR29.c: 1095: }
  9717                           ;PR29.c: 1096: address=count;
  9718  09BB  0879               	movf	(upload_GUI@count),w
  9719  09BC  00F5               	movwf	(??_upload_GUI+0)+0
  9720  09BD  0875               	movf	(??_upload_GUI+0)+0,w
  9721  09BE  00F8               	movwf	(upload_GUI@address)
  9722                           	line	1097
  9723  09BF  29E5               	goto	l4560
  9724                           	line	1098
  9725                           	
  9726  09C0                     l939:	
  9727                           	line	1099
  9728                           	
  9729  09C0                     l4550:	
  9730                           ;PR29.c: 1098: {
  9731                           ;PR29.c: 1099: TEMP=get_eeprom(count);
  9732  09C0  0879               	movf	(upload_GUI@count),w
  9733  09C1  160A  158A  24FE   	fcall	_get_eeprom
              120A  158A         
  9734  09C6  00F5               	movwf	(??_upload_GUI+0)+0
  9735  09C7  0875               	movf	(??_upload_GUI+0)+0,w
  9736  09C8  1283               	bcf	status, 5	;RP0=0, select bank0
  9737  09C9  1303               	bcf	status, 6	;RP1=0, select bank0
  9738  09CA  00D6               	movwf	(_TEMP)
  9739                           	line	1100
  9740                           	
  9741  09CB                     l4552:	
  9742                           ;PR29.c: 1100: if(TEMP==0xff) TEMP=0x30;
  9743  09CB  0856               	movf	(_TEMP),w
  9744  09CC  3AFF               	xorlw	0FFh
  9745  09CD  1D03               	skipz
  9746  09CE  29D0               	goto	u4171
  9747  09CF  29D1               	goto	u4170
  9748  09D0                     u4171:
  9749  09D0  29D6               	goto	l4556
  9750  09D1                     u4170:
  9751                           	
  9752  09D1                     l4554:	
  9753  09D1  3030               	movlw	(030h)
  9754  09D2  00F5               	movwf	(??_upload_GUI+0)+0
  9755  09D3  0875               	movf	(??_upload_GUI+0)+0,w
  9756  09D4  00D6               	movwf	(_TEMP)
  9757  09D5  29D6               	goto	l4556
  9758                           	
  9759  09D6                     l940:	
  9760                           	line	1101
  9761                           	
  9762  09D6                     l4556:	
  9763                           ;PR29.c: 1101: uart_write(2,TEMP);
  9764  09D6  0856               	movf	(_TEMP),w
  9765  09D7  00F5               	movwf	(??_upload_GUI+0)+0
  9766  09D8  0875               	movf	(??_upload_GUI+0)+0,w
  9767  09D9  00F0               	movwf	(?_uart_write)
  9768  09DA  3002               	movlw	(02h)
  9769  09DB  120A  158A  2021   	fcall	_uart_write
              120A  158A         
  9770                           	line	1097
  9771                           	
  9772  09E0                     l4558:	
  9773  09E0  3001               	movlw	(01h)
  9774  09E1  00F5               	movwf	(??_upload_GUI+0)+0
  9775  09E2  0875               	movf	(??_upload_GUI+0)+0,w
  9776  09E3  07F9               	addwf	(upload_GUI@count),f
  9777  09E4  29E5               	goto	l4560
  9778                           	
  9779  09E5                     l938:	
  9780                           	
  9781  09E5                     l4560:	
  9782  09E5  0878               	movf	(upload_GUI@address),w
  9783  09E6  3E04               	addlw	low(04h)
  9784  09E7  00F5               	movwf	(??_upload_GUI+0)+0
  9785  09E8  3000               	movlw	high(04h)
  9786  09E9  1803               	skipnc
  9787  09EA  3001               	movlw	(high(04h)+1)&0ffh
  9788  09EB  00F6               	movwf	((??_upload_GUI+0)+0)+1
  9789  09EC  0876               	movf	1+(??_upload_GUI+0)+0,w
  9790  09ED  3A80               	xorlw	80h
  9791  09EE  00F7               	movwf	(??_upload_GUI+2)+0
  9792  09EF  3080               	movlw	80h
  9793  09F0  0277               	subwf	(??_upload_GUI+2)+0,w
  9794  09F1  1D03               	skipz
  9795  09F2  29F5               	goto	u4185
  9796  09F3  0879               	movf	(upload_GUI@count),w
  9797  09F4  0275               	subwf	0+(??_upload_GUI+0)+0,w
  9798  09F5                     u4185:
  9799                           
  9800  09F5  1803               	skipnc
  9801  09F6  29F8               	goto	u4181
  9802  09F7  29F9               	goto	u4180
  9803  09F8                     u4181:
  9804  09F8  29C0               	goto	l4550
  9805  09F9                     u4180:
  9806  09F9  29FA               	goto	l4562
  9807                           	
  9808  09FA                     l941:	
  9809                           	line	1104
  9810                           	
  9811  09FA                     l4562:	
  9812                           ;PR29.c: 1102: }
  9813                           ;PR29.c: 1104: address=0x10;
  9814  09FA  3010               	movlw	(010h)
  9815  09FB  00F5               	movwf	(??_upload_GUI+0)+0
  9816  09FC  0875               	movf	(??_upload_GUI+0)+0,w
  9817  09FD  00F8               	movwf	(upload_GUI@address)
  9818                           	line	1105
  9819                           ;PR29.c: 1105: count=address;
  9820  09FE  0878               	movf	(upload_GUI@address),w
  9821  09FF  00F5               	movwf	(??_upload_GUI+0)+0
  9822  0A00  0875               	movf	(??_upload_GUI+0)+0,w
  9823  0A01  00F9               	movwf	(upload_GUI@count)
  9824                           	line	1106
  9825  0A02  2A1D               	goto	l4570
  9826                           	line	1107
  9827                           	
  9828  0A03                     l943:	
  9829                           	line	1108
  9830                           	
  9831  0A03                     l4564:	
  9832                           ;PR29.c: 1107: {
  9833                           ;PR29.c: 1108: TEMP=get_eeprom(count);
  9834  0A03  0879               	movf	(upload_GUI@count),w
  9835  0A04  160A  158A  24FE   	fcall	_get_eeprom
              120A  158A         
  9836  0A09  00F5               	movwf	(??_upload_GUI+0)+0
  9837  0A0A  0875               	movf	(??_upload_GUI+0)+0,w
  9838  0A0B  1283               	bcf	status, 5	;RP0=0, select bank0
  9839  0A0C  1303               	bcf	status, 6	;RP1=0, select bank0
  9840  0A0D  00D6               	movwf	(_TEMP)
  9841                           	line	1109
  9842                           	
  9843  0A0E                     l4566:	
  9844                           ;PR29.c: 1109: uart_write(2,TEMP);
  9845  0A0E  0856               	movf	(_TEMP),w
  9846  0A0F  00F5               	movwf	(??_upload_GUI+0)+0
  9847  0A10  0875               	movf	(??_upload_GUI+0)+0,w
  9848  0A11  00F0               	movwf	(?_uart_write)
  9849  0A12  3002               	movlw	(02h)
  9850  0A13  120A  158A  2021   	fcall	_uart_write
              120A  158A         
  9851                           	line	1106
  9852                           	
  9853  0A18                     l4568:	
  9854  0A18  3001               	movlw	(01h)
  9855  0A19  00F5               	movwf	(??_upload_GUI+0)+0
  9856  0A1A  0875               	movf	(??_upload_GUI+0)+0,w
  9857  0A1B  07F9               	addwf	(upload_GUI@count),f
  9858  0A1C  2A1D               	goto	l4570
  9859                           	
  9860  0A1D                     l942:	
  9861                           	
  9862  0A1D                     l4570:	
  9863  0A1D  0878               	movf	(upload_GUI@address),w
  9864  0A1E  3E03               	addlw	low(03h)
  9865  0A1F  00F5               	movwf	(??_upload_GUI+0)+0
  9866  0A20  3000               	movlw	high(03h)
  9867  0A21  1803               	skipnc
  9868  0A22  3001               	movlw	(high(03h)+1)&0ffh
  9869  0A23  00F6               	movwf	((??_upload_GUI+0)+0)+1
  9870  0A24  0876               	movf	1+(??_upload_GUI+0)+0,w
  9871  0A25  3A80               	xorlw	80h
  9872  0A26  00F7               	movwf	(??_upload_GUI+2)+0
  9873  0A27  3080               	movlw	80h
  9874  0A28  0277               	subwf	(??_upload_GUI+2)+0,w
  9875  0A29  1D03               	skipz
  9876  0A2A  2A2D               	goto	u4195
  9877  0A2B  0879               	movf	(upload_GUI@count),w
  9878  0A2C  0275               	subwf	0+(??_upload_GUI+0)+0,w
  9879  0A2D                     u4195:
  9880                           
  9881  0A2D  1803               	skipnc
  9882  0A2E  2A30               	goto	u4191
  9883  0A2F  2A31               	goto	u4190
  9884  0A30                     u4191:
  9885  0A30  2A03               	goto	l4564
  9886  0A31                     u4190:
  9887  0A31  2A32               	goto	l4572
  9888                           	
  9889  0A32                     l944:	
  9890                           	line	1111
  9891                           	
  9892  0A32                     l4572:	
  9893                           ;PR29.c: 1110: }
  9894                           ;PR29.c: 1111: address=count;
  9895  0A32  0879               	movf	(upload_GUI@count),w
  9896  0A33  00F5               	movwf	(??_upload_GUI+0)+0
  9897  0A34  0875               	movf	(??_upload_GUI+0)+0,w
  9898  0A35  00F8               	movwf	(upload_GUI@address)
  9899                           	line	1112
  9900  0A36  2A5C               	goto	l4584
  9901                           	line	1113
  9902                           	
  9903  0A37                     l946:	
  9904                           	line	1114
  9905                           	
  9906  0A37                     l4574:	
  9907                           ;PR29.c: 1113: {
  9908                           ;PR29.c: 1114: TEMP=get_eeprom(count);
  9909  0A37  0879               	movf	(upload_GUI@count),w
  9910  0A38  160A  158A  24FE   	fcall	_get_eeprom
              120A  158A         
  9911  0A3D  00F5               	movwf	(??_upload_GUI+0)+0
  9912  0A3E  0875               	movf	(??_upload_GUI+0)+0,w
  9913  0A3F  1283               	bcf	status, 5	;RP0=0, select bank0
  9914  0A40  1303               	bcf	status, 6	;RP1=0, select bank0
  9915  0A41  00D6               	movwf	(_TEMP)
  9916                           	line	1115
  9917                           	
  9918  0A42                     l4576:	
  9919                           ;PR29.c: 1115: if(TEMP==0xff) TEMP=0x30;
  9920  0A42  0856               	movf	(_TEMP),w
  9921  0A43  3AFF               	xorlw	0FFh
  9922  0A44  1D03               	skipz
  9923  0A45  2A47               	goto	u4201
  9924  0A46  2A48               	goto	u4200
  9925  0A47                     u4201:
  9926  0A47  2A4D               	goto	l4580
  9927  0A48                     u4200:
  9928                           	
  9929  0A48                     l4578:	
  9930  0A48  3030               	movlw	(030h)
  9931  0A49  00F5               	movwf	(??_upload_GUI+0)+0
  9932  0A4A  0875               	movf	(??_upload_GUI+0)+0,w
  9933  0A4B  00D6               	movwf	(_TEMP)
  9934  0A4C  2A4D               	goto	l4580
  9935                           	
  9936  0A4D                     l947:	
  9937                           	line	1116
  9938                           	
  9939  0A4D                     l4580:	
  9940                           ;PR29.c: 1116: uart_write(2,TEMP);
  9941  0A4D  0856               	movf	(_TEMP),w
  9942  0A4E  00F5               	movwf	(??_upload_GUI+0)+0
  9943  0A4F  0875               	movf	(??_upload_GUI+0)+0,w
  9944  0A50  00F0               	movwf	(?_uart_write)
  9945  0A51  3002               	movlw	(02h)
  9946  0A52  120A  158A  2021   	fcall	_uart_write
              120A  158A         
  9947                           	line	1112
  9948                           	
  9949  0A57                     l4582:	
  9950  0A57  3001               	movlw	(01h)
  9951  0A58  00F5               	movwf	(??_upload_GUI+0)+0
  9952  0A59  0875               	movf	(??_upload_GUI+0)+0,w
  9953  0A5A  07F9               	addwf	(upload_GUI@count),f
  9954  0A5B  2A5C               	goto	l4584
  9955                           	
  9956  0A5C                     l945:	
  9957                           	
  9958  0A5C                     l4584:	
  9959  0A5C  0878               	movf	(upload_GUI@address),w
  9960  0A5D  3E04               	addlw	low(04h)
  9961  0A5E  00F5               	movwf	(??_upload_GUI+0)+0
  9962  0A5F  3000               	movlw	high(04h)
  9963  0A60  1803               	skipnc
  9964  0A61  3001               	movlw	(high(04h)+1)&0ffh
  9965  0A62  00F6               	movwf	((??_upload_GUI+0)+0)+1
  9966  0A63  0876               	movf	1+(??_upload_GUI+0)+0,w
  9967  0A64  3A80               	xorlw	80h
  9968  0A65  00F7               	movwf	(??_upload_GUI+2)+0
  9969  0A66  3080               	movlw	80h
  9970  0A67  0277               	subwf	(??_upload_GUI+2)+0,w
  9971  0A68  1D03               	skipz
  9972  0A69  2A6C               	goto	u4215
  9973  0A6A  0879               	movf	(upload_GUI@count),w
  9974  0A6B  0275               	subwf	0+(??_upload_GUI+0)+0,w
  9975  0A6C                     u4215:
  9976                           
  9977  0A6C  1803               	skipnc
  9978  0A6D  2A6F               	goto	u4211
  9979  0A6E  2A70               	goto	u4210
  9980  0A6F                     u4211:
  9981  0A6F  2A37               	goto	l4574
  9982  0A70                     u4210:
  9983  0A70  2A71               	goto	l4586
  9984                           	
  9985  0A71                     l948:	
  9986                           	line	1119
  9987                           	
  9988  0A71                     l4586:	
  9989                           ;PR29.c: 1117: }
  9990                           ;PR29.c: 1119: address=0x20;
  9991  0A71  3020               	movlw	(020h)
  9992  0A72  00F5               	movwf	(??_upload_GUI+0)+0
  9993  0A73  0875               	movf	(??_upload_GUI+0)+0,w
  9994  0A74  00F8               	movwf	(upload_GUI@address)
  9995                           	line	1120
  9996                           ;PR29.c: 1120: count=address;
  9997  0A75  0878               	movf	(upload_GUI@address),w
  9998  0A76  00F5               	movwf	(??_upload_GUI+0)+0
  9999  0A77  0875               	movf	(??_upload_GUI+0)+0,w
 10000  0A78  00F9               	movwf	(upload_GUI@count)
 10001                           	line	1121
 10002  0A79  2A94               	goto	l4594
 10003                           	line	1122
 10004                           	
 10005  0A7A                     l950:	
 10006                           	line	1123
 10007                           	
 10008  0A7A                     l4588:	
 10009                           ;PR29.c: 1122: {
 10010                           ;PR29.c: 1123: TEMP=get_eeprom(count);
 10011  0A7A  0879               	movf	(upload_GUI@count),w
 10012  0A7B  160A  158A  24FE   	fcall	_get_eeprom
              120A  158A         
 10013  0A80  00F5               	movwf	(??_upload_GUI+0)+0
 10014  0A81  0875               	movf	(??_upload_GUI+0)+0,w
 10015  0A82  1283               	bcf	status, 5	;RP0=0, select bank0
 10016  0A83  1303               	bcf	status, 6	;RP1=0, select bank0
 10017  0A84  00D6               	movwf	(_TEMP)
 10018                           	line	1124
 10019                           	
 10020  0A85                     l4590:	
 10021                           ;PR29.c: 1124: uart_write(2,TEMP);
 10022  0A85  0856               	movf	(_TEMP),w
 10023  0A86  00F5               	movwf	(??_upload_GUI+0)+0
 10024  0A87  0875               	movf	(??_upload_GUI+0)+0,w
 10025  0A88  00F0               	movwf	(?_uart_write)
 10026  0A89  3002               	movlw	(02h)
 10027  0A8A  120A  158A  2021   	fcall	_uart_write
              120A  158A         
 10028                           	line	1121
 10029                           	
 10030  0A8F                     l4592:	
 10031  0A8F  3001               	movlw	(01h)
 10032  0A90  00F5               	movwf	(??_upload_GUI+0)+0
 10033  0A91  0875               	movf	(??_upload_GUI+0)+0,w
 10034  0A92  07F9               	addwf	(upload_GUI@count),f
 10035  0A93  2A94               	goto	l4594
 10036                           	
 10037  0A94                     l949:	
 10038                           	
 10039  0A94                     l4594:	
 10040  0A94  0878               	movf	(upload_GUI@address),w
 10041  0A95  3E03               	addlw	low(03h)
 10042  0A96  00F5               	movwf	(??_upload_GUI+0)+0
 10043  0A97  3000               	movlw	high(03h)
 10044  0A98  1803               	skipnc
 10045  0A99  3001               	movlw	(high(03h)+1)&0ffh
 10046  0A9A  00F6               	movwf	((??_upload_GUI+0)+0)+1
 10047  0A9B  0876               	movf	1+(??_upload_GUI+0)+0,w
 10048  0A9C  3A80               	xorlw	80h
 10049  0A9D  00F7               	movwf	(??_upload_GUI+2)+0
 10050  0A9E  3080               	movlw	80h
 10051  0A9F  0277               	subwf	(??_upload_GUI+2)+0,w
 10052  0AA0  1D03               	skipz
 10053  0AA1  2AA4               	goto	u4225
 10054  0AA2  0879               	movf	(upload_GUI@count),w
 10055  0AA3  0275               	subwf	0+(??_upload_GUI+0)+0,w
 10056  0AA4                     u4225:
 10057                           
 10058  0AA4  1803               	skipnc
 10059  0AA5  2AA7               	goto	u4221
 10060  0AA6  2AA8               	goto	u4220
 10061  0AA7                     u4221:
 10062  0AA7  2A7A               	goto	l4588
 10063  0AA8                     u4220:
 10064  0AA8  2AA9               	goto	l4596
 10065                           	
 10066  0AA9                     l951:	
 10067                           	line	1126
 10068                           	
 10069  0AA9                     l4596:	
 10070                           ;PR29.c: 1125: }
 10071                           ;PR29.c: 1126: address=count;
 10072  0AA9  0879               	movf	(upload_GUI@count),w
 10073  0AAA  00F5               	movwf	(??_upload_GUI+0)+0
 10074  0AAB  0875               	movf	(??_upload_GUI+0)+0,w
 10075  0AAC  00F8               	movwf	(upload_GUI@address)
 10076                           	line	1127
 10077  0AAD  2AD3               	goto	l4608
 10078                           	line	1128
 10079                           	
 10080  0AAE                     l953:	
 10081                           	line	1129
 10082                           	
 10083  0AAE                     l4598:	
 10084                           ;PR29.c: 1128: {
 10085                           ;PR29.c: 1129: TEMP=get_eeprom(count);
 10086  0AAE  0879               	movf	(upload_GUI@count),w
 10087  0AAF  160A  158A  24FE   	fcall	_get_eeprom
              120A  158A         
 10088  0AB4  00F5               	movwf	(??_upload_GUI+0)+0
 10089  0AB5  0875               	movf	(??_upload_GUI+0)+0,w
 10090  0AB6  1283               	bcf	status, 5	;RP0=0, select bank0
 10091  0AB7  1303               	bcf	status, 6	;RP1=0, select bank0
 10092  0AB8  00D6               	movwf	(_TEMP)
 10093                           	line	1130
 10094                           	
 10095  0AB9                     l4600:	
 10096                           ;PR29.c: 1130: if(TEMP==0xff) TEMP=0x30;
 10097  0AB9  0856               	movf	(_TEMP),w
 10098  0ABA  3AFF               	xorlw	0FFh
 10099  0ABB  1D03               	skipz
 10100  0ABC  2ABE               	goto	u4231
 10101  0ABD  2ABF               	goto	u4230
 10102  0ABE                     u4231:
 10103  0ABE  2AC4               	goto	l4604
 10104  0ABF                     u4230:
 10105                           	
 10106  0ABF                     l4602:	
 10107  0ABF  3030               	movlw	(030h)
 10108  0AC0  00F5               	movwf	(??_upload_GUI+0)+0
 10109  0AC1  0875               	movf	(??_upload_GUI+0)+0,w
 10110  0AC2  00D6               	movwf	(_TEMP)
 10111  0AC3  2AC4               	goto	l4604
 10112                           	
 10113  0AC4                     l954:	
 10114                           	line	1131
 10115                           	
 10116  0AC4                     l4604:	
 10117                           ;PR29.c: 1131: uart_write(2,TEMP);
 10118  0AC4  0856               	movf	(_TEMP),w
 10119  0AC5  00F5               	movwf	(??_upload_GUI+0)+0
 10120  0AC6  0875               	movf	(??_upload_GUI+0)+0,w
 10121  0AC7  00F0               	movwf	(?_uart_write)
 10122  0AC8  3002               	movlw	(02h)
 10123  0AC9  120A  158A  2021   	fcall	_uart_write
              120A  158A         
 10124                           	line	1127
 10125                           	
 10126  0ACE                     l4606:	
 10127  0ACE  3001               	movlw	(01h)
 10128  0ACF  00F5               	movwf	(??_upload_GUI+0)+0
 10129  0AD0  0875               	movf	(??_upload_GUI+0)+0,w
 10130  0AD1  07F9               	addwf	(upload_GUI@count),f
 10131  0AD2  2AD3               	goto	l4608
 10132                           	
 10133  0AD3                     l952:	
 10134                           	
 10135  0AD3                     l4608:	
 10136  0AD3  0878               	movf	(upload_GUI@address),w
 10137  0AD4  3E04               	addlw	low(04h)
 10138  0AD5  00F5               	movwf	(??_upload_GUI+0)+0
 10139  0AD6  3000               	movlw	high(04h)
 10140  0AD7  1803               	skipnc
 10141  0AD8  3001               	movlw	(high(04h)+1)&0ffh
 10142  0AD9  00F6               	movwf	((??_upload_GUI+0)+0)+1
 10143  0ADA  0876               	movf	1+(??_upload_GUI+0)+0,w
 10144  0ADB  3A80               	xorlw	80h
 10145  0ADC  00F7               	movwf	(??_upload_GUI+2)+0
 10146  0ADD  3080               	movlw	80h
 10147  0ADE  0277               	subwf	(??_upload_GUI+2)+0,w
 10148  0ADF  1D03               	skipz
 10149  0AE0  2AE3               	goto	u4245
 10150  0AE1  0879               	movf	(upload_GUI@count),w
 10151  0AE2  0275               	subwf	0+(??_upload_GUI+0)+0,w
 10152  0AE3                     u4245:
 10153                           
 10154  0AE3  1803               	skipnc
 10155  0AE4  2AE6               	goto	u4241
 10156  0AE5  2AE7               	goto	u4240
 10157  0AE6                     u4241:
 10158  0AE6  2AAE               	goto	l4598
 10159  0AE7                     u4240:
 10160  0AE7  2AE8               	goto	l4610
 10161                           	
 10162  0AE8                     l955:	
 10163                           	line	1134
 10164                           	
 10165  0AE8                     l4610:	
 10166                           ;PR29.c: 1132: }
 10167                           ;PR29.c: 1134: address=0x30;
 10168  0AE8  3030               	movlw	(030h)
 10169  0AE9  00F5               	movwf	(??_upload_GUI+0)+0
 10170  0AEA  0875               	movf	(??_upload_GUI+0)+0,w
 10171  0AEB  00F8               	movwf	(upload_GUI@address)
 10172                           	line	1135
 10173                           ;PR29.c: 1135: count=address;
 10174  0AEC  0878               	movf	(upload_GUI@address),w
 10175  0AED  00F5               	movwf	(??_upload_GUI+0)+0
 10176  0AEE  0875               	movf	(??_upload_GUI+0)+0,w
 10177  0AEF  00F9               	movwf	(upload_GUI@count)
 10178                           	line	1136
 10179  0AF0  2B0B               	goto	l4618
 10180                           	line	1137
 10181                           	
 10182  0AF1                     l957:	
 10183                           	line	1138
 10184                           	
 10185  0AF1                     l4612:	
 10186                           ;PR29.c: 1137: {
 10187                           ;PR29.c: 1138: TEMP=get_eeprom(count);
 10188  0AF1  0879               	movf	(upload_GUI@count),w
 10189  0AF2  160A  158A  24FE   	fcall	_get_eeprom
              120A  158A         
 10190  0AF7  00F5               	movwf	(??_upload_GUI+0)+0
 10191  0AF8  0875               	movf	(??_upload_GUI+0)+0,w
 10192  0AF9  1283               	bcf	status, 5	;RP0=0, select bank0
 10193  0AFA  1303               	bcf	status, 6	;RP1=0, select bank0
 10194  0AFB  00D6               	movwf	(_TEMP)
 10195                           	line	1139
 10196                           	
 10197  0AFC                     l4614:	
 10198                           ;PR29.c: 1139: uart_write(2,TEMP);
 10199  0AFC  0856               	movf	(_TEMP),w
 10200  0AFD  00F5               	movwf	(??_upload_GUI+0)+0
 10201  0AFE  0875               	movf	(??_upload_GUI+0)+0,w
 10202  0AFF  00F0               	movwf	(?_uart_write)
 10203  0B00  3002               	movlw	(02h)
 10204  0B01  120A  158A  2021   	fcall	_uart_write
              120A  158A         
 10205                           	line	1136
 10206                           	
 10207  0B06                     l4616:	
 10208  0B06  3001               	movlw	(01h)
 10209  0B07  00F5               	movwf	(??_upload_GUI+0)+0
 10210  0B08  0875               	movf	(??_upload_GUI+0)+0,w
 10211  0B09  07F9               	addwf	(upload_GUI@count),f
 10212  0B0A  2B0B               	goto	l4618
 10213                           	
 10214  0B0B                     l956:	
 10215                           	
 10216  0B0B                     l4618:	
 10217  0B0B  0878               	movf	(upload_GUI@address),w
 10218  0B0C  3E03               	addlw	low(03h)
 10219  0B0D  00F5               	movwf	(??_upload_GUI+0)+0
 10220  0B0E  3000               	movlw	high(03h)
 10221  0B0F  1803               	skipnc
 10222  0B10  3001               	movlw	(high(03h)+1)&0ffh
 10223  0B11  00F6               	movwf	((??_upload_GUI+0)+0)+1
 10224  0B12  0876               	movf	1+(??_upload_GUI+0)+0,w
 10225  0B13  3A80               	xorlw	80h
 10226  0B14  00F7               	movwf	(??_upload_GUI+2)+0
 10227  0B15  3080               	movlw	80h
 10228  0B16  0277               	subwf	(??_upload_GUI+2)+0,w
 10229  0B17  1D03               	skipz
 10230  0B18  2B1B               	goto	u4255
 10231  0B19  0879               	movf	(upload_GUI@count),w
 10232  0B1A  0275               	subwf	0+(??_upload_GUI+0)+0,w
 10233  0B1B                     u4255:
 10234                           
 10235  0B1B  1803               	skipnc
 10236  0B1C  2B1E               	goto	u4251
 10237  0B1D  2B1F               	goto	u4250
 10238  0B1E                     u4251:
 10239  0B1E  2AF1               	goto	l4612
 10240  0B1F                     u4250:
 10241  0B1F  2B20               	goto	l4620
 10242                           	
 10243  0B20                     l958:	
 10244                           	line	1141
 10245                           	
 10246  0B20                     l4620:	
 10247                           ;PR29.c: 1140: }
 10248                           ;PR29.c: 1141: address=count;
 10249  0B20  0879               	movf	(upload_GUI@count),w
 10250  0B21  00F5               	movwf	(??_upload_GUI+0)+0
 10251  0B22  0875               	movf	(??_upload_GUI+0)+0,w
 10252  0B23  00F8               	movwf	(upload_GUI@address)
 10253                           	line	1142
 10254  0B24  2B4A               	goto	l4632
 10255                           	line	1143
 10256                           	
 10257  0B25                     l960:	
 10258                           	line	1144
 10259                           	
 10260  0B25                     l4622:	
 10261                           ;PR29.c: 1143: {
 10262                           ;PR29.c: 1144: TEMP=get_eeprom(count);
 10263  0B25  0879               	movf	(upload_GUI@count),w
 10264  0B26  160A  158A  24FE   	fcall	_get_eeprom
              120A  158A         
 10265  0B2B  00F5               	movwf	(??_upload_GUI+0)+0
 10266  0B2C  0875               	movf	(??_upload_GUI+0)+0,w
 10267  0B2D  1283               	bcf	status, 5	;RP0=0, select bank0
 10268  0B2E  1303               	bcf	status, 6	;RP1=0, select bank0
 10269  0B2F  00D6               	movwf	(_TEMP)
 10270                           	line	1145
 10271                           	
 10272  0B30                     l4624:	
 10273                           ;PR29.c: 1145: if(TEMP==0xff) TEMP=0x30;
 10274  0B30  0856               	movf	(_TEMP),w
 10275  0B31  3AFF               	xorlw	0FFh
 10276  0B32  1D03               	skipz
 10277  0B33  2B35               	goto	u4261
 10278  0B34  2B36               	goto	u4260
 10279  0B35                     u4261:
 10280  0B35  2B3B               	goto	l4628
 10281  0B36                     u4260:
 10282                           	
 10283  0B36                     l4626:	
 10284  0B36  3030               	movlw	(030h)
 10285  0B37  00F5               	movwf	(??_upload_GUI+0)+0
 10286  0B38  0875               	movf	(??_upload_GUI+0)+0,w
 10287  0B39  00D6               	movwf	(_TEMP)
 10288  0B3A  2B3B               	goto	l4628
 10289                           	
 10290  0B3B                     l961:	
 10291                           	line	1146
 10292                           	
 10293  0B3B                     l4628:	
 10294                           ;PR29.c: 1146: uart_write(2,TEMP);
 10295  0B3B  0856               	movf	(_TEMP),w
 10296  0B3C  00F5               	movwf	(??_upload_GUI+0)+0
 10297  0B3D  0875               	movf	(??_upload_GUI+0)+0,w
 10298  0B3E  00F0               	movwf	(?_uart_write)
 10299  0B3F  3002               	movlw	(02h)
 10300  0B40  120A  158A  2021   	fcall	_uart_write
              120A  158A         
 10301                           	line	1142
 10302                           	
 10303  0B45                     l4630:	
 10304  0B45  3001               	movlw	(01h)
 10305  0B46  00F5               	movwf	(??_upload_GUI+0)+0
 10306  0B47  0875               	movf	(??_upload_GUI+0)+0,w
 10307  0B48  07F9               	addwf	(upload_GUI@count),f
 10308  0B49  2B4A               	goto	l4632
 10309                           	
 10310  0B4A                     l959:	
 10311                           	
 10312  0B4A                     l4632:	
 10313  0B4A  0878               	movf	(upload_GUI@address),w
 10314  0B4B  3E04               	addlw	low(04h)
 10315  0B4C  00F5               	movwf	(??_upload_GUI+0)+0
 10316  0B4D  3000               	movlw	high(04h)
 10317  0B4E  1803               	skipnc
 10318  0B4F  3001               	movlw	(high(04h)+1)&0ffh
 10319  0B50  00F6               	movwf	((??_upload_GUI+0)+0)+1
 10320  0B51  0876               	movf	1+(??_upload_GUI+0)+0,w
 10321  0B52  3A80               	xorlw	80h
 10322  0B53  00F7               	movwf	(??_upload_GUI+2)+0
 10323  0B54  3080               	movlw	80h
 10324  0B55  0277               	subwf	(??_upload_GUI+2)+0,w
 10325  0B56  1D03               	skipz
 10326  0B57  2B5A               	goto	u4275
 10327  0B58  0879               	movf	(upload_GUI@count),w
 10328  0B59  0275               	subwf	0+(??_upload_GUI+0)+0,w
 10329  0B5A                     u4275:
 10330                           
 10331  0B5A  1803               	skipnc
 10332  0B5B  2B5D               	goto	u4271
 10333  0B5C  2B5E               	goto	u4270
 10334  0B5D                     u4271:
 10335  0B5D  2B25               	goto	l4622
 10336  0B5E                     u4270:
 10337  0B5E  2B5F               	goto	l4634
 10338                           	
 10339  0B5F                     l962:	
 10340                           	line	1149
 10341                           	
 10342  0B5F                     l4634:	
 10343                           ;PR29.c: 1147: }
 10344                           ;PR29.c: 1149: address=0x40;
 10345  0B5F  3040               	movlw	(040h)
 10346  0B60  00F5               	movwf	(??_upload_GUI+0)+0
 10347  0B61  0875               	movf	(??_upload_GUI+0)+0,w
 10348  0B62  00F8               	movwf	(upload_GUI@address)
 10349                           	line	1150
 10350                           ;PR29.c: 1150: count=address;
 10351  0B63  0878               	movf	(upload_GUI@address),w
 10352  0B64  00F5               	movwf	(??_upload_GUI+0)+0
 10353  0B65  0875               	movf	(??_upload_GUI+0)+0,w
 10354  0B66  00F9               	movwf	(upload_GUI@count)
 10355                           	line	1151
 10356  0B67  2B82               	goto	l4642
 10357                           	line	1152
 10358                           	
 10359  0B68                     l964:	
 10360                           	line	1153
 10361                           	
 10362  0B68                     l4636:	
 10363                           ;PR29.c: 1152: {
 10364                           ;PR29.c: 1153: TEMP=get_eeprom(count);
 10365  0B68  0879               	movf	(upload_GUI@count),w
 10366  0B69  160A  158A  24FE   	fcall	_get_eeprom
              120A  158A         
 10367  0B6E  00F5               	movwf	(??_upload_GUI+0)+0
 10368  0B6F  0875               	movf	(??_upload_GUI+0)+0,w
 10369  0B70  1283               	bcf	status, 5	;RP0=0, select bank0
 10370  0B71  1303               	bcf	status, 6	;RP1=0, select bank0
 10371  0B72  00D6               	movwf	(_TEMP)
 10372                           	line	1154
 10373                           	
 10374  0B73                     l4638:	
 10375                           ;PR29.c: 1154: uart_write(2,TEMP);
 10376  0B73  0856               	movf	(_TEMP),w
 10377  0B74  00F5               	movwf	(??_upload_GUI+0)+0
 10378  0B75  0875               	movf	(??_upload_GUI+0)+0,w
 10379  0B76  00F0               	movwf	(?_uart_write)
 10380  0B77  3002               	movlw	(02h)
 10381  0B78  120A  158A  2021   	fcall	_uart_write
              120A  158A         
 10382                           	line	1151
 10383                           	
 10384  0B7D                     l4640:	
 10385  0B7D  3001               	movlw	(01h)
 10386  0B7E  00F5               	movwf	(??_upload_GUI+0)+0
 10387  0B7F  0875               	movf	(??_upload_GUI+0)+0,w
 10388  0B80  07F9               	addwf	(upload_GUI@count),f
 10389  0B81  2B82               	goto	l4642
 10390                           	
 10391  0B82                     l963:	
 10392                           	
 10393  0B82                     l4642:	
 10394  0B82  0878               	movf	(upload_GUI@address),w
 10395  0B83  3E03               	addlw	low(03h)
 10396  0B84  00F5               	movwf	(??_upload_GUI+0)+0
 10397  0B85  3000               	movlw	high(03h)
 10398  0B86  1803               	skipnc
 10399  0B87  3001               	movlw	(high(03h)+1)&0ffh
 10400  0B88  00F6               	movwf	((??_upload_GUI+0)+0)+1
 10401  0B89  0876               	movf	1+(??_upload_GUI+0)+0,w
 10402  0B8A  3A80               	xorlw	80h
 10403  0B8B  00F7               	movwf	(??_upload_GUI+2)+0
 10404  0B8C  3080               	movlw	80h
 10405  0B8D  0277               	subwf	(??_upload_GUI+2)+0,w
 10406  0B8E  1D03               	skipz
 10407  0B8F  2B92               	goto	u4285
 10408  0B90  0879               	movf	(upload_GUI@count),w
 10409  0B91  0275               	subwf	0+(??_upload_GUI+0)+0,w
 10410  0B92                     u4285:
 10411                           
 10412  0B92  1803               	skipnc
 10413  0B93  2B95               	goto	u4281
 10414  0B94  2B96               	goto	u4280
 10415  0B95                     u4281:
 10416  0B95  2B68               	goto	l4636
 10417  0B96                     u4280:
 10418  0B96  2B97               	goto	l4644
 10419                           	
 10420  0B97                     l965:	
 10421                           	line	1156
 10422                           	
 10423  0B97                     l4644:	
 10424                           ;PR29.c: 1155: }
 10425                           ;PR29.c: 1156: address=count;
 10426  0B97  0879               	movf	(upload_GUI@count),w
 10427  0B98  00F5               	movwf	(??_upload_GUI+0)+0
 10428  0B99  0875               	movf	(??_upload_GUI+0)+0,w
 10429  0B9A  00F8               	movwf	(upload_GUI@address)
 10430                           	line	1157
 10431  0B9B  2BC1               	goto	l4656
 10432                           	line	1158
 10433                           	
 10434  0B9C                     l967:	
 10435                           	line	1159
 10436                           	
 10437  0B9C                     l4646:	
 10438                           ;PR29.c: 1158: {
 10439                           ;PR29.c: 1159: TEMP=get_eeprom(count);
 10440  0B9C  0879               	movf	(upload_GUI@count),w
 10441  0B9D  160A  158A  24FE   	fcall	_get_eeprom
              120A  158A         
 10442  0BA2  00F5               	movwf	(??_upload_GUI+0)+0
 10443  0BA3  0875               	movf	(??_upload_GUI+0)+0,w
 10444  0BA4  1283               	bcf	status, 5	;RP0=0, select bank0
 10445  0BA5  1303               	bcf	status, 6	;RP1=0, select bank0
 10446  0BA6  00D6               	movwf	(_TEMP)
 10447                           	line	1160
 10448                           	
 10449  0BA7                     l4648:	
 10450                           ;PR29.c: 1160: if(TEMP==0xff) TEMP=0x30;
 10451  0BA7  0856               	movf	(_TEMP),w
 10452  0BA8  3AFF               	xorlw	0FFh
 10453  0BA9  1D03               	skipz
 10454  0BAA  2BAC               	goto	u4291
 10455  0BAB  2BAD               	goto	u4290
 10456  0BAC                     u4291:
 10457  0BAC  2BB2               	goto	l4652
 10458  0BAD                     u4290:
 10459                           	
 10460  0BAD                     l4650:	
 10461  0BAD  3030               	movlw	(030h)
 10462  0BAE  00F5               	movwf	(??_upload_GUI+0)+0
 10463  0BAF  0875               	movf	(??_upload_GUI+0)+0,w
 10464  0BB0  00D6               	movwf	(_TEMP)
 10465  0BB1  2BB2               	goto	l4652
 10466                           	
 10467  0BB2                     l968:	
 10468                           	line	1161
 10469                           	
 10470  0BB2                     l4652:	
 10471                           ;PR29.c: 1161: uart_write(2,TEMP);
 10472  0BB2  0856               	movf	(_TEMP),w
 10473  0BB3  00F5               	movwf	(??_upload_GUI+0)+0
 10474  0BB4  0875               	movf	(??_upload_GUI+0)+0,w
 10475  0BB5  00F0               	movwf	(?_uart_write)
 10476  0BB6  3002               	movlw	(02h)
 10477  0BB7  120A  158A  2021   	fcall	_uart_write
              120A  158A         
 10478                           	line	1157
 10479                           	
 10480  0BBC                     l4654:	
 10481  0BBC  3001               	movlw	(01h)
 10482  0BBD  00F5               	movwf	(??_upload_GUI+0)+0
 10483  0BBE  0875               	movf	(??_upload_GUI+0)+0,w
 10484  0BBF  07F9               	addwf	(upload_GUI@count),f
 10485  0BC0  2BC1               	goto	l4656
 10486                           	
 10487  0BC1                     l966:	
 10488                           	
 10489  0BC1                     l4656:	
 10490  0BC1  0878               	movf	(upload_GUI@address),w
 10491  0BC2  3E04               	addlw	low(04h)
 10492  0BC3  00F5               	movwf	(??_upload_GUI+0)+0
 10493  0BC4  3000               	movlw	high(04h)
 10494  0BC5  1803               	skipnc
 10495  0BC6  3001               	movlw	(high(04h)+1)&0ffh
 10496  0BC7  00F6               	movwf	((??_upload_GUI+0)+0)+1
 10497  0BC8  0876               	movf	1+(??_upload_GUI+0)+0,w
 10498  0BC9  3A80               	xorlw	80h
 10499  0BCA  00F7               	movwf	(??_upload_GUI+2)+0
 10500  0BCB  3080               	movlw	80h
 10501  0BCC  0277               	subwf	(??_upload_GUI+2)+0,w
 10502  0BCD  1D03               	skipz
 10503  0BCE  2BD1               	goto	u4305
 10504  0BCF  0879               	movf	(upload_GUI@count),w
 10505  0BD0  0275               	subwf	0+(??_upload_GUI+0)+0,w
 10506  0BD1                     u4305:
 10507                           
 10508  0BD1  1803               	skipnc
 10509  0BD2  2BD4               	goto	u4301
 10510  0BD3  2BD5               	goto	u4300
 10511  0BD4                     u4301:
 10512  0BD4  2B9C               	goto	l4646
 10513  0BD5                     u4300:
 10514  0BD5  2BD6               	goto	l970
 10515                           	
 10516  0BD6                     l969:	
 10517                           	line	1164
 10518                           	
 10519  0BD6                     l970:	
 10520  0BD6  0008               	return
 10521                           	opt stack 0
 10522                           GLOBAL	__end_of_upload_GUI
 10523  0BD7                     	__end_of_upload_GUI:
 10524 ;; =============== function _upload_GUI ends ============
 10525                           
 10526                           	signat	_upload_GUI,88
 10527                           	global	_send_string
 10528                           psect	text571,local,class=CODE,delta=2
 10529                           global __ptext571
 10530  1DFD                     __ptext571:
 10531                           
 10532 ;; *************** function _send_string *****************
 10533 ;; Defined at:
 10534 ;;		line 320 in file "C:\Users\Phang\Desktop\9.80\PR 29\PR29.c"
 10535 ;; Parameters:    Size  Location     Type
 10536 ;;  s               2    9[COMMON] PTR const unsigned char 
 10537 ;;		 -> STR_69(8), STR_68(17), STR_67(17), STR_66(19), 
 10538 ;;		 -> STR_65(16), STR_64(17), STR_63(17), STR_62(17), 
 10539 ;;		 -> STR_61(17), STR_60(14), STR_59(17), STR_58(14), 
 10540 ;;		 -> STR_57(17), STR_56(6), STR_55(12), STR_54(8), 
 10541 ;;		 -> STR_53(12), STR_52(14), STR_51(11), STR_50(8), 
 10542 ;;		 -> STR_49(7), STR_48(17), STR_47(17), STR_46(17), 
 10543 ;;		 -> STR_45(17), STR_44(17), STR_43(17), STR_42(17), 
 10544 ;;		 -> STR_41(17), STR_40(17), STR_39(17), STR_38(17), 
 10545 ;;		 -> STR_37(17), STR_36(17), STR_35(17), STR_34(17), 
 10546 ;;		 -> STR_33(12), STR_32(17), STR_31(17), STR_30(17), 
 10547 ;;		 -> STR_29(17), STR_28(17), STR_27(6), STR_26(17), 
 10548 ;;		 -> STR_25(6), STR_24(17), STR_23(17), STR_22(3), 
 10549 ;;		 -> STR_21(14), STR_20(9), STR_19(5), STR_18(14), 
 10550 ;;		 -> STR_17(17), STR_16(17), STR_15(14), STR_14(17), 
 10551 ;;		 -> STR_13(17), STR_12(17), STR_11(17), STR_10(17), 
 10552 ;;		 -> STR_9(17), STR_8(17), STR_7(17), STR_6(3), 
 10553 ;;		 -> STR_5(7), STR_4(17), STR_3(17), STR_2(6), 
 10554 ;;		 -> STR_1(13), 
 10555 ;; Auto vars:     Size  Location     Type
 10556 ;;  i               1   11[COMMON] unsigned char 
 10557 ;; Return value:  Size  Location     Type
 10558 ;;		None               void
 10559 ;; Registers used:
 10560 ;;		wreg, fsr0l, fsr0h, status,2, status,0, btemp+1, pclath, cstack
 10561 ;; Tracked objects:
 10562 ;;		On entry : 0/0
 10563 ;;		On exit  : 0/0
 10564 ;;		Unchanged: 0/0
 10565 ;; Data sizes:     COMMON   BANK0   BANK1   BANK3   BANK2
 10566 ;;      Params:         2       0       0       0       0
 10567 ;;      Locals:         1       0       0       0       0
 10568 ;;      Temps:          0       0       0       0       0
 10569 ;;      Totals:         3       0       0       0       0
 10570 ;;Total ram usage:        3 bytes
 10571 ;; Hardware stack levels used:    1
 10572 ;; Hardware stack levels required when called:    2
 10573 ;; This function calls:
 10574 ;;		_send_char
 10575 ;; This function is called by:
 10576 ;;		_main
 10577 ;;		_mode
 10578 ;;		_display_status
 10579 ;;		_CheckAdmin
 10580 ;;		_AddNew
 10581 ;;		_view_attendance
 10582 ;;		_ResetAdmin
 10583 ;; This function uses a non-reentrant model
 10584 ;;
 10585                           psect	text571
 10586                           	file	"C:\Users\Phang\Desktop\9.80\PR 29\PR29.c"
 10587                           	line	320
 10588                           	global	__size_of_send_string
 10589  0036                     	__size_of_send_string	equ	__end_of_send_string-_send_string
 10590                           	
 10591  1DFD                     _send_string:	
 10592                           	opt	stack 3
 10593                           ; Regs used in _send_string: [wreg-fsr0h+status,2+status,0+btemp+1+pclath+cstack]
 10594                           	line	321
 10595                           	
 10596  1DFD                     l4526:	
 10597                           ;PR29.c: 321: unsigned char i=0;
 10598  1DFD  1003               	clrc
 10599  1DFE  3000               	movlw	0
 10600  1DFF  1803               	btfsc	status,0
 10601  1E00  3001               	movlw	1
 10602  1E01  00FB               	movwf	(send_string@i)
 10603                           	line	322
 10604                           ;PR29.c: 322: while (s && *s)send_char (*s++);
 10605  1E02  2E1A               	goto	l4532
 10606                           	
 10607  1E03                     l672:	
 10608                           	
 10609  1E03                     l4528:	
 10610  1E03  087A               	movf	(send_string@s+1),w
 10611  1E04  1283               	bcf	status, 5	;RP0=0, select bank0
 10612  1E05  1303               	bcf	status, 6	;RP1=0, select bank0
 10613  1E06  00FF               	movwf	btemp+1
 10614  1E07  0879               	movf	(send_string@s),w
 10615  1E08  0084               	movwf	fsr0
 10616  1E09  160A  158A  22B7   	fcall	stringtab
              160A  158A         
 10617  1E0E  160A  158A  2580   	fcall	_send_char
              160A  158A         
 10618                           	
 10619  1E13                     l4530:	
 10620  1E13  3001               	movlw	low(01h)
 10621  1E14  07F9               	addwf	(send_string@s),f
 10622  1E15  1803               	skipnc
 10623  1E16  0AFA               	incf	(send_string@s+1),f
 10624  1E17  3000               	movlw	high(01h)
 10625  1E18  07FA               	addwf	(send_string@s+1),f
 10626  1E19  2E1A               	goto	l4532
 10627                           	
 10628  1E1A                     l671:	
 10629                           	
 10630  1E1A                     l4532:	
 10631  1E1A  087A               	movf	(send_string@s+1),w
 10632  1E1B  0479               	iorwf	(send_string@s),w
 10633  1E1C  1903               	skipnz
 10634  1E1D  2E1F               	goto	u4141
 10635  1E1E  2E20               	goto	u4140
 10636  1E1F                     u4141:
 10637  1E1F  2E32               	goto	l676
 10638  1E20                     u4140:
 10639                           	
 10640  1E20                     l4534:	
 10641  1E20  087A               	movf	(send_string@s+1),w
 10642  1E21  1283               	bcf	status, 5	;RP0=0, select bank0
 10643  1E22  1303               	bcf	status, 6	;RP1=0, select bank0
 10644  1E23  00FF               	movwf	btemp+1
 10645  1E24  0879               	movf	(send_string@s),w
 10646  1E25  0084               	movwf	fsr0
 10647  1E26  160A  158A  22B7   	fcall	stringtab
              160A  158A         
 10648  1E2B  3800               	iorlw	0
 10649  1E2C  1D03               	skipz
 10650  1E2D  2E2F               	goto	u4151
 10651  1E2E  2E30               	goto	u4150
 10652  1E2F                     u4151:
 10653  1E2F  2E03               	goto	l4528
 10654  1E30                     u4150:
 10655  1E30  2E32               	goto	l676
 10656                           	
 10657  1E31                     l674:	
 10658  1E31  2E32               	goto	l676
 10659                           	
 10660  1E32                     l675:	
 10661                           	line	324
 10662                           	
 10663  1E32                     l676:	
 10664  1E32  0008               	return
 10665                           	opt stack 0
 10666                           GLOBAL	__end_of_send_string
 10667  1E33                     	__end_of_send_string:
 10668 ;; =============== function _send_string ends ============
 10669                           
 10670                           	signat	_send_string,4216
 10671                           	global	_lcd_goto
 10672                           psect	text572,local,class=CODE,delta=2
 10673                           global __ptext572
 10674  0804                     __ptext572:
 10675                           
 10676 ;; *************** function _lcd_goto *****************
 10677 ;; Defined at:
 10678 ;;		line 299 in file "C:\Users\Phang\Desktop\9.80\PR 29\PR29.c"
 10679 ;; Parameters:    Size  Location     Type
 10680 ;;  data            1    wreg     unsigned char 
 10681 ;; Auto vars:     Size  Location     Type
 10682 ;;  data            1   10[COMMON] unsigned char 
 10683 ;; Return value:  Size  Location     Type
 10684 ;;		None               void
 10685 ;; Registers used:
 10686 ;;		wreg, status,2, status,0, pclath, cstack
 10687 ;; Tracked objects:
 10688 ;;		On entry : 0/0
 10689 ;;		On exit  : 0/0
 10690 ;;		Unchanged: 0/0
 10691 ;; Data sizes:     COMMON   BANK0   BANK1   BANK3   BANK2
 10692 ;;      Params:         0       0       0       0       0
 10693 ;;      Locals:         1       0       0       0       0
 10694 ;;      Temps:          1       0       0       0       0
 10695 ;;      Totals:         2       0       0       0       0
 10696 ;;Total ram usage:        2 bytes
 10697 ;; Hardware stack levels used:    1
 10698 ;; Hardware stack levels required when called:    2
 10699 ;; This function calls:
 10700 ;;		_send_config
 10701 ;; This function is called by:
 10702 ;;		_main
 10703 ;;		_mode
 10704 ;;		_display_status
 10705 ;;		_CheckAdmin
 10706 ;;		_AddNew
 10707 ;;		_view_attendance
 10708 ;;		_ResetAdmin
 10709 ;; This function uses a non-reentrant model
 10710 ;;
 10711                           psect	text572
 10712                           	file	"C:\Users\Phang\Desktop\9.80\PR 29\PR29.c"
 10713                           	line	299
 10714                           	global	__size_of_lcd_goto
 10715  001D                     	__size_of_lcd_goto	equ	__end_of_lcd_goto-_lcd_goto
 10716                           	
 10717  0804                     _lcd_goto:	
 10718                           	opt	stack 3
 10719                           ; Regs used in _lcd_goto: [wreg+status,2+status,0+pclath+cstack]
 10720                           ;lcd_goto@data stored from wreg
 10721  0804  00FA               	movwf	(lcd_goto@data)
 10722                           	line	300
 10723                           	
 10724  0805                     l4518:	
 10725                           ;PR29.c: 300: if(data<16)
 10726  0805  3010               	movlw	(010h)
 10727  0806  027A               	subwf	(lcd_goto@data),w
 10728  0807  1803               	skipnc
 10729  0808  280A               	goto	u4131
 10730  0809  280B               	goto	u4130
 10731  080A                     u4131:
 10732  080A  2813               	goto	l4522
 10733  080B                     u4130:
 10734                           	line	302
 10735                           	
 10736  080B                     l4520:	
 10737                           ;PR29.c: 301: {
 10738                           ;PR29.c: 302: send_config(0x80+data);
 10739  080B  087A               	movf	(lcd_goto@data),w
 10740  080C  3E80               	addlw	080h
 10741  080D  160A  158A  2536   	fcall	_send_config
              120A  158A         
 10742                           	line	303
 10743                           ;PR29.c: 303: }
 10744  0812  2820               	goto	l665
 10745                           	line	304
 10746                           	
 10747  0813                     l663:	
 10748                           	line	306
 10749                           	
 10750  0813                     l4522:	
 10751                           ;PR29.c: 304: else
 10752                           ;PR29.c: 305: {
 10753                           ;PR29.c: 306: data=data-20;
 10754  0813  087A               	movf	(lcd_goto@data),w
 10755  0814  3EEC               	addlw	0ECh
 10756  0815  00F9               	movwf	(??_lcd_goto+0)+0
 10757  0816  0879               	movf	(??_lcd_goto+0)+0,w
 10758  0817  00FA               	movwf	(lcd_goto@data)
 10759                           	line	307
 10760                           	
 10761  0818                     l4524:	
 10762                           ;PR29.c: 307: send_config(0xc0+data);
 10763  0818  087A               	movf	(lcd_goto@data),w
 10764  0819  3EC0               	addlw	0C0h
 10765  081A  160A  158A  2536   	fcall	_send_config
              120A  158A         
 10766  081F  2820               	goto	l665
 10767                           	line	308
 10768                           	
 10769  0820                     l664:	
 10770                           	line	309
 10771                           	
 10772  0820                     l665:	
 10773  0820  0008               	return
 10774                           	opt stack 0
 10775                           GLOBAL	__end_of_lcd_goto
 10776  0821                     	__end_of_lcd_goto:
 10777 ;; =============== function _lcd_goto ends ============
 10778                           
 10779                           	signat	_lcd_goto,4216
 10780                           	global	_lcd_clr
 10781                           psect	text573,local,class=CODE,delta=2
 10782                           global __ptext573
 10783  1CEA                     __ptext573:
 10784                           
 10785 ;; *************** function _lcd_clr *****************
 10786 ;; Defined at:
 10787 ;;		line 313 in file "C:\Users\Phang\Desktop\9.80\PR 29\PR29.c"
 10788 ;; Parameters:    Size  Location     Type
 10789 ;;		None
 10790 ;; Auto vars:     Size  Location     Type
 10791 ;;		None
 10792 ;; Return value:  Size  Location     Type
 10793 ;;		None               void
 10794 ;; Registers used:
 10795 ;;		wreg, status,2, status,0, pclath, cstack
 10796 ;; Tracked objects:
 10797 ;;		On entry : 0/0
 10798 ;;		On exit  : 0/0
 10799 ;;		Unchanged: 0/0
 10800 ;; Data sizes:     COMMON   BANK0   BANK1   BANK3   BANK2
 10801 ;;      Params:         0       0       0       0       0
 10802 ;;      Locals:         0       0       0       0       0
 10803 ;;      Temps:          0       0       0       0       0
 10804 ;;      Totals:         0       0       0       0       0
 10805 ;;Total ram usage:        0 bytes
 10806 ;; Hardware stack levels used:    1
 10807 ;; Hardware stack levels required when called:    2
 10808 ;; This function calls:
 10809 ;;		_send_config
 10810 ;;		_delay
 10811 ;; This function is called by:
 10812 ;;		_main
 10813 ;;		_mode
 10814 ;;		_display_status
 10815 ;;		_AddNew
 10816 ;;		_view_attendance
 10817 ;; This function uses a non-reentrant model
 10818 ;;
 10819                           psect	text573
 10820                           	file	"C:\Users\Phang\Desktop\9.80\PR 29\PR29.c"
 10821                           	line	313
 10822                           	global	__size_of_lcd_clr
 10823  0014                     	__size_of_lcd_clr	equ	__end_of_lcd_clr-_lcd_clr
 10824                           	
 10825  1CEA                     _lcd_clr:	
 10826                           	opt	stack 3
 10827                           ; Regs used in _lcd_clr: [wreg+status,2+status,0+pclath+cstack]
 10828                           	line	314
 10829                           	
 10830  1CEA                     l4516:	
 10831                           ;PR29.c: 314: send_config(0x01);
 10832  1CEA  3001               	movlw	(01h)
 10833  1CEB  160A  158A  2536   	fcall	_send_config
              160A  158A         
 10834                           	line	315
 10835                           ;PR29.c: 315: delay(600);
 10836  1CF0  3000               	movlw	0
 10837  1CF1  00F3               	movwf	(?_delay+3)
 10838  1CF2  3000               	movlw	0
 10839  1CF3  00F2               	movwf	(?_delay+2)
 10840  1CF4  3002               	movlw	02h
 10841  1CF5  00F1               	movwf	(?_delay+1)
 10842  1CF6  3058               	movlw	058h
 10843  1CF7  00F0               	movwf	(?_delay)
 10844                           
 10845  1CF8  160A  158A  25CD   	fcall	_delay
              160A  158A         
 10846                           	line	316
 10847                           	
 10848  1CFD                     l668:	
 10849  1CFD  0008               	return
 10850                           	opt stack 0
 10851                           GLOBAL	__end_of_lcd_clr
 10852  1CFE                     	__end_of_lcd_clr:
 10853 ;; =============== function _lcd_clr ends ============
 10854                           
 10855                           	signat	_lcd_clr,88
 10856                           	global	_uart_write
 10857                           psect	text574,local,class=CODE,delta=2
 10858                           global __ptext574
 10859  0821                     __ptext574:
 10860                           
 10861 ;; *************** function _uart_write *****************
 10862 ;; Defined at:
 10863 ;;		line 52 in file "C:\Users\Phang\Desktop\9.80\PR 29\uart_io.c"
 10864 ;; Parameters:    Size  Location     Type
 10865 ;;  channel         1    wreg     unsigned char 
 10866 ;;  data            1    0[COMMON] unsigned char 
 10867 ;; Auto vars:     Size  Location     Type
 10868 ;;  channel         1    3[COMMON] unsigned char 
 10869 ;;  i               1    4[COMMON] unsigned char 
 10870 ;; Return value:  Size  Location     Type
 10871 ;;		None               void
 10872 ;; Registers used:
 10873 ;;		wreg, fsr0l, fsr0h, status,2, status,0
 10874 ;; Tracked objects:
 10875 ;;		On entry : 0/0
 10876 ;;		On exit  : 0/0
 10877 ;;		Unchanged: 0/0
 10878 ;; Data sizes:     COMMON   BANK0   BANK1   BANK3   BANK2
 10879 ;;      Params:         1       0       0       0       0
 10880 ;;      Locals:         2       0       0       0       0
 10881 ;;      Temps:          2       0       0       0       0
 10882 ;;      Totals:         5       0       0       0       0
 10883 ;;Total ram usage:        5 bytes
 10884 ;; Hardware stack levels used:    1
 10885 ;; This function calls:
 10886 ;;		Nothing
 10887 ;; This function is called by:
 10888 ;;		_upload_HT
 10889 ;;		_upload_GUI
 10890 ;;		_allign
 10891 ;; This function uses a non-reentrant model
 10892 ;;
 10893                           psect	text574
 10894                           	file	"C:\Users\Phang\Desktop\9.80\PR 29\uart_io.c"
 10895                           	line	52
 10896                           	global	__size_of_uart_write
 10897  004C                     	__size_of_uart_write	equ	__end_of_uart_write-_uart_write
 10898                           	
 10899  0821                     _uart_write:	
 10900                           	opt	stack 4
 10901                           ; Regs used in _uart_write: [wreg-fsr0h+status,2+status,0]
 10902                           ;uart_write@channel stored from wreg
 10903  0821  00F3               	movwf	(uart_write@channel)
 10904                           	line	55
 10905                           	
 10906  0822                     l4488:	
 10907                           ;uart_io.c: 53: unsigned char i;
 10908                           ;uart_io.c: 55: switch(channel)
 10909  0822  2867               	goto	l4514
 10910                           	line	57
 10911                           ;uart_io.c: 56: {
 10912                           ;uart_io.c: 57: case 2:
 10913                           	
 10914  0823                     l1486:	
 10915                           	line	58
 10916                           ;uart_io.c: 58: RC0=0;
 10917  0823  1283               	bcf	status, 5	;RP0=0, select bank0
 10918  0824  1303               	bcf	status, 6	;RP1=0, select bank0
 10919  0825  1007               	bcf	(56/8),(56)&7
 10920                           	line	59
 10921                           	
 10922  0826                     l4490:	
 10923                           ;uart_io.c: 59: _delay((20000000/4)/19200-15);
 10924                           	opt asmopt_off
 10925  0826  3051               movlw	81
 10926  0827  00F1               movwf	(??_uart_write+0)+0,f
 10927  0828                     u5807:
 10928  0828  0BF1               decfsz	(??_uart_write+0)+0,f
 10929  0829  2828               	goto	u5807
 10930  082A  0064               	clrwdt
 10931                           opt asmopt_on
 10932                           
 10933                           	line	60
 10934                           	
 10935  082B                     l4492:	
 10936                           ;uart_io.c: 60: for(i=1;i>0;i=i<<1)
 10937  082B  01F4               	clrf	(uart_write@i)
 10938  082C  1403               	bsf	status,0
 10939  082D  0DF4               	rlf	(uart_write@i),f
 10940                           	
 10941  082E                     l4494:	
 10942  082E  08F4               	movf	(uart_write@i),f
 10943  082F  1D03               	skipz
 10944  0830  2832               	goto	u4101
 10945  0831  2833               	goto	u4100
 10946  0832                     u4101:
 10947  0832  2835               	goto	l4498
 10948  0833                     u4100:
 10949  0833  2859               	goto	l4508
 10950                           	
 10951  0834                     l4496:	
 10952  0834  2859               	goto	l4508
 10953                           	line	61
 10954                           	
 10955  0835                     l1487:	
 10956                           	line	62
 10957                           	
 10958  0835                     l4498:	
 10959                           ;uart_io.c: 61: {
 10960                           ;uart_io.c: 62: if((data&i)==0)
 10961  0835  0870               	movf	(uart_write@data),w
 10962  0836  0574               	andwf	(uart_write@i),w
 10963  0837  1D03               	btfss	status,2
 10964  0838  283A               	goto	u4111
 10965  0839  283B               	goto	u4110
 10966  083A                     u4111:
 10967  083A  2844               	goto	l1489
 10968  083B                     u4110:
 10969                           	line	64
 10970                           	
 10971  083B                     l4500:	
 10972                           ;uart_io.c: 63: {
 10973                           ;uart_io.c: 64: RC0=0;
 10974  083B  1283               	bcf	status, 5	;RP0=0, select bank0
 10975  083C  1303               	bcf	status, 6	;RP1=0, select bank0
 10976  083D  1007               	bcf	(56/8),(56)&7
 10977                           	line	65
 10978                           	
 10979  083E                     l4502:	
 10980                           ;uart_io.c: 65: _delay((20000000/4)/19200-21);
 10981                           	opt asmopt_off
 10982  083E  304F               movlw	79
 10983  083F  00F1               movwf	(??_uart_write+0)+0,f
 10984  0840                     u5817:
 10985  0840  0BF1               decfsz	(??_uart_write+0)+0,f
 10986  0841  2840               	goto	u5817
 10987  0842  0064               	clrwdt
 10988                           opt asmopt_on
 10989                           
 10990                           	line	66
 10991                           ;uart_io.c: 66: }
 10992  0843  284D               	goto	l4506
 10993                           	line	67
 10994                           	
 10995  0844                     l1489:	
 10996                           	line	69
 10997                           ;uart_io.c: 67: else
 10998                           ;uart_io.c: 68: {
 10999                           ;uart_io.c: 69: RC0=1;
 11000  0844  1283               	bcf	status, 5	;RP0=0, select bank0
 11001  0845  1303               	bcf	status, 6	;RP1=0, select bank0
 11002  0846  1407               	bsf	(56/8),(56)&7
 11003                           	line	70
 11004                           	
 11005  0847                     l4504:	
 11006                           ;uart_io.c: 70: _delay((20000000/4)/19200-20);
 11007                           	opt asmopt_off
 11008  0847  304F               movlw	79
 11009  0848  00F1               movwf	(??_uart_write+0)+0,f
 11010  0849                     u5827:
 11011  0849  0BF1               decfsz	(??_uart_write+0)+0,f
 11012  084A  2849               	goto	u5827
 11013  084B  284C               	nop2	;nop
 11014                           opt asmopt_on
 11015                           
 11016  084C  284D               	goto	l4506
 11017                           	line	71
 11018                           	
 11019  084D                     l1490:	
 11020                           	line	60
 11021                           	
 11022  084D                     l4506:	
 11023  084D  0874               	movf	(uart_write@i),w
 11024  084E  00F1               	movwf	(??_uart_write+0)+0
 11025  084F  0771               	addwf	(??_uart_write+0)+0,w
 11026  0850  00F2               	movwf	(??_uart_write+1)+0
 11027  0851  0872               	movf	(??_uart_write+1)+0,w
 11028  0852  00F4               	movwf	(uart_write@i)
 11029  0853  08F4               	movf	(uart_write@i),f
 11030  0854  1D03               	skipz
 11031  0855  2857               	goto	u4121
 11032  0856  2858               	goto	u4120
 11033  0857                     u4121:
 11034  0857  2835               	goto	l4498
 11035  0858                     u4120:
 11036  0858  2859               	goto	l4508
 11037                           	
 11038  0859                     l1488:	
 11039                           	line	73
 11040                           	
 11041  0859                     l4508:	
 11042                           ;uart_io.c: 71: }
 11043                           ;uart_io.c: 72: }
 11044                           ;uart_io.c: 73: _delay(8);
 11045                           		opt asmopt_off
 11046  0859  285A               	nop2	;2 cycle nop
 11047                           	opt asmopt_on
 11048                           	opt asmopt_off
 11049  085A  285B               	nop2	;2 cycle nop
 11050                           	opt asmopt_on
 11051                           	opt asmopt_off
 11052  085B  285C               	nop2	;2 cycle nop
 11053                           	opt asmopt_on
 11054                           	opt asmopt_off
 11055  085C  285D               	nop2	;2 cycle nop
 11056                           	opt asmopt_on
 11057                           
 11058                           	line	74
 11059                           	
 11060  085D                     l4510:	
 11061                           ;uart_io.c: 74: RC0=1;
 11062  085D  1283               	bcf	status, 5	;RP0=0, select bank0
 11063  085E  1303               	bcf	status, 6	;RP1=0, select bank0
 11064  085F  1407               	bsf	(56/8),(56)&7
 11065                           	line	75
 11066                           ;uart_io.c: 75: _delay((20000000/4)/19200-3);
 11067                           	opt asmopt_off
 11068  0860  3055               movlw	85
 11069  0861  00F1               movwf	(??_uart_write+0)+0,f
 11070  0862                     u5837:
 11071  0862  0BF1               decfsz	(??_uart_write+0)+0,f
 11072  0863  2862               	goto	u5837
 11073  0864  0064               	clrwdt
 11074                           opt asmopt_on
 11075                           
 11076                           	line	76
 11077                           ;uart_io.c: 76: break;
 11078  0865  286C               	goto	l1492
 11079                           	line	77
 11080                           	
 11081  0866                     l4512:	
 11082                           ;uart_io.c: 77: }
 11083  0866  286C               	goto	l1492
 11084                           	line	55
 11085                           	
 11086  0867                     l1485:	
 11087                           	
 11088  0867                     l4514:	
 11089  0867  0873               	movf	(uart_write@channel),w
 11090                           	; Switch size 1, requested type "space"
 11091                           ; Number of cases is 1, Range of values is 2 to 2
 11092                           ; switch strategies available:
 11093                           ; Name         Bytes Cycles
 11094                           ; simple_byte     4     3 (average)
 11095                           ; direct_byte    25    22 (fixed)
 11096                           ;	Chosen strategy is simple_byte
 11097                           
 11098  0868  3A02               	xorlw	2^0	; case 2
 11099  0869  1903               	skipnz
 11100  086A  2823               	goto	l1486
 11101  086B  286C               	goto	l1492
 11102                           
 11103                           	line	77
 11104                           	
 11105  086C                     l1491:	
 11106                           	line	78
 11107                           	
 11108  086C                     l1492:	
 11109  086C  0008               	return
 11110                           	opt stack 0
 11111                           GLOBAL	__end_of_uart_write
 11112  086D                     	__end_of_uart_write:
 11113 ;; =============== function _uart_write ends ============
 11114                           
 11115                           	signat	_uart_write,8312
 11116                           	global	_clear_attendance
 11117                           psect	text575,local,class=CODE,delta=2
 11118                           global __ptext575
 11119  00BF                     __ptext575:
 11120                           
 11121 ;; *************** function _clear_attendance *****************
 11122 ;; Defined at:
 11123 ;;		line 911 in file "C:\Users\Phang\Desktop\9.80\PR 29\PR29.c"
 11124 ;; Parameters:    Size  Location     Type
 11125 ;;		None
 11126 ;; Auto vars:     Size  Location     Type
 11127 ;;		None
 11128 ;; Return value:  Size  Location     Type
 11129 ;;		None               void
 11130 ;; Registers used:
 11131 ;;		wreg, status,2, status,0, pclath, cstack
 11132 ;; Tracked objects:
 11133 ;;		On entry : 0/0
 11134 ;;		On exit  : 0/0
 11135 ;;		Unchanged: 0/0
 11136 ;; Data sizes:     COMMON   BANK0   BANK1   BANK3   BANK2
 11137 ;;      Params:         0       0       0       0       0
 11138 ;;      Locals:         0       0       0       0       0
 11139 ;;      Temps:          1       0       0       0       0
 11140 ;;      Totals:         1       0       0       0       0
 11141 ;;Total ram usage:        1 bytes
 11142 ;; Hardware stack levels used:    1
 11143 ;; Hardware stack levels required when called:    1
 11144 ;; This function calls:
 11145 ;;		_store_eeprom
 11146 ;; This function is called by:
 11147 ;;		_mode
 11148 ;; This function uses a non-reentrant model
 11149 ;;
 11150                           psect	text575
 11151                           	file	"C:\Users\Phang\Desktop\9.80\PR 29\PR29.c"
 11152                           	line	911
 11153                           	global	__size_of_clear_attendance
 11154  025A                     	__size_of_clear_attendance	equ	__end_of_clear_attendance-_clear_attendance
 11155                           	
 11156  00BF                     _clear_attendance:	
 11157                           	opt	stack 5
 11158                           ; Regs used in _clear_attendance: [wreg+status,2+status,0+pclath+cstack]
 11159                           	line	912
 11160                           	
 11161  00BF                     l4388:	
 11162                           ;PR29.c: 912: day_location=0x00;
 11163  00BF  1003               	clrc
 11164  00C0  3000               	movlw	0
 11165  00C1  1803               	btfsc	status,0
 11166  00C2  3001               	movlw	1
 11167  00C3  1283               	bcf	status, 5	;RP0=0, select bank0
 11168  00C4  1303               	bcf	status, 6	;RP1=0, select bank0
 11169  00C5  00D7               	movwf	(_day_location)
 11170                           	line	913
 11171                           	
 11172  00C6                     l4390:	
 11173                           ;PR29.c: 913: store_eeprom('D',day_location);
 11174  00C6  0857               	movf	(_day_location),w
 11175  00C7  00F3               	movwf	(??_clear_attendance+0)+0
 11176  00C8  0873               	movf	(??_clear_attendance+0)+0,w
 11177  00C9  00F0               	movwf	(?_store_eeprom)
 11178  00CA  3044               	movlw	(044h)
 11179  00CB  160A  158A  2633   	fcall	_store_eeprom
              120A  118A         
 11180                           	line	914
 11181                           	
 11182  00D0                     l4392:	
 11183                           ;PR29.c: 914: store_eeprom('A',day_location+1);
 11184  00D0  1283               	bcf	status, 5	;RP0=0, select bank0
 11185  00D1  1303               	bcf	status, 6	;RP1=0, select bank0
 11186  00D2  0857               	movf	(_day_location),w
 11187  00D3  3E01               	addlw	01h
 11188  00D4  00F3               	movwf	(??_clear_attendance+0)+0
 11189  00D5  0873               	movf	(??_clear_attendance+0)+0,w
 11190  00D6  00F0               	movwf	(?_store_eeprom)
 11191  00D7  3041               	movlw	(041h)
 11192  00D8  160A  158A  2633   	fcall	_store_eeprom
              120A  118A         
 11193                           	line	915
 11194                           	
 11195  00DD                     l4394:	
 11196                           ;PR29.c: 915: store_eeprom('Y',day_location+2);
 11197  00DD  1283               	bcf	status, 5	;RP0=0, select bank0
 11198  00DE  1303               	bcf	status, 6	;RP1=0, select bank0
 11199  00DF  0857               	movf	(_day_location),w
 11200  00E0  3E02               	addlw	02h
 11201  00E1  00F3               	movwf	(??_clear_attendance+0)+0
 11202  00E2  0873               	movf	(??_clear_attendance+0)+0,w
 11203  00E3  00F0               	movwf	(?_store_eeprom)
 11204  00E4  3059               	movlw	(059h)
 11205  00E5  160A  158A  2633   	fcall	_store_eeprom
              120A  118A         
 11206                           	line	916
 11207                           	
 11208  00EA                     l4396:	
 11209                           ;PR29.c: 916: store_eeprom('1',day_location+3);
 11210  00EA  1283               	bcf	status, 5	;RP0=0, select bank0
 11211  00EB  1303               	bcf	status, 6	;RP1=0, select bank0
 11212  00EC  0857               	movf	(_day_location),w
 11213  00ED  3E03               	addlw	03h
 11214  00EE  00F3               	movwf	(??_clear_attendance+0)+0
 11215  00EF  0873               	movf	(??_clear_attendance+0)+0,w
 11216  00F0  00F0               	movwf	(?_store_eeprom)
 11217  00F1  3031               	movlw	(031h)
 11218  00F2  160A  158A  2633   	fcall	_store_eeprom
              120A  118A         
 11219                           	line	917
 11220                           	
 11221  00F7                     l4398:	
 11222                           ;PR29.c: 917: store_eeprom(0xff,day_location+4);
 11223  00F7  1283               	bcf	status, 5	;RP0=0, select bank0
 11224  00F8  1303               	bcf	status, 6	;RP1=0, select bank0
 11225  00F9  0857               	movf	(_day_location),w
 11226  00FA  3E04               	addlw	04h
 11227  00FB  00F3               	movwf	(??_clear_attendance+0)+0
 11228  00FC  0873               	movf	(??_clear_attendance+0)+0,w
 11229  00FD  00F0               	movwf	(?_store_eeprom)
 11230  00FE  30FF               	movlw	(0FFh)
 11231  00FF  160A  158A  2633   	fcall	_store_eeprom
              120A  118A         
 11232                           	line	918
 11233                           	
 11234  0104                     l4400:	
 11235                           ;PR29.c: 918: store_eeprom(0xff,day_location+5);
 11236  0104  1283               	bcf	status, 5	;RP0=0, select bank0
 11237  0105  1303               	bcf	status, 6	;RP1=0, select bank0
 11238  0106  0857               	movf	(_day_location),w
 11239  0107  3E05               	addlw	05h
 11240  0108  00F3               	movwf	(??_clear_attendance+0)+0
 11241  0109  0873               	movf	(??_clear_attendance+0)+0,w
 11242  010A  00F0               	movwf	(?_store_eeprom)
 11243  010B  30FF               	movlw	(0FFh)
 11244  010C  160A  158A  2633   	fcall	_store_eeprom
              120A  118A         
 11245                           	line	919
 11246                           	
 11247  0111                     l4402:	
 11248                           ;PR29.c: 919: store_eeprom(0xff,day_location+6);
 11249  0111  1283               	bcf	status, 5	;RP0=0, select bank0
 11250  0112  1303               	bcf	status, 6	;RP1=0, select bank0
 11251  0113  0857               	movf	(_day_location),w
 11252  0114  3E06               	addlw	06h
 11253  0115  00F3               	movwf	(??_clear_attendance+0)+0
 11254  0116  0873               	movf	(??_clear_attendance+0)+0,w
 11255  0117  00F0               	movwf	(?_store_eeprom)
 11256  0118  30FF               	movlw	(0FFh)
 11257  0119  160A  158A  2633   	fcall	_store_eeprom
              120A  118A         
 11258                           	line	920
 11259                           	
 11260  011E                     l4404:	
 11261                           ;PR29.c: 920: store_eeprom(0xff,day_location+7);
 11262  011E  1283               	bcf	status, 5	;RP0=0, select bank0
 11263  011F  1303               	bcf	status, 6	;RP1=0, select bank0
 11264  0120  0857               	movf	(_day_location),w
 11265  0121  3E07               	addlw	07h
 11266  0122  00F3               	movwf	(??_clear_attendance+0)+0
 11267  0123  0873               	movf	(??_clear_attendance+0)+0,w
 11268  0124  00F0               	movwf	(?_store_eeprom)
 11269  0125  30FF               	movlw	(0FFh)
 11270  0126  160A  158A  2633   	fcall	_store_eeprom
              120A  118A         
 11271                           	line	921
 11272                           	
 11273  012B                     l4406:	
 11274                           ;PR29.c: 921: store_eeprom(0xff,day_location+8);
 11275  012B  1283               	bcf	status, 5	;RP0=0, select bank0
 11276  012C  1303               	bcf	status, 6	;RP1=0, select bank0
 11277  012D  0857               	movf	(_day_location),w
 11278  012E  3E08               	addlw	08h
 11279  012F  00F3               	movwf	(??_clear_attendance+0)+0
 11280  0130  0873               	movf	(??_clear_attendance+0)+0,w
 11281  0131  00F0               	movwf	(?_store_eeprom)
 11282  0132  30FF               	movlw	(0FFh)
 11283  0133  160A  158A  2633   	fcall	_store_eeprom
              120A  118A         
 11284                           	line	922
 11285                           	
 11286  0138                     l4408:	
 11287                           ;PR29.c: 922: day_location=0x10;
 11288  0138  3010               	movlw	(010h)
 11289  0139  00F3               	movwf	(??_clear_attendance+0)+0
 11290  013A  0873               	movf	(??_clear_attendance+0)+0,w
 11291  013B  1283               	bcf	status, 5	;RP0=0, select bank0
 11292  013C  1303               	bcf	status, 6	;RP1=0, select bank0
 11293  013D  00D7               	movwf	(_day_location)
 11294                           	line	923
 11295                           	
 11296  013E                     l4410:	
 11297                           ;PR29.c: 923: store_eeprom('D',day_location);
 11298  013E  0857               	movf	(_day_location),w
 11299  013F  00F3               	movwf	(??_clear_attendance+0)+0
 11300  0140  0873               	movf	(??_clear_attendance+0)+0,w
 11301  0141  00F0               	movwf	(?_store_eeprom)
 11302  0142  3044               	movlw	(044h)
 11303  0143  160A  158A  2633   	fcall	_store_eeprom
              120A  118A         
 11304                           	line	924
 11305                           	
 11306  0148                     l4412:	
 11307                           ;PR29.c: 924: store_eeprom('A',day_location+1);
 11308  0148  1283               	bcf	status, 5	;RP0=0, select bank0
 11309  0149  1303               	bcf	status, 6	;RP1=0, select bank0
 11310  014A  0857               	movf	(_day_location),w
 11311  014B  3E01               	addlw	01h
 11312  014C  00F3               	movwf	(??_clear_attendance+0)+0
 11313  014D  0873               	movf	(??_clear_attendance+0)+0,w
 11314  014E  00F0               	movwf	(?_store_eeprom)
 11315  014F  3041               	movlw	(041h)
 11316  0150  160A  158A  2633   	fcall	_store_eeprom
              120A  118A         
 11317                           	line	925
 11318                           	
 11319  0155                     l4414:	
 11320                           ;PR29.c: 925: store_eeprom('Y',day_location+2);
 11321  0155  1283               	bcf	status, 5	;RP0=0, select bank0
 11322  0156  1303               	bcf	status, 6	;RP1=0, select bank0
 11323  0157  0857               	movf	(_day_location),w
 11324  0158  3E02               	addlw	02h
 11325  0159  00F3               	movwf	(??_clear_attendance+0)+0
 11326  015A  0873               	movf	(??_clear_attendance+0)+0,w
 11327  015B  00F0               	movwf	(?_store_eeprom)
 11328  015C  3059               	movlw	(059h)
 11329  015D  160A  158A  2633   	fcall	_store_eeprom
              120A  118A         
 11330                           	line	926
 11331                           	
 11332  0162                     l4416:	
 11333                           ;PR29.c: 926: store_eeprom('2',day_location+3);
 11334  0162  1283               	bcf	status, 5	;RP0=0, select bank0
 11335  0163  1303               	bcf	status, 6	;RP1=0, select bank0
 11336  0164  0857               	movf	(_day_location),w
 11337  0165  3E03               	addlw	03h
 11338  0166  00F3               	movwf	(??_clear_attendance+0)+0
 11339  0167  0873               	movf	(??_clear_attendance+0)+0,w
 11340  0168  00F0               	movwf	(?_store_eeprom)
 11341  0169  3032               	movlw	(032h)
 11342  016A  160A  158A  2633   	fcall	_store_eeprom
              120A  118A         
 11343                           	line	927
 11344                           	
 11345  016F                     l4418:	
 11346                           ;PR29.c: 927: store_eeprom(0xff,day_location+4);
 11347  016F  1283               	bcf	status, 5	;RP0=0, select bank0
 11348  0170  1303               	bcf	status, 6	;RP1=0, select bank0
 11349  0171  0857               	movf	(_day_location),w
 11350  0172  3E04               	addlw	04h
 11351  0173  00F3               	movwf	(??_clear_attendance+0)+0
 11352  0174  0873               	movf	(??_clear_attendance+0)+0,w
 11353  0175  00F0               	movwf	(?_store_eeprom)
 11354  0176  30FF               	movlw	(0FFh)
 11355  0177  160A  158A  2633   	fcall	_store_eeprom
              120A  118A         
 11356                           	line	928
 11357                           	
 11358  017C                     l4420:	
 11359                           ;PR29.c: 928: store_eeprom(0xff,day_location+5);
 11360  017C  1283               	bcf	status, 5	;RP0=0, select bank0
 11361  017D  1303               	bcf	status, 6	;RP1=0, select bank0
 11362  017E  0857               	movf	(_day_location),w
 11363  017F  3E05               	addlw	05h
 11364  0180  00F3               	movwf	(??_clear_attendance+0)+0
 11365  0181  0873               	movf	(??_clear_attendance+0)+0,w
 11366  0182  00F0               	movwf	(?_store_eeprom)
 11367  0183  30FF               	movlw	(0FFh)
 11368  0184  160A  158A  2633   	fcall	_store_eeprom
              120A  118A         
 11369                           	line	929
 11370                           	
 11371  0189                     l4422:	
 11372                           ;PR29.c: 929: store_eeprom(0xff,day_location+6);
 11373  0189  1283               	bcf	status, 5	;RP0=0, select bank0
 11374  018A  1303               	bcf	status, 6	;RP1=0, select bank0
 11375  018B  0857               	movf	(_day_location),w
 11376  018C  3E06               	addlw	06h
 11377  018D  00F3               	movwf	(??_clear_attendance+0)+0
 11378  018E  0873               	movf	(??_clear_attendance+0)+0,w
 11379  018F  00F0               	movwf	(?_store_eeprom)
 11380  0190  30FF               	movlw	(0FFh)
 11381  0191  160A  158A  2633   	fcall	_store_eeprom
              120A  118A         
 11382                           	line	930
 11383                           	
 11384  0196                     l4424:	
 11385                           ;PR29.c: 930: store_eeprom(0xff,day_location+7);
 11386  0196  1283               	bcf	status, 5	;RP0=0, select bank0
 11387  0197  1303               	bcf	status, 6	;RP1=0, select bank0
 11388  0198  0857               	movf	(_day_location),w
 11389  0199  3E07               	addlw	07h
 11390  019A  00F3               	movwf	(??_clear_attendance+0)+0
 11391  019B  0873               	movf	(??_clear_attendance+0)+0,w
 11392  019C  00F0               	movwf	(?_store_eeprom)
 11393  019D  30FF               	movlw	(0FFh)
 11394  019E  160A  158A  2633   	fcall	_store_eeprom
              120A  118A         
 11395                           	line	931
 11396                           	
 11397  01A3                     l4426:	
 11398                           ;PR29.c: 931: store_eeprom(0xff,day_location+8);
 11399  01A3  1283               	bcf	status, 5	;RP0=0, select bank0
 11400  01A4  1303               	bcf	status, 6	;RP1=0, select bank0
 11401  01A5  0857               	movf	(_day_location),w
 11402  01A6  3E08               	addlw	08h
 11403  01A7  00F3               	movwf	(??_clear_attendance+0)+0
 11404  01A8  0873               	movf	(??_clear_attendance+0)+0,w
 11405  01A9  00F0               	movwf	(?_store_eeprom)
 11406  01AA  30FF               	movlw	(0FFh)
 11407  01AB  160A  158A  2633   	fcall	_store_eeprom
              120A  118A         
 11408                           	line	932
 11409                           	
 11410  01B0                     l4428:	
 11411                           ;PR29.c: 932: day_location=0x20;
 11412  01B0  3020               	movlw	(020h)
 11413  01B1  00F3               	movwf	(??_clear_attendance+0)+0
 11414  01B2  0873               	movf	(??_clear_attendance+0)+0,w
 11415  01B3  1283               	bcf	status, 5	;RP0=0, select bank0
 11416  01B4  1303               	bcf	status, 6	;RP1=0, select bank0
 11417  01B5  00D7               	movwf	(_day_location)
 11418                           	line	933
 11419                           	
 11420  01B6                     l4430:	
 11421                           ;PR29.c: 933: store_eeprom('D',day_location);
 11422  01B6  0857               	movf	(_day_location),w
 11423  01B7  00F3               	movwf	(??_clear_attendance+0)+0
 11424  01B8  0873               	movf	(??_clear_attendance+0)+0,w
 11425  01B9  00F0               	movwf	(?_store_eeprom)
 11426  01BA  3044               	movlw	(044h)
 11427  01BB  160A  158A  2633   	fcall	_store_eeprom
              120A  118A         
 11428                           	line	934
 11429                           	
 11430  01C0                     l4432:	
 11431                           ;PR29.c: 934: store_eeprom('A',day_location+1);
 11432  01C0  1283               	bcf	status, 5	;RP0=0, select bank0
 11433  01C1  1303               	bcf	status, 6	;RP1=0, select bank0
 11434  01C2  0857               	movf	(_day_location),w
 11435  01C3  3E01               	addlw	01h
 11436  01C4  00F3               	movwf	(??_clear_attendance+0)+0
 11437  01C5  0873               	movf	(??_clear_attendance+0)+0,w
 11438  01C6  00F0               	movwf	(?_store_eeprom)
 11439  01C7  3041               	movlw	(041h)
 11440  01C8  160A  158A  2633   	fcall	_store_eeprom
              120A  118A         
 11441                           	line	935
 11442                           	
 11443  01CD                     l4434:	
 11444                           ;PR29.c: 935: store_eeprom('Y',day_location+2);
 11445  01CD  1283               	bcf	status, 5	;RP0=0, select bank0
 11446  01CE  1303               	bcf	status, 6	;RP1=0, select bank0
 11447  01CF  0857               	movf	(_day_location),w
 11448  01D0  3E02               	addlw	02h
 11449  01D1  00F3               	movwf	(??_clear_attendance+0)+0
 11450  01D2  0873               	movf	(??_clear_attendance+0)+0,w
 11451  01D3  00F0               	movwf	(?_store_eeprom)
 11452  01D4  3059               	movlw	(059h)
 11453  01D5  160A  158A  2633   	fcall	_store_eeprom
              120A  118A         
 11454                           	line	936
 11455                           	
 11456  01DA                     l4436:	
 11457                           ;PR29.c: 936: store_eeprom('3',day_location+3);
 11458  01DA  1283               	bcf	status, 5	;RP0=0, select bank0
 11459  01DB  1303               	bcf	status, 6	;RP1=0, select bank0
 11460  01DC  0857               	movf	(_day_location),w
 11461  01DD  3E03               	addlw	03h
 11462  01DE  00F3               	movwf	(??_clear_attendance+0)+0
 11463  01DF  0873               	movf	(??_clear_attendance+0)+0,w
 11464  01E0  00F0               	movwf	(?_store_eeprom)
 11465  01E1  3033               	movlw	(033h)
 11466  01E2  160A  158A  2633   	fcall	_store_eeprom
              120A  118A         
 11467                           	line	937
 11468                           	
 11469  01E7                     l4438:	
 11470                           ;PR29.c: 937: store_eeprom(0xff,day_location+4);
 11471  01E7  1283               	bcf	status, 5	;RP0=0, select bank0
 11472  01E8  1303               	bcf	status, 6	;RP1=0, select bank0
 11473  01E9  0857               	movf	(_day_location),w
 11474  01EA  3E04               	addlw	04h
 11475  01EB  00F3               	movwf	(??_clear_attendance+0)+0
 11476  01EC  0873               	movf	(??_clear_attendance+0)+0,w
 11477  01ED  00F0               	movwf	(?_store_eeprom)
 11478  01EE  30FF               	movlw	(0FFh)
 11479  01EF  160A  158A  2633   	fcall	_store_eeprom
              120A  118A         
 11480                           	line	938
 11481                           	
 11482  01F4                     l4440:	
 11483                           ;PR29.c: 938: store_eeprom(0xff,day_location+5);
 11484  01F4  1283               	bcf	status, 5	;RP0=0, select bank0
 11485  01F5  1303               	bcf	status, 6	;RP1=0, select bank0
 11486  01F6  0857               	movf	(_day_location),w
 11487  01F7  3E05               	addlw	05h
 11488  01F8  00F3               	movwf	(??_clear_attendance+0)+0
 11489  01F9  0873               	movf	(??_clear_attendance+0)+0,w
 11490  01FA  00F0               	movwf	(?_store_eeprom)
 11491  01FB  30FF               	movlw	(0FFh)
 11492  01FC  160A  158A  2633   	fcall	_store_eeprom
              120A  118A         
 11493                           	line	939
 11494                           	
 11495  0201                     l4442:	
 11496                           ;PR29.c: 939: store_eeprom(0xff,day_location+6);
 11497  0201  1283               	bcf	status, 5	;RP0=0, select bank0
 11498  0202  1303               	bcf	status, 6	;RP1=0, select bank0
 11499  0203  0857               	movf	(_day_location),w
 11500  0204  3E06               	addlw	06h
 11501  0205  00F3               	movwf	(??_clear_attendance+0)+0
 11502  0206  0873               	movf	(??_clear_attendance+0)+0,w
 11503  0207  00F0               	movwf	(?_store_eeprom)
 11504  0208  30FF               	movlw	(0FFh)
 11505  0209  160A  158A  2633   	fcall	_store_eeprom
              120A  118A         
 11506                           	line	940
 11507                           	
 11508  020E                     l4444:	
 11509                           ;PR29.c: 940: store_eeprom(0xff,day_location+7);
 11510  020E  1283               	bcf	status, 5	;RP0=0, select bank0
 11511  020F  1303               	bcf	status, 6	;RP1=0, select bank0
 11512  0210  0857               	movf	(_day_location),w
 11513  0211  3E07               	addlw	07h
 11514  0212  00F3               	movwf	(??_clear_attendance+0)+0
 11515  0213  0873               	movf	(??_clear_attendance+0)+0,w
 11516  0214  00F0               	movwf	(?_store_eeprom)
 11517  0215  30FF               	movlw	(0FFh)
 11518  0216  160A  158A  2633   	fcall	_store_eeprom
              120A  118A         
 11519                           	line	941
 11520                           	
 11521  021B                     l4446:	
 11522                           ;PR29.c: 941: store_eeprom(0xff,day_location+8);
 11523  021B  1283               	bcf	status, 5	;RP0=0, select bank0
 11524  021C  1303               	bcf	status, 6	;RP1=0, select bank0
 11525  021D  0857               	movf	(_day_location),w
 11526  021E  3E08               	addlw	08h
 11527  021F  00F3               	movwf	(??_clear_attendance+0)+0
 11528  0220  0873               	movf	(??_clear_attendance+0)+0,w
 11529  0221  00F0               	movwf	(?_store_eeprom)
 11530  0222  30FF               	movlw	(0FFh)
 11531  0223  160A  158A  2633   	fcall	_store_eeprom
              120A  118A         
 11532                           	line	942
 11533                           	
 11534  0228                     l4448:	
 11535                           ;PR29.c: 942: day_location=0x30;
 11536  0228  3030               	movlw	(030h)
 11537  0229  00F3               	movwf	(??_clear_attendance+0)+0
 11538  022A  0873               	movf	(??_clear_attendance+0)+0,w
 11539  022B  1283               	bcf	status, 5	;RP0=0, select bank0
 11540  022C  1303               	bcf	status, 6	;RP1=0, select bank0
 11541  022D  00D7               	movwf	(_day_location)
 11542                           	line	943
 11543                           	
 11544  022E                     l4450:	
 11545                           ;PR29.c: 943: store_eeprom('D',day_location);
 11546  022E  0857               	movf	(_day_location),w
 11547  022F  00F3               	movwf	(??_clear_attendance+0)+0
 11548  0230  0873               	movf	(??_clear_attendance+0)+0,w
 11549  0231  00F0               	movwf	(?_store_eeprom)
 11550  0232  3044               	movlw	(044h)
 11551  0233  160A  158A  2633   	fcall	_store_eeprom
              120A  118A         
 11552                           	line	944
 11553                           	
 11554  0238                     l4452:	
 11555                           ;PR29.c: 944: store_eeprom('A',day_location+1);
 11556  0238  1283               	bcf	status, 5	;RP0=0, select bank0
 11557  0239  1303               	bcf	status, 6	;RP1=0, select bank0
 11558  023A  0857               	movf	(_day_location),w
 11559  023B  3E01               	addlw	01h
 11560  023C  00F3               	movwf	(??_clear_attendance+0)+0
 11561  023D  0873               	movf	(??_clear_attendance+0)+0,w
 11562  023E  00F0               	movwf	(?_store_eeprom)
 11563  023F  3041               	movlw	(041h)
 11564  0240  160A  158A  2633   	fcall	_store_eeprom
              120A  118A         
 11565                           	line	945
 11566                           	
 11567  0245                     l4454:	
 11568                           ;PR29.c: 945: store_eeprom('Y',day_location+2);
 11569  0245  1283               	bcf	status, 5	;RP0=0, select bank0
 11570  0246  1303               	bcf	status, 6	;RP1=0, select bank0
 11571  0247  0857               	movf	(_day_location),w
 11572  0248  3E02               	addlw	02h
 11573  0249  00F3               	movwf	(??_clear_attendance+0)+0
 11574  024A  0873               	movf	(??_clear_attendance+0)+0,w
 11575  024B  00F0               	movwf	(?_store_eeprom)
 11576  024C  3059               	movlw	(059h)
 11577  024D  160A  158A  2633   	fcall	_store_eeprom
              120A  118A         
 11578                           	line	946
 11579                           	
 11580  0252                     l4456:	
 11581                           ;PR29.c: 946: store_eeprom('4',day_location+3);
 11582  0252  1283               	bcf	status, 5	;RP0=0, select bank0
 11583  0253  1303               	bcf	status, 6	;RP1=0, select bank0
 11584  0254  0857               	movf	(_day_location),w
 11585  0255  3E03               	addlw	03h
 11586  0256  00F3               	movwf	(??_clear_attendance+0)+0
 11587  0257  0873               	movf	(??_clear_attendance+0)+0,w
 11588  0258  00F0               	movwf	(?_store_eeprom)
 11589  0259  3034               	movlw	(034h)
 11590  025A  160A  158A  2633   	fcall	_store_eeprom
              120A  118A         
 11591                           	line	947
 11592                           	
 11593  025F                     l4458:	
 11594                           ;PR29.c: 947: store_eeprom(0xff,day_location+4);
 11595  025F  1283               	bcf	status, 5	;RP0=0, select bank0
 11596  0260  1303               	bcf	status, 6	;RP1=0, select bank0
 11597  0261  0857               	movf	(_day_location),w
 11598  0262  3E04               	addlw	04h
 11599  0263  00F3               	movwf	(??_clear_attendance+0)+0
 11600  0264  0873               	movf	(??_clear_attendance+0)+0,w
 11601  0265  00F0               	movwf	(?_store_eeprom)
 11602  0266  30FF               	movlw	(0FFh)
 11603  0267  160A  158A  2633   	fcall	_store_eeprom
              120A  118A         
 11604                           	line	948
 11605                           	
 11606  026C                     l4460:	
 11607                           ;PR29.c: 948: store_eeprom(0xff,day_location+5);
 11608  026C  1283               	bcf	status, 5	;RP0=0, select bank0
 11609  026D  1303               	bcf	status, 6	;RP1=0, select bank0
 11610  026E  0857               	movf	(_day_location),w
 11611  026F  3E05               	addlw	05h
 11612  0270  00F3               	movwf	(??_clear_attendance+0)+0
 11613  0271  0873               	movf	(??_clear_attendance+0)+0,w
 11614  0272  00F0               	movwf	(?_store_eeprom)
 11615  0273  30FF               	movlw	(0FFh)
 11616  0274  160A  158A  2633   	fcall	_store_eeprom
              120A  118A         
 11617                           	line	949
 11618                           	
 11619  0279                     l4462:	
 11620                           ;PR29.c: 949: store_eeprom(0xff,day_location+6);
 11621  0279  1283               	bcf	status, 5	;RP0=0, select bank0
 11622  027A  1303               	bcf	status, 6	;RP1=0, select bank0
 11623  027B  0857               	movf	(_day_location),w
 11624  027C  3E06               	addlw	06h
 11625  027D  00F3               	movwf	(??_clear_attendance+0)+0
 11626  027E  0873               	movf	(??_clear_attendance+0)+0,w
 11627  027F  00F0               	movwf	(?_store_eeprom)
 11628  0280  30FF               	movlw	(0FFh)
 11629  0281  160A  158A  2633   	fcall	_store_eeprom
              120A  118A         
 11630                           	line	950
 11631                           	
 11632  0286                     l4464:	
 11633                           ;PR29.c: 950: store_eeprom(0xff,day_location+7);
 11634  0286  1283               	bcf	status, 5	;RP0=0, select bank0
 11635  0287  1303               	bcf	status, 6	;RP1=0, select bank0
 11636  0288  0857               	movf	(_day_location),w
 11637  0289  3E07               	addlw	07h
 11638  028A  00F3               	movwf	(??_clear_attendance+0)+0
 11639  028B  0873               	movf	(??_clear_attendance+0)+0,w
 11640  028C  00F0               	movwf	(?_store_eeprom)
 11641  028D  30FF               	movlw	(0FFh)
 11642  028E  160A  158A  2633   	fcall	_store_eeprom
              120A  118A         
 11643                           	line	951
 11644                           	
 11645  0293                     l4466:	
 11646                           ;PR29.c: 951: store_eeprom(0xff,day_location+8);
 11647  0293  1283               	bcf	status, 5	;RP0=0, select bank0
 11648  0294  1303               	bcf	status, 6	;RP1=0, select bank0
 11649  0295  0857               	movf	(_day_location),w
 11650  0296  3E08               	addlw	08h
 11651  0297  00F3               	movwf	(??_clear_attendance+0)+0
 11652  0298  0873               	movf	(??_clear_attendance+0)+0,w
 11653  0299  00F0               	movwf	(?_store_eeprom)
 11654  029A  30FF               	movlw	(0FFh)
 11655  029B  160A  158A  2633   	fcall	_store_eeprom
              120A  118A         
 11656                           	line	952
 11657                           	
 11658  02A0                     l4468:	
 11659                           ;PR29.c: 952: day_location=0x40;
 11660  02A0  3040               	movlw	(040h)
 11661  02A1  00F3               	movwf	(??_clear_attendance+0)+0
 11662  02A2  0873               	movf	(??_clear_attendance+0)+0,w
 11663  02A3  1283               	bcf	status, 5	;RP0=0, select bank0
 11664  02A4  1303               	bcf	status, 6	;RP1=0, select bank0
 11665  02A5  00D7               	movwf	(_day_location)
 11666                           	line	953
 11667                           	
 11668  02A6                     l4470:	
 11669                           ;PR29.c: 953: store_eeprom('D',day_location);
 11670  02A6  0857               	movf	(_day_location),w
 11671  02A7  00F3               	movwf	(??_clear_attendance+0)+0
 11672  02A8  0873               	movf	(??_clear_attendance+0)+0,w
 11673  02A9  00F0               	movwf	(?_store_eeprom)
 11674  02AA  3044               	movlw	(044h)
 11675  02AB  160A  158A  2633   	fcall	_store_eeprom
              120A  118A         
 11676                           	line	954
 11677                           	
 11678  02B0                     l4472:	
 11679                           ;PR29.c: 954: store_eeprom('A',day_location+1);
 11680  02B0  1283               	bcf	status, 5	;RP0=0, select bank0
 11681  02B1  1303               	bcf	status, 6	;RP1=0, select bank0
 11682  02B2  0857               	movf	(_day_location),w
 11683  02B3  3E01               	addlw	01h
 11684  02B4  00F3               	movwf	(??_clear_attendance+0)+0
 11685  02B5  0873               	movf	(??_clear_attendance+0)+0,w
 11686  02B6  00F0               	movwf	(?_store_eeprom)
 11687  02B7  3041               	movlw	(041h)
 11688  02B8  160A  158A  2633   	fcall	_store_eeprom
              120A  118A         
 11689                           	line	955
 11690                           	
 11691  02BD                     l4474:	
 11692                           ;PR29.c: 955: store_eeprom('Y',day_location+2);
 11693  02BD  1283               	bcf	status, 5	;RP0=0, select bank0
 11694  02BE  1303               	bcf	status, 6	;RP1=0, select bank0
 11695  02BF  0857               	movf	(_day_location),w
 11696  02C0  3E02               	addlw	02h
 11697  02C1  00F3               	movwf	(??_clear_attendance+0)+0
 11698  02C2  0873               	movf	(??_clear_attendance+0)+0,w
 11699  02C3  00F0               	movwf	(?_store_eeprom)
 11700  02C4  3059               	movlw	(059h)
 11701  02C5  160A  158A  2633   	fcall	_store_eeprom
              120A  118A         
 11702                           	line	956
 11703                           	
 11704  02CA                     l4476:	
 11705                           ;PR29.c: 956: store_eeprom('5',day_location+3);
 11706  02CA  1283               	bcf	status, 5	;RP0=0, select bank0
 11707  02CB  1303               	bcf	status, 6	;RP1=0, select bank0
 11708  02CC  0857               	movf	(_day_location),w
 11709  02CD  3E03               	addlw	03h
 11710  02CE  00F3               	movwf	(??_clear_attendance+0)+0
 11711  02CF  0873               	movf	(??_clear_attendance+0)+0,w
 11712  02D0  00F0               	movwf	(?_store_eeprom)
 11713  02D1  3035               	movlw	(035h)
 11714  02D2  160A  158A  2633   	fcall	_store_eeprom
              120A  118A         
 11715                           	line	957
 11716                           	
 11717  02D7                     l4478:	
 11718                           ;PR29.c: 957: store_eeprom(0xff,day_location+4);
 11719  02D7  1283               	bcf	status, 5	;RP0=0, select bank0
 11720  02D8  1303               	bcf	status, 6	;RP1=0, select bank0
 11721  02D9  0857               	movf	(_day_location),w
 11722  02DA  3E04               	addlw	04h
 11723  02DB  00F3               	movwf	(??_clear_attendance+0)+0
 11724  02DC  0873               	movf	(??_clear_attendance+0)+0,w
 11725  02DD  00F0               	movwf	(?_store_eeprom)
 11726  02DE  30FF               	movlw	(0FFh)
 11727  02DF  160A  158A  2633   	fcall	_store_eeprom
              120A  118A         
 11728                           	line	958
 11729                           	
 11730  02E4                     l4480:	
 11731                           ;PR29.c: 958: store_eeprom(0xff,day_location+5);
 11732  02E4  1283               	bcf	status, 5	;RP0=0, select bank0
 11733  02E5  1303               	bcf	status, 6	;RP1=0, select bank0
 11734  02E6  0857               	movf	(_day_location),w
 11735  02E7  3E05               	addlw	05h
 11736  02E8  00F3               	movwf	(??_clear_attendance+0)+0
 11737  02E9  0873               	movf	(??_clear_attendance+0)+0,w
 11738  02EA  00F0               	movwf	(?_store_eeprom)
 11739  02EB  30FF               	movlw	(0FFh)
 11740  02EC  160A  158A  2633   	fcall	_store_eeprom
              120A  118A         
 11741                           	line	959
 11742                           	
 11743  02F1                     l4482:	
 11744                           ;PR29.c: 959: store_eeprom(0xff,day_location+6);
 11745  02F1  1283               	bcf	status, 5	;RP0=0, select bank0
 11746  02F2  1303               	bcf	status, 6	;RP1=0, select bank0
 11747  02F3  0857               	movf	(_day_location),w
 11748  02F4  3E06               	addlw	06h
 11749  02F5  00F3               	movwf	(??_clear_attendance+0)+0
 11750  02F6  0873               	movf	(??_clear_attendance+0)+0,w
 11751  02F7  00F0               	movwf	(?_store_eeprom)
 11752  02F8  30FF               	movlw	(0FFh)
 11753  02F9  160A  158A  2633   	fcall	_store_eeprom
              120A  118A         
 11754                           	line	960
 11755                           	
 11756  02FE                     l4484:	
 11757                           ;PR29.c: 960: store_eeprom(0xff,day_location+7);
 11758  02FE  1283               	bcf	status, 5	;RP0=0, select bank0
 11759  02FF  1303               	bcf	status, 6	;RP1=0, select bank0
 11760  0300  0857               	movf	(_day_location),w
 11761  0301  3E07               	addlw	07h
 11762  0302  00F3               	movwf	(??_clear_attendance+0)+0
 11763  0303  0873               	movf	(??_clear_attendance+0)+0,w
 11764  0304  00F0               	movwf	(?_store_eeprom)
 11765  0305  30FF               	movlw	(0FFh)
 11766  0306  160A  158A  2633   	fcall	_store_eeprom
              120A  118A         
 11767                           	line	961
 11768                           	
 11769  030B                     l4486:	
 11770                           ;PR29.c: 961: store_eeprom(0xff,day_location+8);
 11771  030B  1283               	bcf	status, 5	;RP0=0, select bank0
 11772  030C  1303               	bcf	status, 6	;RP1=0, select bank0
 11773  030D  0857               	movf	(_day_location),w
 11774  030E  3E08               	addlw	08h
 11775  030F  00F3               	movwf	(??_clear_attendance+0)+0
 11776  0310  0873               	movf	(??_clear_attendance+0)+0,w
 11777  0311  00F0               	movwf	(?_store_eeprom)
 11778  0312  30FF               	movlw	(0FFh)
 11779  0313  160A  158A  2633   	fcall	_store_eeprom
              120A  118A         
 11780                           	line	962
 11781                           	
 11782  0318                     l880:	
 11783  0318  0008               	return
 11784                           	opt stack 0
 11785                           GLOBAL	__end_of_clear_attendance
 11786  0319                     	__end_of_clear_attendance:
 11787 ;; =============== function _clear_attendance ends ============
 11788                           
 11789                           	signat	_clear_attendance,88
 11790                           	global	_send_char
 11791                           psect	text576,local,class=CODE,delta=2
 11792                           global __ptext576
 11793  1D80                     __ptext576:
 11794                           
 11795 ;; *************** function _send_char *****************
 11796 ;; Defined at:
 11797 ;;		line 288 in file "C:\Users\Phang\Desktop\9.80\PR 29\PR29.c"
 11798 ;; Parameters:    Size  Location     Type
 11799 ;;  data            1    wreg     unsigned char 
 11800 ;; Auto vars:     Size  Location     Type
 11801 ;;  data            1    8[COMMON] unsigned char 
 11802 ;; Return value:  Size  Location     Type
 11803 ;;		None               void
 11804 ;; Registers used:
 11805 ;;		wreg, status,2, status,0, pclath, cstack
 11806 ;; Tracked objects:
 11807 ;;		On entry : 0/0
 11808 ;;		On exit  : 0/0
 11809 ;;		Unchanged: 0/0
 11810 ;; Data sizes:     COMMON   BANK0   BANK1   BANK3   BANK2
 11811 ;;      Params:         0       0       0       0       0
 11812 ;;      Locals:         1       0       0       0       0
 11813 ;;      Temps:          0       0       0       0       0
 11814 ;;      Totals:         1       0       0       0       0
 11815 ;;Total ram usage:        1 bytes
 11816 ;; Hardware stack levels used:    1
 11817 ;; Hardware stack levels required when called:    1
 11818 ;; This function calls:
 11819 ;;		_delay
 11820 ;; This function is called by:
 11821 ;;		_main
 11822 ;;		_send_string
 11823 ;;		_mode
 11824 ;;		_display_status
 11825 ;;		_view_attendance
 11826 ;; This function uses a non-reentrant model
 11827 ;;
 11828                           psect	text576
 11829                           	file	"C:\Users\Phang\Desktop\9.80\PR 29\PR29.c"
 11830                           	line	288
 11831                           	global	__size_of_send_char
 11832  0025                     	__size_of_send_char	equ	__end_of_send_char-_send_char
 11833                           	
 11834  1D80                     _send_char:	
 11835                           	opt	stack 4
 11836                           ; Regs used in _send_char: [wreg+status,2+status,0+pclath+cstack]
 11837                           ;send_char@data stored from wreg
 11838  1D80  00F8               	movwf	(send_char@data)
 11839                           	line	289
 11840                           	
 11841  1D81                     l4376:	
 11842                           ;PR29.c: 289: RC4=1;
 11843  1D81  1283               	bcf	status, 5	;RP0=0, select bank0
 11844  1D82  1303               	bcf	status, 6	;RP1=0, select bank0
 11845  1D83  1607               	bsf	(60/8),(60)&7
 11846                           	line	290
 11847                           	
 11848  1D84                     l4378:	
 11849                           ;PR29.c: 290: PORTB=data;
 11850  1D84  0878               	movf	(send_char@data),w
 11851  1D85  0086               	movwf	(6)	;volatile
 11852                           	line	291
 11853                           	
 11854  1D86                     l4380:	
 11855                           ;PR29.c: 291: RC5=1;
 11856  1D86  1687               	bsf	(61/8),(61)&7
 11857                           	line	292
 11858                           	
 11859  1D87                     l4382:	
 11860                           ;PR29.c: 292: delay(10);
 11861  1D87  3000               	movlw	0
 11862  1D88  00F3               	movwf	(?_delay+3)
 11863  1D89  3000               	movlw	0
 11864  1D8A  00F2               	movwf	(?_delay+2)
 11865  1D8B  3000               	movlw	0
 11866  1D8C  00F1               	movwf	(?_delay+1)
 11867  1D8D  300A               	movlw	0Ah
 11868  1D8E  00F0               	movwf	(?_delay)
 11869                           
 11870  1D8F  160A  158A  25CD   	fcall	_delay
              160A  158A         
 11871                           	line	293
 11872                           	
 11873  1D94                     l4384:	
 11874                           ;PR29.c: 293: RC5=0;
 11875  1D94  1283               	bcf	status, 5	;RP0=0, select bank0
 11876  1D95  1303               	bcf	status, 6	;RP1=0, select bank0
 11877  1D96  1287               	bcf	(61/8),(61)&7
 11878                           	line	294
 11879                           	
 11880  1D97                     l4386:	
 11881                           ;PR29.c: 294: delay(10);
 11882  1D97  3000               	movlw	0
 11883  1D98  00F3               	movwf	(?_delay+3)
 11884  1D99  3000               	movlw	0
 11885  1D9A  00F2               	movwf	(?_delay+2)
 11886  1D9B  3000               	movlw	0
 11887  1D9C  00F1               	movwf	(?_delay+1)
 11888  1D9D  300A               	movlw	0Ah
 11889  1D9E  00F0               	movwf	(?_delay)
 11890                           
 11891  1D9F  160A  158A  25CD   	fcall	_delay
              160A  158A         
 11892                           	line	295
 11893                           	
 11894  1DA4                     l660:	
 11895  1DA4  0008               	return
 11896                           	opt stack 0
 11897                           GLOBAL	__end_of_send_char
 11898  1DA5                     	__end_of_send_char:
 11899 ;; =============== function _send_char ends ============
 11900                           
 11901                           	signat	_send_char,4216
 11902                           	global	_init_attendance
 11903                           psect	text577,local,class=CODE,delta=2
 11904                           global __ptext577
 11905  086D                     __ptext577:
 11906                           
 11907 ;; *************** function _init_attendance *****************
 11908 ;; Defined at:
 11909 ;;		line 877 in file "C:\Users\Phang\Desktop\9.80\PR 29\PR29.c"
 11910 ;; Parameters:    Size  Location     Type
 11911 ;;		None
 11912 ;; Auto vars:     Size  Location     Type
 11913 ;;		None
 11914 ;; Return value:  Size  Location     Type
 11915 ;;		None               void
 11916 ;; Registers used:
 11917 ;;		wreg, status,2, status,0, pclath, cstack
 11918 ;; Tracked objects:
 11919 ;;		On entry : 0/0
 11920 ;;		On exit  : 0/0
 11921 ;;		Unchanged: 0/0
 11922 ;; Data sizes:     COMMON   BANK0   BANK1   BANK3   BANK2
 11923 ;;      Params:         0       0       0       0       0
 11924 ;;      Locals:         0       0       0       0       0
 11925 ;;      Temps:          1       0       0       0       0
 11926 ;;      Totals:         1       0       0       0       0
 11927 ;;Total ram usage:        1 bytes
 11928 ;; Hardware stack levels used:    1
 11929 ;; Hardware stack levels required when called:    1
 11930 ;; This function calls:
 11931 ;;		_store_eeprom
 11932 ;; This function is called by:
 11933 ;;		_main
 11934 ;; This function uses a non-reentrant model
 11935 ;;
 11936                           psect	text577
 11937                           	file	"C:\Users\Phang\Desktop\9.80\PR 29\PR29.c"
 11938                           	line	877
 11939                           	global	__size_of_init_attendance
 11940  0115                     	__size_of_init_attendance	equ	__end_of_init_attendance-_init_attendance
 11941                           	
 11942  086D                     _init_attendance:	
 11943                           	opt	stack 6
 11944                           ; Regs used in _init_attendance: [wreg+status,2+status,0+pclath+cstack]
 11945                           	line	878
 11946                           	
 11947  086D                     l4326:	
 11948                           ;PR29.c: 878: day_location=0x00;
 11949  086D  1003               	clrc
 11950  086E  3000               	movlw	0
 11951  086F  1803               	btfsc	status,0
 11952  0870  3001               	movlw	1
 11953  0871  1283               	bcf	status, 5	;RP0=0, select bank0
 11954  0872  1303               	bcf	status, 6	;RP1=0, select bank0
 11955  0873  00D7               	movwf	(_day_location)
 11956                           	line	879
 11957                           	
 11958  0874                     l4328:	
 11959                           ;PR29.c: 879: store_eeprom('D',day_location);
 11960  0874  0857               	movf	(_day_location),w
 11961  0875  00F3               	movwf	(??_init_attendance+0)+0
 11962  0876  0873               	movf	(??_init_attendance+0)+0,w
 11963  0877  00F0               	movwf	(?_store_eeprom)
 11964  0878  3044               	movlw	(044h)
 11965  0879  160A  158A  2633   	fcall	_store_eeprom
              120A  158A         
 11966                           	line	880
 11967                           	
 11968  087E                     l4330:	
 11969                           ;PR29.c: 880: store_eeprom('A',day_location+1);
 11970  087E  1283               	bcf	status, 5	;RP0=0, select bank0
 11971  087F  1303               	bcf	status, 6	;RP1=0, select bank0
 11972  0880  0857               	movf	(_day_location),w
 11973  0881  3E01               	addlw	01h
 11974  0882  00F3               	movwf	(??_init_attendance+0)+0
 11975  0883  0873               	movf	(??_init_attendance+0)+0,w
 11976  0884  00F0               	movwf	(?_store_eeprom)
 11977  0885  3041               	movlw	(041h)
 11978  0886  160A  158A  2633   	fcall	_store_eeprom
              120A  158A         
 11979                           	line	881
 11980                           	
 11981  088B                     l4332:	
 11982                           ;PR29.c: 881: store_eeprom('Y',day_location+2);
 11983  088B  1283               	bcf	status, 5	;RP0=0, select bank0
 11984  088C  1303               	bcf	status, 6	;RP1=0, select bank0
 11985  088D  0857               	movf	(_day_location),w
 11986  088E  3E02               	addlw	02h
 11987  088F  00F3               	movwf	(??_init_attendance+0)+0
 11988  0890  0873               	movf	(??_init_attendance+0)+0,w
 11989  0891  00F0               	movwf	(?_store_eeprom)
 11990  0892  3059               	movlw	(059h)
 11991  0893  160A  158A  2633   	fcall	_store_eeprom
              120A  158A         
 11992                           	line	882
 11993                           	
 11994  0898                     l4334:	
 11995                           ;PR29.c: 882: store_eeprom('1',day_location+3);
 11996  0898  1283               	bcf	status, 5	;RP0=0, select bank0
 11997  0899  1303               	bcf	status, 6	;RP1=0, select bank0
 11998  089A  0857               	movf	(_day_location),w
 11999  089B  3E03               	addlw	03h
 12000  089C  00F3               	movwf	(??_init_attendance+0)+0
 12001  089D  0873               	movf	(??_init_attendance+0)+0,w
 12002  089E  00F0               	movwf	(?_store_eeprom)
 12003  089F  3031               	movlw	(031h)
 12004  08A0  160A  158A  2633   	fcall	_store_eeprom
              120A  158A         
 12005                           	line	884
 12006                           	
 12007  08A5                     l4336:	
 12008                           ;PR29.c: 884: day_location=0x10;
 12009  08A5  3010               	movlw	(010h)
 12010  08A6  00F3               	movwf	(??_init_attendance+0)+0
 12011  08A7  0873               	movf	(??_init_attendance+0)+0,w
 12012  08A8  1283               	bcf	status, 5	;RP0=0, select bank0
 12013  08A9  1303               	bcf	status, 6	;RP1=0, select bank0
 12014  08AA  00D7               	movwf	(_day_location)
 12015                           	line	885
 12016                           	
 12017  08AB                     l4338:	
 12018                           ;PR29.c: 885: store_eeprom('D',day_location);
 12019  08AB  0857               	movf	(_day_location),w
 12020  08AC  00F3               	movwf	(??_init_attendance+0)+0
 12021  08AD  0873               	movf	(??_init_attendance+0)+0,w
 12022  08AE  00F0               	movwf	(?_store_eeprom)
 12023  08AF  3044               	movlw	(044h)
 12024  08B0  160A  158A  2633   	fcall	_store_eeprom
              120A  158A         
 12025                           	line	886
 12026                           	
 12027  08B5                     l4340:	
 12028                           ;PR29.c: 886: store_eeprom('A',day_location+1);
 12029  08B5  1283               	bcf	status, 5	;RP0=0, select bank0
 12030  08B6  1303               	bcf	status, 6	;RP1=0, select bank0
 12031  08B7  0857               	movf	(_day_location),w
 12032  08B8  3E01               	addlw	01h
 12033  08B9  00F3               	movwf	(??_init_attendance+0)+0
 12034  08BA  0873               	movf	(??_init_attendance+0)+0,w
 12035  08BB  00F0               	movwf	(?_store_eeprom)
 12036  08BC  3041               	movlw	(041h)
 12037  08BD  160A  158A  2633   	fcall	_store_eeprom
              120A  158A         
 12038                           	line	887
 12039                           	
 12040  08C2                     l4342:	
 12041                           ;PR29.c: 887: store_eeprom('Y',day_location+2);
 12042  08C2  1283               	bcf	status, 5	;RP0=0, select bank0
 12043  08C3  1303               	bcf	status, 6	;RP1=0, select bank0
 12044  08C4  0857               	movf	(_day_location),w
 12045  08C5  3E02               	addlw	02h
 12046  08C6  00F3               	movwf	(??_init_attendance+0)+0
 12047  08C7  0873               	movf	(??_init_attendance+0)+0,w
 12048  08C8  00F0               	movwf	(?_store_eeprom)
 12049  08C9  3059               	movlw	(059h)
 12050  08CA  160A  158A  2633   	fcall	_store_eeprom
              120A  158A         
 12051                           	line	888
 12052                           	
 12053  08CF                     l4344:	
 12054                           ;PR29.c: 888: store_eeprom('2',day_location+3);
 12055  08CF  1283               	bcf	status, 5	;RP0=0, select bank0
 12056  08D0  1303               	bcf	status, 6	;RP1=0, select bank0
 12057  08D1  0857               	movf	(_day_location),w
 12058  08D2  3E03               	addlw	03h
 12059  08D3  00F3               	movwf	(??_init_attendance+0)+0
 12060  08D4  0873               	movf	(??_init_attendance+0)+0,w
 12061  08D5  00F0               	movwf	(?_store_eeprom)
 12062  08D6  3032               	movlw	(032h)
 12063  08D7  160A  158A  2633   	fcall	_store_eeprom
              120A  158A         
 12064                           	line	890
 12065                           	
 12066  08DC                     l4346:	
 12067                           ;PR29.c: 890: day_location=0x20;
 12068  08DC  3020               	movlw	(020h)
 12069  08DD  00F3               	movwf	(??_init_attendance+0)+0
 12070  08DE  0873               	movf	(??_init_attendance+0)+0,w
 12071  08DF  1283               	bcf	status, 5	;RP0=0, select bank0
 12072  08E0  1303               	bcf	status, 6	;RP1=0, select bank0
 12073  08E1  00D7               	movwf	(_day_location)
 12074                           	line	891
 12075                           	
 12076  08E2                     l4348:	
 12077                           ;PR29.c: 891: store_eeprom('D',day_location);
 12078  08E2  0857               	movf	(_day_location),w
 12079  08E3  00F3               	movwf	(??_init_attendance+0)+0
 12080  08E4  0873               	movf	(??_init_attendance+0)+0,w
 12081  08E5  00F0               	movwf	(?_store_eeprom)
 12082  08E6  3044               	movlw	(044h)
 12083  08E7  160A  158A  2633   	fcall	_store_eeprom
              120A  158A         
 12084                           	line	892
 12085                           	
 12086  08EC                     l4350:	
 12087                           ;PR29.c: 892: store_eeprom('A',day_location+1);
 12088  08EC  1283               	bcf	status, 5	;RP0=0, select bank0
 12089  08ED  1303               	bcf	status, 6	;RP1=0, select bank0
 12090  08EE  0857               	movf	(_day_location),w
 12091  08EF  3E01               	addlw	01h
 12092  08F0  00F3               	movwf	(??_init_attendance+0)+0
 12093  08F1  0873               	movf	(??_init_attendance+0)+0,w
 12094  08F2  00F0               	movwf	(?_store_eeprom)
 12095  08F3  3041               	movlw	(041h)
 12096  08F4  160A  158A  2633   	fcall	_store_eeprom
              120A  158A         
 12097                           	line	893
 12098                           	
 12099  08F9                     l4352:	
 12100                           ;PR29.c: 893: store_eeprom('Y',day_location+2);
 12101  08F9  1283               	bcf	status, 5	;RP0=0, select bank0
 12102  08FA  1303               	bcf	status, 6	;RP1=0, select bank0
 12103  08FB  0857               	movf	(_day_location),w
 12104  08FC  3E02               	addlw	02h
 12105  08FD  00F3               	movwf	(??_init_attendance+0)+0
 12106  08FE  0873               	movf	(??_init_attendance+0)+0,w
 12107  08FF  00F0               	movwf	(?_store_eeprom)
 12108  0900  3059               	movlw	(059h)
 12109  0901  160A  158A  2633   	fcall	_store_eeprom
              120A  158A         
 12110                           	line	894
 12111                           	
 12112  0906                     l4354:	
 12113                           ;PR29.c: 894: store_eeprom('3',day_location+3);
 12114  0906  1283               	bcf	status, 5	;RP0=0, select bank0
 12115  0907  1303               	bcf	status, 6	;RP1=0, select bank0
 12116  0908  0857               	movf	(_day_location),w
 12117  0909  3E03               	addlw	03h
 12118  090A  00F3               	movwf	(??_init_attendance+0)+0
 12119  090B  0873               	movf	(??_init_attendance+0)+0,w
 12120  090C  00F0               	movwf	(?_store_eeprom)
 12121  090D  3033               	movlw	(033h)
 12122  090E  160A  158A  2633   	fcall	_store_eeprom
              120A  158A         
 12123                           	line	896
 12124                           	
 12125  0913                     l4356:	
 12126                           ;PR29.c: 896: day_location=0x30;
 12127  0913  3030               	movlw	(030h)
 12128  0914  00F3               	movwf	(??_init_attendance+0)+0
 12129  0915  0873               	movf	(??_init_attendance+0)+0,w
 12130  0916  1283               	bcf	status, 5	;RP0=0, select bank0
 12131  0917  1303               	bcf	status, 6	;RP1=0, select bank0
 12132  0918  00D7               	movwf	(_day_location)
 12133                           	line	897
 12134                           	
 12135  0919                     l4358:	
 12136                           ;PR29.c: 897: store_eeprom('D',day_location);
 12137  0919  0857               	movf	(_day_location),w
 12138  091A  00F3               	movwf	(??_init_attendance+0)+0
 12139  091B  0873               	movf	(??_init_attendance+0)+0,w
 12140  091C  00F0               	movwf	(?_store_eeprom)
 12141  091D  3044               	movlw	(044h)
 12142  091E  160A  158A  2633   	fcall	_store_eeprom
              120A  158A         
 12143                           	line	898
 12144                           	
 12145  0923                     l4360:	
 12146                           ;PR29.c: 898: store_eeprom('A',day_location+1);
 12147  0923  1283               	bcf	status, 5	;RP0=0, select bank0
 12148  0924  1303               	bcf	status, 6	;RP1=0, select bank0
 12149  0925  0857               	movf	(_day_location),w
 12150  0926  3E01               	addlw	01h
 12151  0927  00F3               	movwf	(??_init_attendance+0)+0
 12152  0928  0873               	movf	(??_init_attendance+0)+0,w
 12153  0929  00F0               	movwf	(?_store_eeprom)
 12154  092A  3041               	movlw	(041h)
 12155  092B  160A  158A  2633   	fcall	_store_eeprom
              120A  158A         
 12156                           	line	899
 12157                           	
 12158  0930                     l4362:	
 12159                           ;PR29.c: 899: store_eeprom('Y',day_location+2);
 12160  0930  1283               	bcf	status, 5	;RP0=0, select bank0
 12161  0931  1303               	bcf	status, 6	;RP1=0, select bank0
 12162  0932  0857               	movf	(_day_location),w
 12163  0933  3E02               	addlw	02h
 12164  0934  00F3               	movwf	(??_init_attendance+0)+0
 12165  0935  0873               	movf	(??_init_attendance+0)+0,w
 12166  0936  00F0               	movwf	(?_store_eeprom)
 12167  0937  3059               	movlw	(059h)
 12168  0938  160A  158A  2633   	fcall	_store_eeprom
              120A  158A         
 12169                           	line	900
 12170                           	
 12171  093D                     l4364:	
 12172                           ;PR29.c: 900: store_eeprom('4',day_location+3);
 12173  093D  1283               	bcf	status, 5	;RP0=0, select bank0
 12174  093E  1303               	bcf	status, 6	;RP1=0, select bank0
 12175  093F  0857               	movf	(_day_location),w
 12176  0940  3E03               	addlw	03h
 12177  0941  00F3               	movwf	(??_init_attendance+0)+0
 12178  0942  0873               	movf	(??_init_attendance+0)+0,w
 12179  0943  00F0               	movwf	(?_store_eeprom)
 12180  0944  3034               	movlw	(034h)
 12181  0945  160A  158A  2633   	fcall	_store_eeprom
              120A  158A         
 12182                           	line	902
 12183                           	
 12184  094A                     l4366:	
 12185                           ;PR29.c: 902: day_location=0x40;
 12186  094A  3040               	movlw	(040h)
 12187  094B  00F3               	movwf	(??_init_attendance+0)+0
 12188  094C  0873               	movf	(??_init_attendance+0)+0,w
 12189  094D  1283               	bcf	status, 5	;RP0=0, select bank0
 12190  094E  1303               	bcf	status, 6	;RP1=0, select bank0
 12191  094F  00D7               	movwf	(_day_location)
 12192                           	line	903
 12193                           	
 12194  0950                     l4368:	
 12195                           ;PR29.c: 903: store_eeprom('D',day_location);
 12196  0950  0857               	movf	(_day_location),w
 12197  0951  00F3               	movwf	(??_init_attendance+0)+0
 12198  0952  0873               	movf	(??_init_attendance+0)+0,w
 12199  0953  00F0               	movwf	(?_store_eeprom)
 12200  0954  3044               	movlw	(044h)
 12201  0955  160A  158A  2633   	fcall	_store_eeprom
              120A  158A         
 12202                           	line	904
 12203                           	
 12204  095A                     l4370:	
 12205                           ;PR29.c: 904: store_eeprom('A',day_location+1);
 12206  095A  1283               	bcf	status, 5	;RP0=0, select bank0
 12207  095B  1303               	bcf	status, 6	;RP1=0, select bank0
 12208  095C  0857               	movf	(_day_location),w
 12209  095D  3E01               	addlw	01h
 12210  095E  00F3               	movwf	(??_init_attendance+0)+0
 12211  095F  0873               	movf	(??_init_attendance+0)+0,w
 12212  0960  00F0               	movwf	(?_store_eeprom)
 12213  0961  3041               	movlw	(041h)
 12214  0962  160A  158A  2633   	fcall	_store_eeprom
              120A  158A         
 12215                           	line	905
 12216                           	
 12217  0967                     l4372:	
 12218                           ;PR29.c: 905: store_eeprom('Y',day_location+2);
 12219  0967  1283               	bcf	status, 5	;RP0=0, select bank0
 12220  0968  1303               	bcf	status, 6	;RP1=0, select bank0
 12221  0969  0857               	movf	(_day_location),w
 12222  096A  3E02               	addlw	02h
 12223  096B  00F3               	movwf	(??_init_attendance+0)+0
 12224  096C  0873               	movf	(??_init_attendance+0)+0,w
 12225  096D  00F0               	movwf	(?_store_eeprom)
 12226  096E  3059               	movlw	(059h)
 12227  096F  160A  158A  2633   	fcall	_store_eeprom
              120A  158A         
 12228                           	line	906
 12229                           	
 12230  0974                     l4374:	
 12231                           ;PR29.c: 906: store_eeprom('5',day_location+3);
 12232  0974  1283               	bcf	status, 5	;RP0=0, select bank0
 12233  0975  1303               	bcf	status, 6	;RP1=0, select bank0
 12234  0976  0857               	movf	(_day_location),w
 12235  0977  3E03               	addlw	03h
 12236  0978  00F3               	movwf	(??_init_attendance+0)+0
 12237  0979  0873               	movf	(??_init_attendance+0)+0,w
 12238  097A  00F0               	movwf	(?_store_eeprom)
 12239  097B  3035               	movlw	(035h)
 12240  097C  160A  158A  2633   	fcall	_store_eeprom
              120A  158A         
 12241                           	line	908
 12242                           	
 12243  0981                     l877:	
 12244  0981  0008               	return
 12245                           	opt stack 0
 12246                           GLOBAL	__end_of_init_attendance
 12247  0982                     	__end_of_init_attendance:
 12248 ;; =============== function _init_attendance ends ============
 12249                           
 12250                           	signat	_init_attendance,88
 12251                           	global	_receive_reply_nodisplay
 12252                           psect	text578,local,class=CODE,delta=2
 12253                           global __ptext578
 12254  1D5B                     __ptext578:
 12255                           
 12256 ;; *************** function _receive_reply_nodisplay *****************
 12257 ;; Defined at:
 12258 ;;		line 741 in file "C:\Users\Phang\Desktop\9.80\PR 29\PR29.c"
 12259 ;; Parameters:    Size  Location     Type
 12260 ;;		None
 12261 ;; Auto vars:     Size  Location     Type
 12262 ;;  i               1    3[COMMON] unsigned char 
 12263 ;; Return value:  Size  Location     Type
 12264 ;;		None               void
 12265 ;; Registers used:
 12266 ;;		wreg, fsr0l, fsr0h, status,2, status,0, pclath, cstack
 12267 ;; Tracked objects:
 12268 ;;		On entry : 0/0
 12269 ;;		On exit  : 0/0
 12270 ;;		Unchanged: 0/0
 12271 ;; Data sizes:     COMMON   BANK0   BANK1   BANK3   BANK2
 12272 ;;      Params:         0       0       0       0       0
 12273 ;;      Locals:         1       0       0       0       0
 12274 ;;      Temps:          1       0       0       0       0
 12275 ;;      Totals:         2       0       0       0       0
 12276 ;;Total ram usage:        2 bytes
 12277 ;; Hardware stack levels used:    1
 12278 ;; Hardware stack levels required when called:    1
 12279 ;; This function calls:
 12280 ;;		_uart_receive
 12281 ;; This function is called by:
 12282 ;;		_main
 12283 ;; This function uses a non-reentrant model
 12284 ;;
 12285                           psect	text578
 12286                           	file	"C:\Users\Phang\Desktop\9.80\PR 29\PR29.c"
 12287                           	line	741
 12288                           	global	__size_of_receive_reply_nodisplay
 12289  0025                     	__size_of_receive_reply_nodisplay	equ	__end_of_receive_reply_nodisplay-_receive_reply_n
                                 odisplay
 12290                           	
 12291  1D5B                     _receive_reply_nodisplay:	
 12292                           	opt	stack 6
 12293                           ; Regs used in _receive_reply_nodisplay: [wreg-fsr0h+status,2+status,0+pclath+cstack]
 12294                           	line	743
 12295                           	
 12296  1D5B                     l4314:	
 12297                           ;PR29.c: 742: unsigned char i;
 12298                           ;PR29.c: 743: for(i=0;i<8;i++)
 12299  1D5B  1003               	clrc
 12300  1D5C  3000               	movlw	0
 12301  1D5D  1803               	btfsc	status,0
 12302  1D5E  3001               	movlw	1
 12303  1D5F  00F3               	movwf	(receive_reply_nodisplay@i)
 12304                           	
 12305  1D60                     l4316:	
 12306  1D60  3008               	movlw	(08h)
 12307  1D61  0273               	subwf	(receive_reply_nodisplay@i),w
 12308  1D62  1C03               	skipc
 12309  1D63  2D65               	goto	u4081
 12310  1D64  2D66               	goto	u4080
 12311  1D65                     u4081:
 12312  1D65  2D68               	goto	l4320
 12313  1D66                     u4080:
 12314  1D66  2D7F               	goto	l827
 12315                           	
 12316  1D67                     l4318:	
 12317  1D67  2D7F               	goto	l827
 12318                           	line	744
 12319                           	
 12320  1D68                     l825:	
 12321                           	
 12322  1D68                     l4320:	
 12323                           ;PR29.c: 744: array_resp[i]=uart_receive();
 12324  1D68  160A  158A  24CA   	fcall	_uart_receive
              160A  158A         
 12325  1D6D  00F2               	movwf	(??_receive_reply_nodisplay+0)+0
 12326  1D6E  0873               	movf	(receive_reply_nodisplay@i),w
 12327  1D6F  3E4E               	addlw	_array_resp&0ffh
 12328  1D70  0084               	movwf	fsr0
 12329  1D71  0872               	movf	(??_receive_reply_nodisplay+0)+0,w
 12330  1D72  1383               	bcf	status, 7	;select IRP bank0
 12331  1D73  0080               	movwf	indf
 12332                           	line	743
 12333                           	
 12334  1D74                     l4322:	
 12335  1D74  3001               	movlw	(01h)
 12336  1D75  00F2               	movwf	(??_receive_reply_nodisplay+0)+0
 12337  1D76  0872               	movf	(??_receive_reply_nodisplay+0)+0,w
 12338  1D77  07F3               	addwf	(receive_reply_nodisplay@i),f
 12339                           	
 12340  1D78                     l4324:	
 12341  1D78  3008               	movlw	(08h)
 12342  1D79  0273               	subwf	(receive_reply_nodisplay@i),w
 12343  1D7A  1C03               	skipc
 12344  1D7B  2D7D               	goto	u4091
 12345  1D7C  2D7E               	goto	u4090
 12346  1D7D                     u4091:
 12347  1D7D  2D68               	goto	l4320
 12348  1D7E                     u4090:
 12349  1D7E  2D7F               	goto	l827
 12350                           	
 12351  1D7F                     l826:	
 12352                           	line	745
 12353                           	
 12354  1D7F                     l827:	
 12355  1D7F  0008               	return
 12356                           	opt stack 0
 12357                           GLOBAL	__end_of_receive_reply_nodisplay
 12358  1D80                     	__end_of_receive_reply_nodisplay:
 12359 ;; =============== function _receive_reply_nodisplay ends ============
 12360                           
 12361                           	signat	_receive_reply_nodisplay,88
 12362                           	global	_send_cmd
 12363                           psect	text579,local,class=CODE,delta=2
 12364                           global __ptext579
 12365  1E6C                     __ptext579:
 12366                           
 12367 ;; *************** function _send_cmd *****************
 12368 ;; Defined at:
 12369 ;;		line 335 in file "C:\Users\Phang\Desktop\9.80\PR 29\PR29.c"
 12370 ;; Parameters:    Size  Location     Type
 12371 ;;  CMD             1    wreg     unsigned char 
 12372 ;;  P1              1    1[COMMON] unsigned char 
 12373 ;;  P2              1    2[COMMON] unsigned char 
 12374 ;;  P3              1    3[COMMON] unsigned char 
 12375 ;; Auto vars:     Size  Location     Type
 12376 ;;  CMD             1    6[COMMON] unsigned char 
 12377 ;;  CHK             1    5[COMMON] unsigned char 
 12378 ;; Return value:  Size  Location     Type
 12379 ;;		None               void
 12380 ;; Registers used:
 12381 ;;		wreg, status,2, status,0, pclath, cstack
 12382 ;; Tracked objects:
 12383 ;;		On entry : 0/0
 12384 ;;		On exit  : 0/0
 12385 ;;		Unchanged: 0/0
 12386 ;; Data sizes:     COMMON   BANK0   BANK1   BANK3   BANK2
 12387 ;;      Params:         3       0       0       0       0
 12388 ;;      Locals:         2       0       0       0       0
 12389 ;;      Temps:          1       0       0       0       0
 12390 ;;      Totals:         6       0       0       0       0
 12391 ;;Total ram usage:        6 bytes
 12392 ;; Hardware stack levels used:    1
 12393 ;; Hardware stack levels required when called:    1
 12394 ;; This function calls:
 12395 ;;		_uart_send
 12396 ;; This function is called by:
 12397 ;;		_main
 12398 ;;		_mode
 12399 ;;		_CheckAdmin
 12400 ;;		_AddNew
 12401 ;;		_ResetAdmin
 12402 ;; This function uses a non-reentrant model
 12403 ;;
 12404                           psect	text579
 12405                           	file	"C:\Users\Phang\Desktop\9.80\PR 29\PR29.c"
 12406                           	line	335
 12407                           	global	__size_of_send_cmd
 12408  0039                     	__size_of_send_cmd	equ	__end_of_send_cmd-_send_cmd
 12409                           	
 12410  1E6C                     _send_cmd:	
 12411                           	opt	stack 4
 12412                           ; Regs used in _send_cmd: [wreg+status,2+status,0+pclath+cstack]
 12413                           ;send_cmd@CMD stored from wreg
 12414                           	line	337
 12415  1E6C  00F6               	movwf	(send_cmd@CMD)
 12416                           	
 12417  1E6D                     l4296:	
 12418                           ;PR29.c: 336: unsigned char CHK;
 12419                           ;PR29.c: 337: CHK = CMD^P1^P2^P3^0x00;
 12420  1E6D  0876               	movf	(send_cmd@CMD),w
 12421  1E6E  0671               	xorwf	(send_cmd@P1),w
 12422  1E6F  0672               	xorwf	(send_cmd@P2),w
 12423  1E70  0673               	xorwf	(send_cmd@P3),w
 12424  1E71  00F4               	movwf	(??_send_cmd+0)+0
 12425  1E72  0874               	movf	(??_send_cmd+0)+0,w
 12426  1E73  00F5               	movwf	(send_cmd@CHK)
 12427                           	line	338
 12428                           	
 12429  1E74                     l4298:	
 12430                           ;PR29.c: 338: uart_send(0xF5);
 12431  1E74  30F5               	movlw	(0F5h)
 12432  1E75  160A  158A  24BE   	fcall	_uart_send
              160A  158A         
 12433                           	line	339
 12434                           	
 12435  1E7A                     l4300:	
 12436                           ;PR29.c: 339: uart_send(CMD);
 12437  1E7A  0876               	movf	(send_cmd@CMD),w
 12438  1E7B  160A  158A  24BE   	fcall	_uart_send
              160A  158A         
 12439                           	line	340
 12440                           	
 12441  1E80                     l4302:	
 12442                           ;PR29.c: 340: uart_send(P1);
 12443  1E80  0871               	movf	(send_cmd@P1),w
 12444  1E81  160A  158A  24BE   	fcall	_uart_send
              160A  158A         
 12445                           	line	341
 12446                           	
 12447  1E86                     l4304:	
 12448                           ;PR29.c: 341: uart_send(P2);
 12449  1E86  0872               	movf	(send_cmd@P2),w
 12450  1E87  160A  158A  24BE   	fcall	_uart_send
              160A  158A         
 12451                           	line	342
 12452                           	
 12453  1E8C                     l4306:	
 12454                           ;PR29.c: 342: uart_send(P3);
 12455  1E8C  0873               	movf	(send_cmd@P3),w
 12456  1E8D  160A  158A  24BE   	fcall	_uart_send
              160A  158A         
 12457                           	line	343
 12458                           	
 12459  1E92                     l4308:	
 12460                           ;PR29.c: 343: uart_send(0x00);
 12461  1E92  3000               	movlw	(0)
 12462  1E93  160A  158A  24BE   	fcall	_uart_send
              160A  158A         
 12463                           	line	344
 12464                           	
 12465  1E98                     l4310:	
 12466                           ;PR29.c: 344: uart_send(CHK);
 12467  1E98  0875               	movf	(send_cmd@CHK),w
 12468  1E99  160A  158A  24BE   	fcall	_uart_send
              160A  158A         
 12469                           	line	345
 12470                           	
 12471  1E9E                     l4312:	
 12472                           ;PR29.c: 345: uart_send(0xF5);
 12473  1E9E  30F5               	movlw	(0F5h)
 12474  1E9F  160A  158A  24BE   	fcall	_uart_send
              160A  158A         
 12475                           	line	346
 12476                           	
 12477  1EA4                     l685:	
 12478  1EA4  0008               	return
 12479                           	opt stack 0
 12480                           GLOBAL	__end_of_send_cmd
 12481  1EA5                     	__end_of_send_cmd:
 12482 ;; =============== function _send_cmd ends ============
 12483                           
 12484                           	signat	_send_cmd,16504
 12485                           	global	_send_config
 12486                           psect	text580,local,class=CODE,delta=2
 12487                           global __ptext580
 12488  1D36                     __ptext580:
 12489                           
 12490 ;; *************** function _send_config *****************
 12491 ;; Defined at:
 12492 ;;		line 271 in file "C:\Users\Phang\Desktop\9.80\PR 29\PR29.c"
 12493 ;; Parameters:    Size  Location     Type
 12494 ;;  data            1    wreg     unsigned char 
 12495 ;; Auto vars:     Size  Location     Type
 12496 ;;  data            1    8[COMMON] unsigned char 
 12497 ;; Return value:  Size  Location     Type
 12498 ;;		None               void
 12499 ;; Registers used:
 12500 ;;		wreg, status,2, status,0, pclath, cstack
 12501 ;; Tracked objects:
 12502 ;;		On entry : 0/0
 12503 ;;		On exit  : 0/0
 12504 ;;		Unchanged: 0/0
 12505 ;; Data sizes:     COMMON   BANK0   BANK1   BANK3   BANK2
 12506 ;;      Params:         0       0       0       0       0
 12507 ;;      Locals:         1       0       0       0       0
 12508 ;;      Temps:          0       0       0       0       0
 12509 ;;      Totals:         1       0       0       0       0
 12510 ;;Total ram usage:        1 bytes
 12511 ;; Hardware stack levels used:    1
 12512 ;; Hardware stack levels required when called:    1
 12513 ;; This function calls:
 12514 ;;		_delay
 12515 ;; This function is called by:
 12516 ;;		_main
 12517 ;;		_lcd_goto
 12518 ;;		_lcd_clr
 12519 ;; This function uses a non-reentrant model
 12520 ;;
 12521                           psect	text580
 12522                           	file	"C:\Users\Phang\Desktop\9.80\PR 29\PR29.c"
 12523                           	line	271
 12524                           	global	__size_of_send_config
 12525  0025                     	__size_of_send_config	equ	__end_of_send_config-_send_config
 12526                           	
 12527  1D36                     _send_config:	
 12528                           	opt	stack 3
 12529                           ; Regs used in _send_config: [wreg+status,2+status,0+pclath+cstack]
 12530                           ;send_config@data stored from wreg
 12531  1D36  00F8               	movwf	(send_config@data)
 12532                           	line	272
 12533                           	
 12534  1D37                     l4284:	
 12535                           ;PR29.c: 272: RC4=0;
 12536  1D37  1283               	bcf	status, 5	;RP0=0, select bank0
 12537  1D38  1303               	bcf	status, 6	;RP1=0, select bank0
 12538  1D39  1207               	bcf	(60/8),(60)&7
 12539                           	line	273
 12540                           	
 12541  1D3A                     l4286:	
 12542                           ;PR29.c: 273: PORTB=data;
 12543  1D3A  0878               	movf	(send_config@data),w
 12544  1D3B  0086               	movwf	(6)	;volatile
 12545                           	line	274
 12546                           	
 12547  1D3C                     l4288:	
 12548                           ;PR29.c: 274: RC5=1;
 12549  1D3C  1687               	bsf	(61/8),(61)&7
 12550                           	line	275
 12551                           	
 12552  1D3D                     l4290:	
 12553                           ;PR29.c: 275: delay(50);
 12554  1D3D  3000               	movlw	0
 12555  1D3E  00F3               	movwf	(?_delay+3)
 12556  1D3F  3000               	movlw	0
 12557  1D40  00F2               	movwf	(?_delay+2)
 12558  1D41  3000               	movlw	0
 12559  1D42  00F1               	movwf	(?_delay+1)
 12560  1D43  3032               	movlw	032h
 12561  1D44  00F0               	movwf	(?_delay)
 12562                           
 12563  1D45  160A  158A  25CD   	fcall	_delay
              160A  158A         
 12564                           	line	276
 12565                           	
 12566  1D4A                     l4292:	
 12567                           ;PR29.c: 276: RC5=0;
 12568  1D4A  1283               	bcf	status, 5	;RP0=0, select bank0
 12569  1D4B  1303               	bcf	status, 6	;RP1=0, select bank0
 12570  1D4C  1287               	bcf	(61/8),(61)&7
 12571                           	line	277
 12572                           	
 12573  1D4D                     l4294:	
 12574                           ;PR29.c: 277: delay(50);
 12575  1D4D  3000               	movlw	0
 12576  1D4E  00F3               	movwf	(?_delay+3)
 12577  1D4F  3000               	movlw	0
 12578  1D50  00F2               	movwf	(?_delay+2)
 12579  1D51  3000               	movlw	0
 12580  1D52  00F1               	movwf	(?_delay+1)
 12581  1D53  3032               	movlw	032h
 12582  1D54  00F0               	movwf	(?_delay)
 12583                           
 12584  1D55  160A  158A  25CD   	fcall	_delay
              160A  158A         
 12585                           	line	278
 12586                           	
 12587  1D5A                     l652:	
 12588  1D5A  0008               	return
 12589                           	opt stack 0
 12590                           GLOBAL	__end_of_send_config
 12591  1D5B                     	__end_of_send_config:
 12592 ;; =============== function _send_config ends ============
 12593                           
 12594                           	signat	_send_config,4216
 12595                           	global	_uart_receive
 12596                           psect	text581,local,class=CODE,delta=2
 12597                           global __ptext581
 12598  1CCA                     __ptext581:
 12599                           
 12600 ;; *************** function _uart_receive *****************
 12601 ;; Defined at:
 12602 ;;		line 350 in file "C:\Users\Phang\Desktop\9.80\PR 29\PR29.c"
 12603 ;; Parameters:    Size  Location     Type
 12604 ;;		None
 12605 ;; Auto vars:     Size  Location     Type
 12606 ;;  rec_data        1    1[COMMON] unsigned char 
 12607 ;; Return value:  Size  Location     Type
 12608 ;;                  1    wreg      unsigned char 
 12609 ;; Registers used:
 12610 ;;		wreg
 12611 ;; Tracked objects:
 12612 ;;		On entry : 0/0
 12613 ;;		On exit  : 0/0
 12614 ;;		Unchanged: 0/0
 12615 ;; Data sizes:     COMMON   BANK0   BANK1   BANK3   BANK2
 12616 ;;      Params:         0       0       0       0       0
 12617 ;;      Locals:         1       0       0       0       0
 12618 ;;      Temps:          1       0       0       0       0
 12619 ;;      Totals:         2       0       0       0       0
 12620 ;;Total ram usage:        2 bytes
 12621 ;; Hardware stack levels used:    1
 12622 ;; This function calls:
 12623 ;;		Nothing
 12624 ;; This function is called by:
 12625 ;;		_receive_reply
 12626 ;;		_receive_reply_nodisplay
 12627 ;; This function uses a non-reentrant model
 12628 ;;
 12629                           psect	text581
 12630                           	file	"C:\Users\Phang\Desktop\9.80\PR 29\PR29.c"
 12631                           	line	350
 12632                           	global	__size_of_uart_receive
 12633  000F                     	__size_of_uart_receive	equ	__end_of_uart_receive-_uart_receive
 12634                           	
 12635  1CCA                     _uart_receive:	
 12636                           	opt	stack 4
 12637                           ; Regs used in _uart_receive: [wreg]
 12638                           	line	352
 12639                           	
 12640  1CCA                     l4278:	
 12641                           ;PR29.c: 351: unsigned char rec_data;
 12642                           ;PR29.c: 352: while(RCIF==0);
 12643  1CCA  2CCB               	goto	l688
 12644                           	
 12645  1CCB                     l689:	
 12646                           	
 12647  1CCB                     l688:	
 12648  1CCB  1283               	bcf	status, 5	;RP0=0, select bank0
 12649  1CCC  1303               	bcf	status, 6	;RP1=0, select bank0
 12650  1CCD  1E8C               	btfss	(101/8),(101)&7
 12651  1CCE  2CD0               	goto	u4071
 12652  1CCF  2CD1               	goto	u4070
 12653  1CD0                     u4071:
 12654  1CD0  2CCB               	goto	l688
 12655  1CD1                     u4070:
 12656  1CD1  2CD2               	goto	l4280
 12657                           	
 12658  1CD2                     l690:	
 12659                           	line	353
 12660                           	
 12661  1CD2                     l4280:	
 12662                           ;PR29.c: 353: rec_data=RCREG;
 12663  1CD2  081A               	movf	(26),w	;volatile
 12664  1CD3  00F0               	movwf	(??_uart_receive+0)+0
 12665  1CD4  0870               	movf	(??_uart_receive+0)+0,w
 12666  1CD5  00F1               	movwf	(uart_receive@rec_data)
 12667                           	line	354
 12668                           ;PR29.c: 354: return rec_data;
 12669  1CD6  0871               	movf	(uart_receive@rec_data),w
 12670  1CD7  2CD8               	goto	l691
 12671                           	
 12672  1CD8                     l4282:	
 12673                           	line	355
 12674                           	
 12675  1CD8                     l691:	
 12676  1CD8  0008               	return
 12677                           	opt stack 0
 12678                           GLOBAL	__end_of_uart_receive
 12679  1CD9                     	__end_of_uart_receive:
 12680 ;; =============== function _uart_receive ends ============
 12681                           
 12682                           	signat	_uart_receive,89
 12683                           	global	_uart_send
 12684                           psect	text582,local,class=CODE,delta=2
 12685                           global __ptext582
 12686  1CBE                     __ptext582:
 12687                           
 12688 ;; *************** function _uart_send *****************
 12689 ;; Defined at:
 12690 ;;		line 328 in file "C:\Users\Phang\Desktop\9.80\PR 29\PR29.c"
 12691 ;; Parameters:    Size  Location     Type
 12692 ;;  data            1    wreg     unsigned char 
 12693 ;; Auto vars:     Size  Location     Type
 12694 ;;  data            1    0[COMMON] unsigned char 
 12695 ;; Return value:  Size  Location     Type
 12696 ;;		None               void
 12697 ;; Registers used:
 12698 ;;		wreg
 12699 ;; Tracked objects:
 12700 ;;		On entry : 0/0
 12701 ;;		On exit  : 0/0
 12702 ;;		Unchanged: 0/0
 12703 ;; Data sizes:     COMMON   BANK0   BANK1   BANK3   BANK2
 12704 ;;      Params:         0       0       0       0       0
 12705 ;;      Locals:         1       0       0       0       0
 12706 ;;      Temps:          0       0       0       0       0
 12707 ;;      Totals:         1       0       0       0       0
 12708 ;;Total ram usage:        1 bytes
 12709 ;; Hardware stack levels used:    1
 12710 ;; This function calls:
 12711 ;;		Nothing
 12712 ;; This function is called by:
 12713 ;;		_send_cmd
 12714 ;; This function uses a non-reentrant model
 12715 ;;
 12716                           psect	text582
 12717                           	file	"C:\Users\Phang\Desktop\9.80\PR 29\PR29.c"
 12718                           	line	328
 12719                           	global	__size_of_uart_send
 12720  000C                     	__size_of_uart_send	equ	__end_of_uart_send-_uart_send
 12721                           	
 12722  1CBE                     _uart_send:	
 12723                           	opt	stack 4
 12724                           ; Regs used in _uart_send: [wreg]
 12725                           ;uart_send@data stored from wreg
 12726  1CBE  00F0               	movwf	(uart_send@data)
 12727                           	line	329
 12728                           	
 12729  1CBF                     l4274:	
 12730                           ;PR29.c: 329: while(TXIF==0);
 12731  1CBF  2CC0               	goto	l679
 12732                           	
 12733  1CC0                     l680:	
 12734                           	
 12735  1CC0                     l679:	
 12736  1CC0  1283               	bcf	status, 5	;RP0=0, select bank0
 12737  1CC1  1303               	bcf	status, 6	;RP1=0, select bank0
 12738  1CC2  1E0C               	btfss	(100/8),(100)&7
 12739  1CC3  2CC5               	goto	u4061
 12740  1CC4  2CC6               	goto	u4060
 12741  1CC5                     u4061:
 12742  1CC5  2CC0               	goto	l679
 12743  1CC6                     u4060:
 12744  1CC6  2CC7               	goto	l4276
 12745                           	
 12746  1CC7                     l681:	
 12747                           	line	330
 12748                           	
 12749  1CC7                     l4276:	
 12750                           ;PR29.c: 330: TXREG=data;
 12751  1CC7  0870               	movf	(uart_send@data),w
 12752  1CC8  0099               	movwf	(25)	;volatile
 12753                           	line	331
 12754                           	
 12755  1CC9                     l682:	
 12756  1CC9  0008               	return
 12757                           	opt stack 0
 12758                           GLOBAL	__end_of_uart_send
 12759  1CCA                     	__end_of_uart_send:
 12760 ;; =============== function _uart_send ends ============
 12761                           
 12762                           	signat	_uart_send,4216
 12763                           	global	_store_eeprom
 12764                           psect	text583,local,class=CODE,delta=2
 12765                           global __ptext583
 12766  1E33                     __ptext583:
 12767                           
 12768 ;; *************** function _store_eeprom *****************
 12769 ;; Defined at:
 12770 ;;		line 796 in file "C:\Users\Phang\Desktop\9.80\PR 29\PR29.c"
 12771 ;; Parameters:    Size  Location     Type
 12772 ;;  data            1    wreg     unsigned char 
 12773 ;;  location        1    0[COMMON] unsigned char 
 12774 ;; Auto vars:     Size  Location     Type
 12775 ;;  data            1    2[COMMON] unsigned char 
 12776 ;; Return value:  Size  Location     Type
 12777 ;;		None               void
 12778 ;; Registers used:
 12779 ;;		wreg, status,2, status,0
 12780 ;; Tracked objects:
 12781 ;;		On entry : 0/0
 12782 ;;		On exit  : 0/0
 12783 ;;		Unchanged: 0/0
 12784 ;; Data sizes:     COMMON   BANK0   BANK1   BANK3   BANK2
 12785 ;;      Params:         1       0       0       0       0
 12786 ;;      Locals:         1       0       0       0       0
 12787 ;;      Temps:          1       0       0       0       0
 12788 ;;      Totals:         3       0       0       0       0
 12789 ;;Total ram usage:        3 bytes
 12790 ;; Hardware stack levels used:    1
 12791 ;; This function calls:
 12792 ;;		Nothing
 12793 ;; This function is called by:
 12794 ;;		_main
 12795 ;;		_mode
 12796 ;;		_init_attendance
 12797 ;;		_clear_attendance
 12798 ;; This function uses a non-reentrant model
 12799 ;;
 12800                           psect	text583
 12801                           	file	"C:\Users\Phang\Desktop\9.80\PR 29\PR29.c"
 12802                           	line	796
 12803                           	global	__size_of_store_eeprom
 12804  0039                     	__size_of_store_eeprom	equ	__end_of_store_eeprom-_store_eeprom
 12805                           	
 12806  1E33                     _store_eeprom:	
 12807                           	opt	stack 5
 12808                           ; Regs used in _store_eeprom: [wreg+status,2+status,0]
 12809                           ;store_eeprom@data stored from wreg
 12810  1E33  00F2               	movwf	(store_eeprom@data)
 12811                           	line	797
 12812                           ;PR29.c: 797: do{ while(WR)continue;EEADR=(location);EEDATA=(data); EECON1&=0x3F;CARRY=0
                                 ;if(GIE)CARRY=1;GIE=0; WREN=1;EECON2=0x55;EECON2=0xAA;WR=1;WREN=0; if(CARRY)GIE=1; }whil
                                 e(0);
 12813                           	
 12814  1E34                     l838:	
 12815  1E34  2E35               	goto	l839
 12816                           	
 12817  1E35                     l840:	
 12818                           	
 12819  1E35                     l839:	
 12820  1E35  1683               	bsf	status, 5	;RP0=1, select bank3
 12821  1E36  1703               	bsf	status, 6	;RP1=1, select bank3
 12822  1E37  188C               	btfsc	(3169/8)^0180h,(3169)&7
 12823  1E38  2E3A               	goto	u4021
 12824  1E39  2E3B               	goto	u4020
 12825  1E3A                     u4021:
 12826  1E3A  2E35               	goto	l839
 12827  1E3B                     u4020:
 12828  1E3B  2E3C               	goto	l4254
 12829                           	
 12830  1E3C                     l841:	
 12831                           	
 12832  1E3C                     l4254:	
 12833  1E3C  0870               	movf	(store_eeprom@location),w
 12834  1E3D  1283               	bcf	status, 5	;RP0=0, select bank2
 12835  1E3E  1703               	bsf	status, 6	;RP1=1, select bank2
 12836  1E3F  008D               	movwf	(269)^0100h	;volatile
 12837  1E40  0872               	movf	(store_eeprom@data),w
 12838  1E41  008C               	movwf	(268)^0100h	;volatile
 12839                           	
 12840  1E42                     l4256:	
 12841  1E42  303F               	movlw	(03Fh)
 12842  1E43  00F1               	movwf	(??_store_eeprom+0)+0
 12843  1E44  0871               	movf	(??_store_eeprom+0)+0,w
 12844  1E45  1683               	bsf	status, 5	;RP0=1, select bank3
 12845  1E46  1703               	bsf	status, 6	;RP1=1, select bank3
 12846  1E47  058C               	andwf	(396)^0180h,f	;volatile
 12847                           	
 12848  1E48                     l4258:	
 12849  1E48  1283               	bcf	status, 5	;RP0=0, select bank0
 12850  1E49  1303               	bcf	status, 6	;RP1=0, select bank0
 12851  1E4A  1003               	bcf	(24/8),(24)&7
 12852                           	
 12853  1E4B                     l4260:	
 12854  1E4B  1F8B               	btfss	(95/8),(95)&7
 12855  1E4C  2E4E               	goto	u4031
 12856  1E4D  2E4F               	goto	u4030
 12857  1E4E                     u4031:
 12858  1E4E  2E50               	goto	l842
 12859  1E4F                     u4030:
 12860                           	
 12861  1E4F                     l4262:	
 12862  1E4F  1403               	bsf	(24/8),(24)&7
 12863                           	
 12864  1E50                     l842:	
 12865  1E50  138B               	bcf	(95/8),(95)&7
 12866  1E51  1683               	bsf	status, 5	;RP0=1, select bank3
 12867  1E52  1703               	bsf	status, 6	;RP1=1, select bank3
 12868  1E53  150C               	bsf	(3170/8)^0180h,(3170)&7
 12869                           	
 12870  1E54                     l4264:	
 12871  1E54  3055               	movlw	(055h)
 12872  1E55  008D               	movwf	(397)^0180h	;volatile
 12873  1E56  30AA               	movlw	(0AAh)
 12874  1E57  008D               	movwf	(397)^0180h	;volatile
 12875                           	
 12876  1E58                     l4266:	
 12877  1E58  148C               	bsf	(3169/8)^0180h,(3169)&7
 12878                           	
 12879  1E59                     l4268:	
 12880  1E59  110C               	bcf	(3170/8)^0180h,(3170)&7
 12881                           	
 12882  1E5A                     l4270:	
 12883  1E5A  1283               	bcf	status, 5	;RP0=0, select bank0
 12884  1E5B  1303               	bcf	status, 6	;RP1=0, select bank0
 12885  1E5C  1C03               	btfss	(24/8),(24)&7
 12886  1E5D  2E5F               	goto	u4041
 12887  1E5E  2E60               	goto	u4040
 12888  1E5F                     u4041:
 12889  1E5F  2E64               	goto	l845
 12890  1E60                     u4040:
 12891                           	
 12892  1E60                     l4272:	
 12893  1E60  178B               	bsf	(95/8),(95)&7
 12894  1E61  2E64               	goto	l845
 12895                           	
 12896  1E62                     l843:	
 12897  1E62  2E64               	goto	l845
 12898                           	
 12899  1E63                     l844:	
 12900                           	line	798
 12901                           ;PR29.c: 798: while(WR)
 12902  1E63  2E64               	goto	l845
 12903                           	
 12904  1E64                     l846:	
 12905                           	line	799
 12906                           ;PR29.c: 799: continue;
 12907                           	
 12908  1E64                     l845:	
 12909                           	line	798
 12910  1E64  1683               	bsf	status, 5	;RP0=1, select bank3
 12911  1E65  1703               	bsf	status, 6	;RP1=1, select bank3
 12912  1E66  188C               	btfsc	(3169/8)^0180h,(3169)&7
 12913  1E67  2E69               	goto	u4051
 12914  1E68  2E6A               	goto	u4050
 12915  1E69                     u4051:
 12916  1E69  2E64               	goto	l845
 12917  1E6A                     u4050:
 12918  1E6A  2E6B               	goto	l848
 12919                           	
 12920  1E6B                     l847:	
 12921                           	line	800
 12922                           	
 12923  1E6B                     l848:	
 12924  1E6B  0008               	return
 12925                           	opt stack 0
 12926                           GLOBAL	__end_of_store_eeprom
 12927  1E6C                     	__end_of_store_eeprom:
 12928 ;; =============== function _store_eeprom ends ============
 12929                           
 12930                           	signat	_store_eeprom,8312
 12931                           	global	_get_eeprom
 12932                           psect	text584,local,class=CODE,delta=2
 12933                           global __ptext584
 12934  1CFE                     __ptext584:
 12935                           
 12936 ;; *************** function _get_eeprom *****************
 12937 ;; Defined at:
 12938 ;;		line 804 in file "C:\Users\Phang\Desktop\9.80\PR 29\PR29.c"
 12939 ;; Parameters:    Size  Location     Type
 12940 ;;  location        1    wreg     unsigned char 
 12941 ;; Auto vars:     Size  Location     Type
 12942 ;;  location        1    1[COMMON] unsigned char 
 12943 ;;  value           1    2[COMMON] unsigned char 
 12944 ;; Return value:  Size  Location     Type
 12945 ;;                  1    wreg      unsigned char 
 12946 ;; Registers used:
 12947 ;;		wreg, status,2, status,0
 12948 ;; Tracked objects:
 12949 ;;		On entry : 0/0
 12950 ;;		On exit  : 0/0
 12951 ;;		Unchanged: 0/0
 12952 ;; Data sizes:     COMMON   BANK0   BANK1   BANK3   BANK2
 12953 ;;      Params:         0       0       0       0       0
 12954 ;;      Locals:         2       0       0       0       0
 12955 ;;      Temps:          1       0       0       0       0
 12956 ;;      Totals:         3       0       0       0       0
 12957 ;;Total ram usage:        3 bytes
 12958 ;; Hardware stack levels used:    1
 12959 ;; This function calls:
 12960 ;;		Nothing
 12961 ;; This function is called by:
 12962 ;;		_main
 12963 ;;		_view_attendance
 12964 ;;		_upload_HT
 12965 ;;		_upload_GUI
 12966 ;; This function uses a non-reentrant model
 12967 ;;
 12968                           psect	text584
 12969                           	file	"C:\Users\Phang\Desktop\9.80\PR 29\PR29.c"
 12970                           	line	804
 12971                           	global	__size_of_get_eeprom
 12972  0015                     	__size_of_get_eeprom	equ	__end_of_get_eeprom-_get_eeprom
 12973                           	
 12974  1CFE                     _get_eeprom:	
 12975                           	opt	stack 5
 12976                           ; Regs used in _get_eeprom: [wreg+status,2+status,0]
 12977                           ;get_eeprom@location stored from wreg
 12978                           	line	806
 12979  1CFE  00F1               	movwf	(get_eeprom@location)
 12980                           	
 12981  1CFF                     l4242:	
 12982                           ;PR29.c: 805: unsigned char value;
 12983                           ;PR29.c: 806: value= ((EEADR=(location)),(EECON1&=0x3F),(RD=1),EEDATA);
 12984  1CFF  0871               	movf	(get_eeprom@location),w
 12985  1D00  1283               	bcf	status, 5	;RP0=0, select bank2
 12986  1D01  1703               	bsf	status, 6	;RP1=1, select bank2
 12987  1D02  008D               	movwf	(269)^0100h	;volatile
 12988                           	
 12989  1D03                     l4244:	
 12990  1D03  303F               	movlw	(03Fh)
 12991  1D04  00F0               	movwf	(??_get_eeprom+0)+0
 12992  1D05  0870               	movf	(??_get_eeprom+0)+0,w
 12993  1D06  1683               	bsf	status, 5	;RP0=1, select bank3
 12994  1D07  1703               	bsf	status, 6	;RP1=1, select bank3
 12995  1D08  058C               	andwf	(396)^0180h,f	;volatile
 12996                           	
 12997  1D09                     l4246:	
 12998  1D09  140C               	bsf	(3168/8)^0180h,(3168)&7
 12999                           	
 13000  1D0A                     l4248:	
 13001  1D0A  1283               	bcf	status, 5	;RP0=0, select bank2
 13002  1D0B  1703               	bsf	status, 6	;RP1=1, select bank2
 13003  1D0C  080C               	movf	(268)^0100h,w	;volatile
 13004  1D0D  00F0               	movwf	(??_get_eeprom+0)+0
 13005  1D0E  0870               	movf	(??_get_eeprom+0)+0,w
 13006  1D0F  00F2               	movwf	(get_eeprom@value)
 13007                           	line	807
 13008                           	
 13009  1D10                     l4250:	
 13010                           ;PR29.c: 807: return value;
 13011  1D10  0872               	movf	(get_eeprom@value),w
 13012  1D11  2D12               	goto	l851
 13013                           	
 13014  1D12                     l4252:	
 13015                           	line	808
 13016                           	
 13017  1D12                     l851:	
 13018  1D12  0008               	return
 13019                           	opt stack 0
 13020                           GLOBAL	__end_of_get_eeprom
 13021  1D13                     	__end_of_get_eeprom:
 13022 ;; =============== function _get_eeprom ends ============
 13023                           
 13024                           	signat	_get_eeprom,4217
 13025                           	global	_uart_init
 13026                           psect	text585,local,class=CODE,delta=2
 13027                           global __ptext585
 13028  1005                     __ptext585:
 13029                           
 13030 ;; *************** function _uart_init *****************
 13031 ;; Defined at:
 13032 ;;		line 39 in file "C:\Users\Phang\Desktop\9.80\PR 29\uart_io.c"
 13033 ;; Parameters:    Size  Location     Type
 13034 ;;  channel         1    wreg     unsigned char 
 13035 ;; Auto vars:     Size  Location     Type
 13036 ;;  channel         1    0[COMMON] unsigned char 
 13037 ;; Return value:  Size  Location     Type
 13038 ;;		None               void
 13039 ;; Registers used:
 13040 ;;		wreg, fsr0l, fsr0h, status,2, status,0
 13041 ;; Tracked objects:
 13042 ;;		On entry : 0/0
 13043 ;;		On exit  : 0/0
 13044 ;;		Unchanged: 0/0
 13045 ;; Data sizes:     COMMON   BANK0   BANK1   BANK3   BANK2
 13046 ;;      Params:         0       0       0       0       0
 13047 ;;      Locals:         1       0       0       0       0
 13048 ;;      Temps:          0       0       0       0       0
 13049 ;;      Totals:         1       0       0       0       0
 13050 ;;Total ram usage:        1 bytes
 13051 ;; Hardware stack levels used:    1
 13052 ;; This function calls:
 13053 ;;		Nothing
 13054 ;; This function is called by:
 13055 ;;		_main
 13056 ;; This function uses a non-reentrant model
 13057 ;;
 13058                           psect	text585
 13059                           	file	"C:\Users\Phang\Desktop\9.80\PR 29\uart_io.c"
 13060                           	line	39
 13061                           	global	__size_of_uart_init
 13062  0016                     	__size_of_uart_init	equ	__end_of_uart_init-_uart_init
 13063                           	
 13064  1005                     _uart_init:	
 13065                           	opt	stack 7
 13066                           ; Regs used in _uart_init: [wreg-fsr0h+status,2+status,0]
 13067                           ;uart_init@channel stored from wreg
 13068  1005  00F0               	movwf	(uart_init@channel)
 13069                           	line	40
 13070                           	
 13071  1006                     l4236:	
 13072                           ;uart_io.c: 40: switch(channel)
 13073  1006  2815               	goto	l4240
 13074                           	line	42
 13075                           ;uart_io.c: 41: {
 13076                           ;uart_io.c: 42: case 2:
 13077                           	
 13078  1007                     l1480:	
 13079                           	line	43
 13080                           ;uart_io.c: 43: RC0=1;
 13081  1007  1283               	bcf	status, 5	;RP0=0, select bank0
 13082  1008  1303               	bcf	status, 6	;RP1=0, select bank0
 13083  1009  1407               	bsf	(56/8),(56)&7
 13084                           	line	44
 13085                           ;uart_io.c: 44: TRISC0=0;
 13086  100A  1683               	bsf	status, 5	;RP0=1, select bank1
 13087  100B  1303               	bcf	status, 6	;RP1=0, select bank1
 13088  100C  1007               	bcf	(1080/8)^080h,(1080)&7
 13089                           	line	45
 13090                           ;uart_io.c: 45: RC1=1;
 13091  100D  1283               	bcf	status, 5	;RP0=0, select bank0
 13092  100E  1303               	bcf	status, 6	;RP1=0, select bank0
 13093  100F  1487               	bsf	(57/8),(57)&7
 13094                           	line	46
 13095                           ;uart_io.c: 46: TRISC1=1;
 13096  1010  1683               	bsf	status, 5	;RP0=1, select bank1
 13097  1011  1303               	bcf	status, 6	;RP1=0, select bank1
 13098  1012  1487               	bsf	(1081/8)^080h,(1081)&7
 13099                           	line	47
 13100                           ;uart_io.c: 47: break;
 13101  1013  281A               	goto	l1482
 13102                           	line	48
 13103                           	
 13104  1014                     l4238:	
 13105                           ;uart_io.c: 48: }
 13106  1014  281A               	goto	l1482
 13107                           	line	40
 13108                           	
 13109  1015                     l1479:	
 13110                           	
 13111  1015                     l4240:	
 13112  1015  0870               	movf	(uart_init@channel),w
 13113                           	; Switch size 1, requested type "space"
 13114                           ; Number of cases is 1, Range of values is 2 to 2
 13115                           ; switch strategies available:
 13116                           ; Name         Bytes Cycles
 13117                           ; simple_byte     4     3 (average)
 13118                           ; direct_byte    25    22 (fixed)
 13119                           ;	Chosen strategy is simple_byte
 13120                           
 13121  1016  3A02               	xorlw	2^0	; case 2
 13122  1017  1903               	skipnz
 13123  1018  2807               	goto	l1480
 13124  1019  281A               	goto	l1482
 13125                           
 13126                           	line	48
 13127                           	
 13128  101A                     l1481:	
 13129                           	line	49
 13130                           	
 13131  101A                     l1482:	
 13132  101A  0008               	return
 13133                           	opt stack 0
 13134                           GLOBAL	__end_of_uart_init
 13135  101B                     	__end_of_uart_init:
 13136 ;; =============== function _uart_init ends ============
 13137                           
 13138                           	signat	_uart_init,4216
 13139                           	global	_delay
 13140                           psect	text586,local,class=CODE,delta=2
 13141                           global __ptext586
 13142  1DCD                     __ptext586:
 13143                           
 13144 ;; *************** function _delay *****************
 13145 ;; Defined at:
 13146 ;;		line 282 in file "C:\Users\Phang\Desktop\9.80\PR 29\PR29.c"
 13147 ;; Parameters:    Size  Location     Type
 13148 ;;  data            4    0[COMMON] unsigned long 
 13149 ;; Auto vars:     Size  Location     Type
 13150 ;;		None
 13151 ;; Return value:  Size  Location     Type
 13152 ;;		None               void
 13153 ;; Registers used:
 13154 ;;		wreg
 13155 ;; Tracked objects:
 13156 ;;		On entry : 0/0
 13157 ;;		On exit  : 0/0
 13158 ;;		Unchanged: 0/0
 13159 ;; Data sizes:     COMMON   BANK0   BANK1   BANK3   BANK2
 13160 ;;      Params:         4       0       0       0       0
 13161 ;;      Locals:         0       0       0       0       0
 13162 ;;      Temps:          4       0       0       0       0
 13163 ;;      Totals:         8       0       0       0       0
 13164 ;;Total ram usage:        8 bytes
 13165 ;; Hardware stack levels used:    1
 13166 ;; This function calls:
 13167 ;;		Nothing
 13168 ;; This function is called by:
 13169 ;;		_main
 13170 ;;		_send_config
 13171 ;;		_send_char
 13172 ;;		_lcd_clr
 13173 ;;		_mode
 13174 ;;		_display_status
 13175 ;;		_receive_reply
 13176 ;;		_CheckAdmin
 13177 ;;		_AddNew
 13178 ;;		_view_attendance
 13179 ;;		_ResetAdmin
 13180 ;; This function uses a non-reentrant model
 13181 ;;
 13182                           psect	text586
 13183                           	file	"C:\Users\Phang\Desktop\9.80\PR 29\PR29.c"
 13184                           	line	282
 13185                           	global	__size_of_delay
 13186  0030                     	__size_of_delay	equ	__end_of_delay-_delay
 13187                           	
 13188  1DCD                     _delay:	
 13189                           	opt	stack 5
 13190                           ; Regs used in _delay: [wreg]
 13191                           	line	283
 13192                           	
 13193  1DCD                     l4230:	
 13194                           ;PR29.c: 283: for( ;data>0;data--);
 13195  1DCD  0873               	movf	(delay@data+3),w
 13196  1DCE  0472               	iorwf	(delay@data+2),w
 13197  1DCF  0471               	iorwf	(delay@data+1),w
 13198  1DD0  0470               	iorwf	(delay@data),w
 13199  1DD1  1D03               	skipz
 13200  1DD2  2DD4               	goto	u3991
 13201  1DD3  2DD5               	goto	u3990
 13202  1DD4                     u3991:
 13203  1DD4  2DD7               	goto	l4234
 13204  1DD5                     u3990:
 13205  1DD5  2DFC               	goto	l657
 13206                           	
 13207  1DD6                     l4232:	
 13208  1DD6  2DFC               	goto	l657
 13209                           	
 13210  1DD7                     l655:	
 13211                           	
 13212  1DD7                     l4234:	
 13213  1DD7  3001               	movlw	01h
 13214  1DD8  00F4               	movwf	((??_delay+0)+0)
 13215  1DD9  3000               	movlw	0
 13216  1DDA  00F5               	movwf	((??_delay+0)+0+1)
 13217  1DDB  3000               	movlw	0
 13218  1DDC  00F6               	movwf	((??_delay+0)+0+2)
 13219  1DDD  3000               	movlw	0
 13220  1DDE  00F7               	movwf	((??_delay+0)+0+3)
 13221  1DDF  0874               	movf	0+(??_delay+0)+0,w
 13222  1DE0  02F0               	subwf	(delay@data),f
 13223  1DE1  0875               	movf	1+(??_delay+0)+0,w
 13224  1DE2  1C03               	skipc
 13225  1DE3  0F75               	incfsz	1+(??_delay+0)+0,w
 13226  1DE4  2DE6               	goto	u4005
 13227  1DE5  2DE7               	goto	u4006
 13228  1DE6                     u4005:
 13229  1DE6  02F1               	subwf	(delay@data+1),f
 13230  1DE7                     u4006:
 13231  1DE7  0876               	movf	2+(??_delay+0)+0,w
 13232  1DE8  1C03               	skipc
 13233  1DE9  0F76               	incfsz	2+(??_delay+0)+0,w
 13234  1DEA  2DEC               	goto	u4007
 13235  1DEB  2DED               	goto	u4008
 13236  1DEC                     u4007:
 13237  1DEC  02F2               	subwf	(delay@data+2),f
 13238  1DED                     u4008:
 13239  1DED  0877               	movf	3+(??_delay+0)+0,w
 13240  1DEE  1C03               	skipc
 13241  1DEF  0F77               	incfsz	3+(??_delay+0)+0,w
 13242  1DF0  2DF2               	goto	u4009
 13243  1DF1  2DF3               	goto	u4000
 13244  1DF2                     u4009:
 13245  1DF2  02F3               	subwf	(delay@data+3),f
 13246  1DF3                     u4000:
 13247                           
 13248  1DF3  0873               	movf	(delay@data+3),w
 13249  1DF4  0472               	iorwf	(delay@data+2),w
 13250  1DF5  0471               	iorwf	(delay@data+1),w
 13251  1DF6  0470               	iorwf	(delay@data),w
 13252  1DF7  1D03               	skipz
 13253  1DF8  2DFA               	goto	u4011
 13254  1DF9  2DFB               	goto	u4010
 13255  1DFA                     u4011:
 13256  1DFA  2DD7               	goto	l4234
 13257  1DFB                     u4010:
 13258  1DFB  2DFC               	goto	l657
 13259                           	
 13260  1DFC                     l656:	
 13261                           	line	284
 13262                           	
 13263  1DFC                     l657:	
 13264  1DFC  0008               	return
 13265                           	opt stack 0
 13266                           GLOBAL	__end_of_delay
 13267  1DFD                     	__end_of_delay:
 13268 ;; =============== function _delay ends ============
 13269                           
 13270                           	signat	_delay,4216
 13271                           psect	text587,local,class=CODE,delta=2
 13272                           global __ptext587
 13273  0000                     __ptext587:
 13274                           	global	btemp
 13275  007E                     	btemp set 07Eh
 13276                           
 13277                           	DABS	1,126,2	;btemp
 13278                           	global	wtemp0
 13279  007E                     	wtemp0 set btemp


HI-TECH Software PICC Macro Assembler V9.80 build 6738 
Symbol Table                                                                                   Wed Jun 20 23:17:11 2012

         __end_of_view_attendance 141A                                 pc 0002                    uart_write@data 0070  
                              _RD 0C60                                _WR 0C61                                fsr 0004  
                             l600 1588                               l601 158D                               l610 1665  
                             l602 159B                               l611 1605                               l603 159A  
                             l700 032F                               l612 1664                               l620 1660  
                             l604 1594                               l701 033A                               l621 165F  
                             l613 1617                               l605 1594                               l710 040B  
                             l702 033E                               l630 16B7                               l614 1663  
                             l606 1598                               l703 040C                               l711 040A  
                             l631 16BC                               l623 1676                               l615 1629  
                             l607 15E1                               l720 03CA                               l712 0366  
                             l704 0359                               l632 17CE                               l640 17CA  
                             l624 1677                               l608 1666                               l616 1662  
                             l801 11E2                               l721 03B5                               l713 0366  
                             l705 0345                               l641 17C9                               l633 1731  
                             l625 17D1                               l617 163B                               l609 15F3  
                             l810 10D5                               l802 1024                               l730 049A  
                             l722 03C9                               l714 036B                               l706 0345  
                             l642 17D0                               l634 17CD                               l626 1678  
                             l618 1661                               l811 1100                               l803 1043  
                             l731 049A                               l723 03C8                               l715 037C  
                             l707 034A                               l643 17D1                               l635 1757  
                             l627 1679                               l619 164D                               l571 14AA  
                             l652 1D5A                               l660 1DA4                               l900 0D84  
                             l812 112B                               l804 1093                               l820 1EB4  
                             l740 04C3                               l732 049F                               l724 044F  
                             l716 03CB                               l708 0353                               l628 17CF  
                             l636 17CC                               l580 153D                               l572 14A9  
                             l901 0D66                               l813 1156                               l805 106A  
                             l821 1ECD                               l741 04C8                               l733 04AA  
                             l725 07FA                               l717 038F                               l709 0358  
                             l645 17E0                               l637 177D                               l629 16B7  
                             l581 154C                               l573 1503                               l910 0E69  
                             l902 0D99                               l814 118E                               l806 1092  
                             l822 1EE8                               l830 1F2F                               l750 0595  
                             l726 04E6                               l742 04DC                               l734 04AE  
                             l718 03CB                               l646 17E1                               l638 17CB  
                             l590 155F                               l582 154B                               l574 154C  
                             l655 1DD7                               l663 0813                               l671 1E1A  
                             l911 0E34                               l903 0DD5                               l815 119E  
                             l807 1091                               l751 04FA                               l727 04DE  
                             l735 04DD                               l743 04DB                               l719 03A2  
                             l647 17FC                               l639 17A3                               l591 155F  
                             l583 1544                               l575 1504                               l656 1DFC  
                             l840 1E35                               l680 1CC0                               l664 0820  
                             l672 1E03                               l920 0F12                               l912 0E58  
                             l904 0DA0                               l808 11F6                               l816 11B4  
                             l760 054A                               l752 0544                               l744 04CF  
                             l736 04C9                               l728 0465                               l648 17FD  
                             l592 1564                               l584 1544                               l576 153E  
                             l657 1DFC                               l841 1E3C                               l681 1CC7  
                             l825 1D68                               l665 0820                               l921 0F40  
                             l913 0E7E                               l905 0DC4                               l809 10AA  
                             l817 11F6                               l833 1FFF                               l761 054A  
                             l753 052F                               l745 04CF                               l737 04B5  
                             l729 04AF                               l649 17FD                               l593 156F  
                             l585 1548                               l577 152A                               l842 1E50  
                             l682 1CC9                               l690 1CD2                               l826 1D7F  
                             l674 1E31                               l930 0FDE                               l922 0F22  
                             l914 0EAC                               l906 0DEA                               l834 1FFE  
                             l770 059C                               l762 054F                               l754 052F  
                             l746 04D4                               l738 04B5                               l594 1573  
                             l586 1553                               l578 152A                               l851 1D12  
                             l843 1E62                               l691 1CD8                               l827 1D7F  
                             l675 1E32                               l931 0FFF                               l923 0F55  
                             l915 0E8E                               l907 0E18                               l835 1FFF  
                             l771 07F9                               l763 0558                               l755 0534  
                             l747 04E5                               l739 04BA                               l587 1667  
                             l595 159C                               l579 152F                               l844 1E63  
                             l668 1CFD                               l676 1E32                               l940 09D6  
                             l860 12AF                               l932 0FFF                               l924 0F91  
                             l916 0EC1                               l908 0DFA                               l748 07FA  
                             l780 06D0                               l772 0625                               l764 055D  
                             l756 053F                               l596 158E                               l588 1559  
                             l845 1E64                               l685 1EA4                               l941 09FA  
                             l861 12D1                               l925 0F5C                               l917 0EFD  
                             l909 0E2D                               l781 07F7                               l773 0624  
                             l749 059D                               l765 0593                               l757 0543  
                             l597 157A                               l589 1574                               l846 1E64  
                             l838 1E34                               l950 0A7A                               l942 0A1D  
                             l870 13C2                               l862 12F0                               l854 121E  
                             l926 0F80                               l918 0EC8                               l790 0749  
                             l782 06DE                               l774 05CF                               l758 0594  
                             l766 0592                               l694 0451                               l598 157A  
                             l847 1E6B                               l839 1E35                               l679 1CC0  
                             l951 0AA9                               l943 0A03                               l935 09A6  
                             l871 13DE                               l863 130C                               l855 123A  
                             l927 0FA6                               l919 0EEC                               l783 07F6  
                             l791 0749                               l775 0623                               l767 0564  
                             l759 055E                               l695 0449                               l599 157F  
                             l848 1E6B                               l688 1CCB                               l880 0318  
                             l960 0B25                               l952 0AD3                               l944 0A32  
                             l936 098C                               l872 13EA                               l864 1318  
                             l856 1246                               l928 0FBA                               l776 07F8  
                             l792 074E                               l784 071B                               l768 0564  
                             l696 0324                               l689 1CCB                               l961 0B3B  
                             l953 0AAE                               l945 0A5C                               l937 09BB  
                             l873 140C                               l865 133A                               l857 1268  
                             l929 0FD1                               l785 07F5                               l793 07ED  
                             l777 06D2                               l769 0569                               l697 033F  
                             l970 0BD6                               l962 0B5F                               l954 0AC4  
                             l946 0A37                               l938 09E5                               l874 1419  
                             l866 1359                               l858 1287                               l890 0C68  
                             l786 07F4                               l794 079E                               l778 06D1  
                             l698 032A                               l963 0B82                               l955 0AE8  
                             l947 0A4D                               l939 09C0                               l867 1375  
                             l859 12A3                               l891 0C9D                               l787 07EE  
                             l795 079E                               l779 0698                               l699 032A  
                             _DAY 005A                               l964 0B68                               l956 0B0B  
                             l948 0A71                               l868 1381                               l892 0CC1  
                             l980 00BE                               l796 07A3                               l788 0723  
                             l877 0981                               l965 0B97                               l957 0AF1  
                             l949 0A94                               l973 1D20                               l869 13A3  
                             l893 0CF0                               l885 0BFB                               l797 07F2  
                             l789 0798                               l966 0BC1                               l958 0B20  
                             l974 1D35                               l894 0CD2                               l886 0C16  
                             l798 07FF                               l967 0B9C                               l959 0B4A  
                             l975 1D35                               l895 0D05                               l887 0C23  
                             l968 0BB2                               l896 0D41                               l888 0C44  
                             l969 0BD6                               l897 0D0C                               l889 0C51  
                             l898 0D30                               l978 0086                               l899 0D56  
                             l979 00BE                               _GIE 005F                               _RA0 0028  
                             _RA1 0029                               _RA2 002A                               _RA3 002B  
                             _RC0 0038                               _RA4 002C                               _RC1 0039  
                             _RA5 002D                               _RC4 003C                               _RC5 003D  
                             fsr0 0004                               indf 0000            __end_of_display_status 11F7  
                      _CheckAdmin 1EE9                   send_config@data 0078                              l1480 1007  
                            l5000 0FAB                              l1481 101A                              l1482 101A  
                            l1490 084D                              l5010 0FCA                              l5002 0FB2  
                            l1491 086C                              l4300 1E7A                              l1492 086C  
                            l5020 0FF2                              l5004 0FB9                              l5012 0FD1  
                            l5100 112F                              l1485 0867                              l4230 1DCD  
                            l4310 1E98                              l4302 1E80                              l1486 0823  
                            l5022 0FF8                              l5014 0FD6                              l5006 0FBA  
                            l5110 114F                              l5102 1135                              l5030 1033  
                            l1479 1015                              l1487 0835                              l4232 1DD6  
                            l4240 1015                              l4312 1E9E                              l4304 1E86  
                            l4320 1D68                              l4400 0104                              l1488 0859  
                            l5016 0FDD                              l5008 0FC4                              l5120 116E  
                            l5112 1150                              l5104 113E                              l5040 105A  
                            l5032 1039                              l5024 101E                              l5200 1F88  
                            l1489 0844                              l4234 1DD7                              l4250 1D10  
                            l4242 1CFF                              l4306 1E8C                              l4322 1D74  
                            l4314 1D5B                              l4330 087E                              l4410 013E  
                            l4402 0111                              l5018 0FDE                              l5130 1194  
                            l5122 1174                              l5114 1159                              l5106 114B  
                            l5042 106A                              l5050 1093                              l5034 1043  
                            l5026 1027                              l5210 1FC0                              l5202 1F91  
                            l4236 1006                              l4252 1D12                              l4244 1D03  
                            l4260 1E4B                              l4308 1E92                              l4324 1D78  
                            l4316 1D60                              l4340 08B5                              l4332 088B  
                            l4420 017C                              l4412 0148                              l4404 011E  
                            l4500 083B                              l5140 11BF                              l5132 119E  
                            l5124 117B                              l5116 115F                              l5108 114E  
                            l5060 10B4                              l5052 10A0                              l5044 1072  
                            l5036 104B                              l5028 102D                              l5212 1FCB  
                            l5204 1FA0                              l5220 0032                              l5300 0408  
                            l4238 1014                              l4246 1D09                              l4270 1E5A  
                            l4262 1E4F                              l4254 1E3C                              l4318 1D67  
                            l4350 08EC                              l4342 08C2                              l4334 0898  
                            l4326 086D                              l4430 01B6                              l4422 0189  
                            l4414 0155                              l4406 012B                              l4510 085D  
                            l4502 083E                              l5150 11DA                              l5142 11C8  
                            l5134 11AB                              l5126 118A                              l5118 1165  
                            l5070 10CF                              l5062 10BD                              l5054 10A3  
                            l5046 1078                              l5038 1051                              l5214 1FD4  
                            l5206 1FB5                              l5230 006F                              l5222 0038  
                            l5310 0430                              l5302 040C                              l4248 1D0A  
                            l4272 1E60                              l4264 1E54                              l4256 1E42  
                            l4280 1CD2                              l4360 0923                              l4352 08F9  
                            l4344 08CF                              l4336 08A5                              l4328 0874  
                            l4440 01F4                              l4432 01C0                              l4424 0196  
                            l4416 0162                              l4408 0138                              l4512 0866  
                            l4504 0847                              l4520 080B                              l4600 0AB9  
                            l5152 11DB                              l5144 11D5                              l5136 11AE  
                            l5128 118E                              l5080 10F8                              l5072 10D9  
                            l5064 10CA                              l5056 10A4                              l5048 1081  
                            l5160 1EAC                              l5216 1FE3                              l5208 1FBA  
                            l5240 00A4                              l5232 0078                              l5224 0041  
                            l5400 05C3                              l5320 0465                              l5312 043F  
                            l5304 041B                              l4266 1E58                              l4258 1E48  
                            l4274 1CBF                              l4282 1CD8                              l4290 1D3D  
                            l4370 095A                              l4362 0930                              l4354 0906  
                            l4346 08DC                              l4338 08AB                              l4450 022E  
                            l4442 0201                              l4434 01CD                              l4426 01A3  
                            l4418 016F                              l4506 084D                              l4514 0867  
                            l4522 0813                              l4530 1E13                              l4610 0AE8  
                            l4602 0ABF                              l5154 11E1                              l5146 11D8  
                            l5138 11B9                              l5090 1113                              l5082 10F9  
                            l5074 10DF                              l5066 10CD                              l5058 10AE  
                            l5162 1EB3                              l5170 1ECD                              l5218 1FF8  
                            l5242 00B7                              l5234 0086                              l5226 004E  
                            l5410 05EB                              l5402 05C8                              l5330 0492  
                            l5322 046B                              l5306 0421                              l5250 032F  
                            l5314 0449                              l4268 1E59                              l4276 1CC7  
                            l4292 1D4A                              l4284 1D37                              l4372 0967  
                            l4364 093D                              l4356 0913                              l4348 08E2  
                            l4380 1D86                              l4460 026C                              l4452 0238  
                            l4444 020E                              l4436 01DA                              l4428 01B0  
                            l4508 0859                              l4516 1CEA                              l4524 0818  
                            l4532 1E1A                              l4620 0B20                              l4612 0AF1  
                            l4604 0AC4                              l4540 098C                              l4700 127B  
                            l5148 11D9                              l5092 1120                              l5084 10FA  
                            l5076 10E8                              l5068 10CE                              l5156 11E2  
                            l5172 1EDB                              l5164 1EB4                              l5180 1F1D  
                            l5236 008C                              l5228 0064                              l5500 0786  
                            l5412 05F1                              l5404 05CF                              l5420 0625  
                            l5340 04B4                              l5332 0499                              l5324 0474  
                            l5308 042A                              l5260 0350                              l5252 0335  
                            l5316 0451                              l5244 031C                              l4278 1CCA  
                            l4294 1D4D                              l4286 1D3A                              l4374 0974  
                            l4366 094A                              l4358 0919                              l4382 1D87  
                            l4470 02A6                              l4462 0279                              l4454 0245  
                            l4446 021B                              l4438 01E7                              l4390 00C6  
                            l4518 0805                              l4534 1E20                              l4526 1DFD  
                            l4630 0B45                              l4622 0B25                              l4614 0AFC  
                            l4606 0ACE                              l4550 09C0                              l4542 0997  
                            l4710 129C                              l4702 127F                              l5094 1123  
                            l5086 1104                              l5078 10F5                              l5166 1EC2  
                            l5158 1EA5                              l5182 1F2A                              l5174 1EE9  
                            l5190 1F64                              l5238 009B                              l5510 07A3  
                            l5502 0793                              l5430 0656                              l5422 062B  
                            l5414 0600                              l5406 05D5                              l5350 04D4  
                            l5342 04BA                              l5334 049F                              l5326 0483  
                            l5318 0457                              l5270 0371                              l5262 0353  
                            l5254 033A                              l5246 0323                              l4288 1D3C  
                            l4296 1E6D                              l4368 0950                              l4384 1D94  
                            l4376 1D81                              l4480 02E4                              l4472 02B0  
                            l4464 0286                              l4456 0252                              l4448 0228  
                            l4392 00D0                              l4528 1E03                              l4640 0B7D  
                            l4624 0B30                              l4632 0B4A                              l4616 0B06  
                            l4608 0AD3                              l4552 09CB                              l4560 09E5  
                            l4544 09A1                              l4536 0982                              l4720 12CA  
                            l4704 1286                              l4712 12A3                              l4800 0BF3  
                            l5096 1124                              l5088 110A                              l5168 1EC6  
                            l5176 1F05                              l5192 1F71                              l5184 1F33  
                            l5520 07CC                              l5512 07AE                              l5504 0796  
                            l5440 067D                              l5432 065B                              l5424 0631  
                            l5416 0609                              l5408 05DE                              l5360 0500  
                            l5344 04C0                              l5336 04A5                              l5328 0489  
                            l5352 04DE                              l5280 03A2                              l5272 037C  
                            l5264 035D                              l5256 0344                              l5248 0329  
                            l5600 14F2                              l4298 1E74                              l4386 1D97  
                            l4378 1D84                              l4482 02F1                              l4474 02BD  
                            l4466 0293                              l4458 025F                              l4394 00DD  
                            l4490 0826                              l4650 0BAD                              l4642 0B82  
                            l4634 0B5F                              l4626 0B36                              l4618 0B0B  
                            l4570 0A1D                              l4562 09FA                              l4554 09D1  
                            l4546 09A6                              l4538 0987                              l4730 12F0  
                            l4714 12AE                              l4722 12D1                              l4706 1287  
                            l4802 0BFA                              l4810 0C16                              l5098 1125  
                            l5178 1F0E                              l5194 1F76                              l5186 1F4C  
                            l5522 07D2                              l5514 07B7                              l5506 0798  
                            l5530 07EE                              l5450 06C3                              l5442 0693  
                            l5434 0661                              l5426 063A                              l5418 061C  
                            l5370 052E                              l5362 0509                              l5346 04C3  
                            l5338 04AA                              l5354 04E6                              l5290 03DA  
                            l5282 03AA                              l5274 0384                              l5266 0362  
                            l5258 034A                              l5610 1513                              l5602 14F7  
                            l4484 02FE                              l4476 02CA                              l4468 02A0  
                            l4396 00EA                              l4388 00BF                              l4492 082B  
                            l4652 0BB2                              l4644 0B97                              l4636 0B68  
                            l4628 0B3B                              l4580 0A4D                              l4572 0A32  
                            l4564 0A03                              l4556 09D6                              l4548 09BB  
                            l4660 1D18                              l4740 1318                              l4732 1301  
                            l4724 12E4                              l4716 12AF                              l4708 1298  
                            l4900 0DBF                              l4820 0C3D                              l4812 0C1B  
                            l4804 0BFB                              l5196 1F79                              l5188 1F55  
                            l5524 07DB                              l5516 07BA                              l5508 079D  
                            l5460 06E6                              l5452 06C9                              l5444 069E  
                            l5436 0667                              l5428 0649                              l5380 054F  
                            l5372 0534                              l5364 0518                              l5356 04EC  
                            l5348 04CE                              l5292 03E0                              l5284 03B5  
                            l5276 038F                              l5268 036B                              l5700 168E  
                            l5620 153A                              l5612 1522                              l5604 14FD  
                            l5540 1423                              l5532 141A                              l4486 030B  
                            l4478 02D7                              l4398 00F7                              l4494 082E  
                            l4654 0BBC                              l4646 0B9C                              l4638 0B73  
                            l4590 0A85                              l4582 0A57                              l4574 0A37  
                            l4566 0A0E                              l4558 09E0                              l4662 1D1F  
                            l4750 1351                              l4742 132F                              l4734 1305  
                            l4726 12E8                              l4718 12C6                              l4670 11F7  
                            l4910 0DEF                              l4902 0DC4                              l4830 0C5B  
                            l4814 0C22                              l4822 0C44                              l4806 0C09  
                            l5198 1F7D                              l5526 07E8                              l5518 07C7  
                            l5470 0717                              l5462 06E7                              l5446 06A7  
                            l5438 0670                              l5454 06D2                              l5390 0589  
                            l5382 0555                              l5374 053A                              l5366 051E  
                            l5358 04FA                              l5294 03E9                              l5286 03BD  
                            l5278 0397                              l5710 16B6                              l5702 1699  
                            l5630 156A                              l5622 1543                              l5614 1529  
                            l5606 1504                              l5550 1441                              l5542 1429  
                            l5534 141E                              l4496 0834                              l4488 0822  
                            l4648 0BA7                              l4656 0BC1                              l4592 0A8F  
                            l4576 0A42                              l4584 0A5C                              l4568 0A18  
                            l4664 1D20                              l4752 1358                              l4760 1375  
                            l4744 1333                              l4728 12EF                              l4736 130C  
                            l4680 121D                              l4672 1202                              l4920 0E18  
                            l4912 0DF5                              l4904 0DCE                              l4840 0C9C  
                            l4832 0C61                              l4824 0C49                              l4816 0C23  
                            l4808 0C0F                              l5528 07EB                              l5480 0732  
                            l5464 06F2                              l5472 071B                              l5456 06D8  
                            l5448 06B6                              l5392 058E                              l5384 0558  
                            l5376 053F                              l5368 0527                              l5296 03F8  
                            l5288 03D1                              l5720 1701                              l5712 16BC  
                            l5704 16A0                              l5640 1588                              l5632 156F  
                            l5624 1553                              l5616 152F                              l5608 150A  
                            l5560 1459                              l5552 1444                              l5544 142F  
                            l5536 141F                              l4498 0835                              l4594 0A94  
                            l4586 0A71                              l4578 0A48                              l4666 1D2A  
                            l4658 1D13                              l4762 1380                              l4770 13A3  
                            l4754 1359                              l4738 1317                              l4746 133A  
                            l4690 1245                              l4682 121E                              l4674 120B  
                            l4930 0E53                              l4922 0E2D                              l4914 0DFA  
                            l4906 0DD5                              l4850 0CC6                              l4842 0C9D  
                            l4826 0C50                              l4834 0C68                              l4818 0C37  
                            l5490 0762                              l5482 0741                              l5474 0722  
                            l5466 06FB                              l5458 06DE                              l5386 0563  
                            l5378 0549                              l5394 0595                              l5298 0405  
                            l5730 1723                              l5722 1706                              l5714 16DC  
                            l5706 16A6                              l5650 15B1                              l5642 1593  
                            l5634 1579                              l5626 155E                              l5618 1534  
                            l5570 147E                              l5562 145F                              l5554 1445  
                            l5546 1435                              l5538 1421                              l4596 0AA9  
                            l4588 0A7A                              l4668 1D2E                              l4780 13D3  
                            l4772 13B6                              l4764 1381                              l4756 136A  
                            l4748 134D                              l4692 1246                              l4684 122F  
                            l4676 1211                              l4940 0E83                              l4932 0E58  
                            l4924 0E34                              l4916 0E07                              l4908 0DEA  
                            l4860 0CF0                              l4852 0CCD                              l4844 0CB4  
                            l4836 0C90                              l4828 0C51                              l5492 0765  
                            l5484 0748                              l5476 0723                              l5468 070A  
                            l5388 0569                              l5396 059D                              l5740 1757  
                            l5732 1731                              l5724 170C                              l5716 16E5  
                            l5708 16AF                              l5660 15E1                              l5652 15BA  
                            l5636 157F                              l5644 159C                              l5628 1564  
                            l5580 1488                              l5572 147F                              l5564 1468  
                            l5556 144A                              l5548 143B                              l4598 0AAE  
                            l4790 1401                              l4782 13D7                              l4774 13BA  
                            l4766 1398                              l4758 136E                              l4694 125D  
                            l4686 1233                              l4678 1216                              l4950 0EAC  
                            l4942 0E89                              l4934 0E62                              l4926 0E41  
                            l4918 0E11                              l4870 0D2B                              l4862 0D05  
                            l4854 0CD2                              l4846 0CBA                              l4838 0C95  
                            l5494 0772                              l5486 074E                              l5478 0729  
                            l5398 05A3                              l5750 1785                              l5742 175F  
                            l5734 1739                              l5726 1712                              l5718 16F4  
                            l5670 160D                              l5662 15E9                              l5654 15C9  
                            l5646 15A2                              l5638 1585                              l5582 148C  
                            l5590 14AA                              l5574 1480                              l5566 1475  
                            l5558 1450                              l4792 1405                              l4776 13C1  
                            l4784 13DE                              l4768 139C                              l4696 1261  
                            l4688 123A                              l4960 0EE7                              l4952 0EC1  
                            l4944 0E8E                              l4928 0E4B                              l4936 0E69  
                            l4880 0D5B                              l4872 0D30                              l4864 0D0C  
                            l4856 0CDF                              l4848 0CC1                              l5496 0777  
                            l5488 0759                              l5760 17AF                              l5752 1789  
                            l5744 1763                              l5736 173D                              l5728 1717  
                            l5680 163B                              l5672 1617                              l5664 15F3  
                            l5656 15CF                              l5648 15AB                              l5592 14C0  
                            l5584 1499                              l5576 1483                              l5568 147A  
                            l4786 13E9                              l4794 140C                              l4778 13C2  
                            l4698 1268                              l4970 0F17                              l4962 0EEC  
                            l4954 0EC8                              l4946 0E9B                              l4938 0E7E  
                            l4890 0D84                              l4882 0D61                              l4874 0D3A  
                            l4866 0D19                              l4858 0CE9                              l5498 077D  
                            l5770 17E6                              l5762 17BB                              l5754 1795  
                            l5746 176F                              l5738 1749                              l5690 166D  
                            l5682 1643                              l5674 161F                              l5666 15FB  
                            l5658 15D7                              l5594 14CD                              l5586 149F  
                            l5578 1484                              l4788 13EA                              l4980 0F40  
                            l4972 0F1D                              l4964 0EF6                              l4956 0ED5  
                            l4948 0EA5                              l4892 0D99                              l4884 0D66  
                            l4868 0D23                              l4876 0D41                              l4796 0BD7  
                            l5772 17EE                              l5764 17D7                              l5756 17A3  
                            l5748 177D                              l5692 1671                              l5684 164D  
                            l5676 1629                              l5668 1605                              l5596 14D2  
                            l5588 14A3                              l4990 0F7B                              l4982 0F55  
                            l4974 0F22                              l4958 0EDF                              l4966 0EFD  
                            l4894 0DA0                              l4886 0D73                              l4878 0D56  
                            l4798 0BEC                              l5766 17DB                              l5758 17AB  
                            l5694 1679                              l5686 1655                              l5678 1631  
                            l5598 14E5                              l4992 0F80                              l4984 0F5C  
                            l4976 0F2F                              l4968 0F12                              l4896 0DAD  
                            l4888 0D7D                              l5768 17E1                              l5696 167F  
                            l5688 1667                              l4994 0F8A                              l4986 0F69  
                            l4978 0F39                              l4898 0DB7                              l5698 1688  
                            l4988 0F73                              l4996 0F91                              l4998 0FA6  
                            STR_1 1A3A                              STR_2 1AA5                              STR_3 1923  
                            STR_4 1901                              STR_5 1A97                              STR_6 1AB4  
                            STR_7 1846                              STR_8 1912                              STR_9 18F0  
                            _BRGH 04C2                              _CREN 00C4                              u4000 1DF3  
                            u4010 1DFB                              u4011 1DFA                              u4020 1E3B  
                            u4100 0833                              u4005 1DE6                              u4021 1E3A  
                            u4101 0832                              u4006 1DE7                              u4030 1E4F  
                            u4110 083B                              u4007 1DEC                              u4031 1E4E  
                            u4111 083A                              u4008 1DED                              u4040 1E60  
                            u4120 0858                              u4200 0A48                              u5000 0371  
                            u4009 1DF2                              u4041 1E5F                              u4121 0857  
                            u4201 0A47                              u5001 0370                              u4050 1E6A  
                            u4130 080B                              u4210 0A70                              u5010 0384  
                            u4051 1E69                              u4131 080A                              u4211 0A6F  
                            u5011 0383                              u4060 1CC6                              u4140 1E20  
                            u4300 0BD5                              u4220 0AA8                              u5100 04B3  
                            u5020 0397                              u4061 1CC5                              u4141 1E1F  
                            u4301 0BD4                              u4221 0AA7                              u5101 04B2  
                            u5021 0396                              u4070 1CD1                              u4150 1E30  
                            u4230 0ABF                              u4310 1D1E                              u5110 04B9  
                            u5030 03AA                              u4071 1CD0                              u4151 1E2F  
                            u4231 0ABE                              u4215 0A6C                              u4311 1D1D  
                            u5111 04B8                              u5031 03A9                              u4080 1D66  
                            u4240 0AE7                              u4160 09BA                              u4320 1D34  
                            u4400 12D0                              u5200 0548                              u5120 04C0  
                            u5040 03BD                              u4081 1D65                              u4305 0BD1  
                            u4241 0AE6                              u4225 0AA4                              u4161 09B9  
                            u4321 1D33                              u4401 12CF                              u5201 0547  
                            u5121 04BF                              u5041 03BC                              u4090 1D7E  
                            u4250 0B1F                              u4170 09D1                              u4410 12EE  
                            u4330 121C                              u5210 054E                              u5130 04CD  
                            u5050 044F                              u4091 1D7D                              u4251 0B1E  
                            u4171 09D0                              u4411 12ED                              u4331 121B  
                            u5211 054D                              u5131 04CC                              u5051 044E  
                            u4260 0B36                              u4180 09F9                              u4500 13DD  
                            u4420 130B                              u4340 1239                              u5300 0661  
                            u5220 0555                              u5140 04D3                              u5060 0457  
                            u4261 0B35                              u4245 0AE3                              u4181 09F8  
                            u4165 09B6                              u4501 13DC                              u4421 130A  
                            u4341 1238                              u5301 0660                              u5221 0554  
                            u5141 04D2                              u5061 0456                              u4270 0B5E  
                            u4190 0A31                              u4510 13E8                              u4430 1316  
                            u4350 1244                              u5310 06CF                              u5230 0562  
                            u5150 04E4                              u5070 0498                              u4271 0B5D  
                            u4255 0B1B                              u4191 0A30                              u4511 13E7  
                            u4431 1315                              u4351 1243                              u5311 06CE  
                            u5231 0561                              u5151 04E3                              u5071 0497  
                            u4280 0B96                              u4520 140B                              u4440 1339  
                            u4360 1267                              u4600 0C9B                              u5320 06D8  
                            u5240 0568                              u5160 04EC                              u5080 049E  
                            u5400 1488                              u4281 0B95                              u4185 09F5  
                            u4521 140A                              u4441 1338                              u4361 1266  
                            u4601 0C9A                              u5321 06D7                              u5241 0567  
                            u5161 04EB                              u5081 049D                              u5401 1487  
                            u4290 0BAD                              u4450 1357                              u4370 1285  
                            u4610 0CC0                              u4530 0BDF                              u5330 06E6  
                            u5250 059B                              u5170 052D                              u5090 04A5  
                            u5410 148C                              u4291 0BAC                              u4275 0B5A  
                            u4195 0A2D                              u4451 1356                              u4371 1284  
                            u4611 0CBF                              u5331 06E5                              u5251 059A  
                            u5171 052C                              u5091 04A4                              u5411 148B  
                            u4460 1374                              u4380 12A2                              u4700 0E7D  
                            u4620 0D04                              u4540 0BF9                              u5340 0721  
                            u5260 05A3                              u5180 0533                              u5500 155D  
                            u5420 149F                              u4285 0B92                              u4461 1373  
                            u4381 12A1                              u4701 0E7C                              u4621 0D03  
                            u4541 0BF8                              u5341 0720                              u5261 05A2  
                            u5181 0532                              u5501 155C                              u5421 149E  
                            u4470 137F                              u4390 12AD                              u4710 0EC0  
                            u4630 0D2B                              u4550 0C15                              u5350 0747  
                            u5270 05CE                              u5190 053A                              u5510 1563  
                            u5430 14A3                              u4471 137E                              u4391 12AC  
                            u4711 0EBF                              u4631 0D2A                              u4551 0C14  
                            u5351 0746                              u5271 05CD                              u5191 0539  
                            u5511 1562                              u5431 14A2                              u4480 13A2  
                            u4800 0FFE                              u4720 0EE7                              u4640 0D55  
                            u4560 0C21                              u5360 074D                              u5280 0622  
                            u5600 15FB                              u5520 156A                              u5440 1528  
                            u4481 13A1                              u4801 0FFD                              u4721 0EE6  
                            u4705 0E79                              u4641 0D54                              u4625 0D00  
                            u4561 0C20                              u5361 074C                              u5281 0621  
                            u5601 15FA                              u5521 1569                              u5441 1527  
                            u4490 13C0                              u4730 0F11                              u4650 0D98  
                            u4570 0C43                              u4810 102D                              u5370 079C  
                            u5290 062B                              u5610 160D                              u5530 1578  
                            u5450 152E                              u4491 13BF                              u4731 0F10  
                            u4715 0EBC                              u4651 0D97                              u4571 0C42  
                            u4811 102C                              u5371 079B                              u5291 062A  
                            u5611 160C                              u5531 1577                              u5451 152D  
                            u4740 0F54                              u4660 0DBF                              u4580 0C4F  
                            u4820 1033                              u4900 00BD                              u5380 07A2  
                            u5700 16BB                              u5620 161F                              u5540 157E  
                            u5460 153A                              _RCIF 0065                              u4741 0F53  
                            u4661 0DBE                              u4645 0D51                              u4581 0C4E  
                            u4821 1032                              u4901 00BC                              u5381 07A1  
                            u5701 16BA                              u5621 161E                              u5541 157D  
                            u5461 1539                              u4750 0F7B                              u4670 0DE9  
                            u4590 0C67                              u4830 104B                              u5390 07F2  
                            u4910 0322                              u5710 170C                              u5630 1631  
                            u5550 1585                              u5470 1542                              u4751 0F7A  
                            u4735 0F0D                              u4671 0DE8                              u4655 0D94  
                            u4591 0C66                              u4831 104A                              u5391 07F1  
                            u4911 0321                              u5711 170B                              u5631 1630  
                            u5551 1584                              u5471 1541                              u4760 0FA5  
                            u4680 0E2C                              u4840 1072                              u4920 0328  
                            u5720 1712                              u5640 1643                              u5560 1592  
                            u5480 1548                              u4761 0FA4                              u4745 0F50  
                            u4681 0E2B                              u4841 1071                              u4921 0327  
                            u5721 1711                              u5641 1642                              u5561 1591  
                            u5481 1547                              u4770 0FB8                              u4690 0E53  
                            u4850 115F                              u4930 032E                              u5730 1739  
                            u5650 1655                              u5570 1598                              u5490 1552  
                            u4771 0FB7                              u4691 0E52                              u4675 0DE5  
                            u4851 115E                              u4931 032D                              u5731 1738  
                            u5651 1654                              u5571 1597                              u5491 1551  
                            u4780 0FD0                              u4860 1EB2                              u4940 0335  
                            u5740 175F                              u5660 166D                              u5580 15D7  
                            u4781 0FCF                              u4765 0FA1                              u4685 0E28  
                            u4861 1EB1                              u4941 0334                              u5741 175E  
                            u5661 166C                              u5581 15D6                              u3990 1DD5  
                            u4790 0FDC                              u4870 1ECC                              u4950 0343  
                            u5750 1785                              u5670 1671                              u5590 15E9  
                            u3991 1DD4                              u5807 0828                              u4791 0FDB  
                            u4871 1ECB                              u4951 0342                              u5751 1784  
                            u5671 1670                              u5591 15E8                              u4880 1F7D  
                            u4960 0349                              u5760 17AB                              u5680 1675  
                            u5817 0840                              u4881 1F7C                              u4961 0348  
                            u5761 17AA                              u5681 1674                              u4890 1FC0  
                            u4970 0350                              u5770 17D7                              u5690 16B5  
                            u5827 0849                              u4891 1FBF                              u4971 034F  
                            u5771 17D6                              u5691 16B4                              u4980 035D  
                            u5780 17DB                              u5837 0862                              u4981 035C  
                            u5781 17DA                              u4990 036A                              u5790 17DF  
                            u4991 0369                              u5791 17DE                              _TEMP 0056  
                            _SPEN 00C7                              _WREN 0C62                              _TXEN 04C5  
                            _TXIF 0064         ??_receive_reply_nodisplay 0072                              _main 141A  
                            _mode 0319                              btemp 007E                      lcd_goto@data 007A  
                            start 0000                 uart_write@channel 0073             __size_of_store_eeprom 0039  
                           ?_main 0070         __size_of_clear_attendance 025A                             ?_mode 0070  
                           _EEADR 010D                             STR_10 1956                             STR_11 18CE  
                           STR_20 1A76                             STR_12 1967                             STR_21 1A10  
                           STR_13 19EF                             STR_22 1AB1                             STR_30 1857  
                           STR_14 1824                             STR_15 1A10                             STR_31 1978  
                           STR_23 1934                             STR_16 1989                             STR_32 18DF  
                           STR_40 18BD                             STR_24 18AC                             STR_25 1A4D  
                           STR_33 1A53                             STR_17 19CD                             STR_41 1813  
                           STR_34 1868                             STR_26 18AC                             STR_42 18BD  
                           STR_50 1A87                             STR_18 1A2C                             STR_43 1813  
                           STR_35 1857                             STR_27 1A4D                             STR_19 1A19  
                           STR_51 1A6B                             STR_60 1A2C                             STR_52 1A1E  
                           STR_28 19DE                             STR_44 188A                             STR_36 1879  
                           STR_61 189B                             STR_53 1A47                             STR_45 189B  
                           STR_29 1868                             STR_37 1835                             STR_62 199A  
                           STR_54 1A7F                             STR_38 19BC                             STR_46 199A  
                           STR_63 189B                             STR_47 189B                             STR_55 1A5F  
                           STR_39 1945                             STR_64 19AB                             STR_56 1AAB  
                           STR_48 19AB                             STR_57 19CD                             STR_49 1A9E  
                           STR_65 1A00                             STR_58 1A2C                             STR_66 1800  
                           STR_59 19CD                             STR_67 19DE                             STR_68 1868  
                           STR_69 1A8F                             _CARRY 0018                             _RCREG 001A  
                           _SPBRG 0099                             _PORTB 0006                             _TRISA 0085  
                           _TRISB 0086                             _TRISC 0087                             _TXREG 0019  
                 ?_display_status 007C                   __end_of_lcd_clr 1CFE                             _admin 02C9  
                           _delay 1DCD                             _error 02CB                 upload_GUI@address 0078  
                           pclath 000A                             status 0003                             wtemp0 007E  
                    _store_eeprom 1E33                      __end_of_main 1800                      __end_of_mode 0800  
                ?_view_attendance 0070                    upload_HT@count 0049   __end_of_receive_reply_nodisplay 1D80  
                          ??_main 004D                            ??_mode 004A                       ?_CheckAdmin 0070  
                          ?_delay 0070                      ?_send_config 0070                            _ADCON1 009F  
                          _EEDATA 010C                            _EECON1 018C                            _EECON2 018D  
                    ?_send_string 0079                        _ResetAdmin 0032                            _TRISC0 0438  
                          _TRISC1 0439                            _AddNew 1F30                  __end_of_lcd_goto 0821  
                          _allign 1D13                   _init_attendance 086D                         ??_lcd_clr 0079  
                __end_of_send_cmd 1EA5                    __pcstackCOMMON 0070                      __pidataBANK0 0003  
                    __pidataBANK1 1DA5               __size_of_CheckAdmin 0047                     __end_of_delay 1DFD  
                 upload_GUI@count 0079                  _clear_attendance 00BF                   get_eeprom@value 0072  
                         ??_delay 0074                    receive_reply@i 0023                        __pbssBANK0 004E  
              get_eeprom@location 0071                       ?_ResetAdmin 0070                           ?_AddNew 0070  
         __end_of_init_attendance 0982                        __pmaintext 141A                      _day_location 0057  
                         ?_allign 0070                __size_of_send_char 0025            __size_of_receive_reply 0044  
                ??_display_status 007E                __size_of_uart_init 0016                __size_of_uart_send 000C  
                      _get_eeprom 1CFE                       send_cmd@CHK 0075                       send_cmd@CMD 0076  
                      _array_resp 004E                         ?_lcd_goto 0070                __size_of_upload_HT 0429  
            __size_of_send_config 0025                   __size_of_AddNew 00D0              __size_of_send_string 0036  
                       ?_send_cmd 0071              upload_HT@array_title 0020                   __size_of_allign 0023  
                      _dummy_byte 0058                           _lcd_clr 1CEA               __size_of_ResetAdmin 008D  
                      _mode_enter 02CE                        _mode_count 005D               display_status@data0 007C  
                    ??_CheckAdmin 0024          ?_receive_reply_nodisplay 0070                        ??_lcd_goto 0079  
                   _receive_reply 1EA5              end_of_initialization 002E                 __end_of_send_char 1DA5  
                   ?_uart_receive 0070                           init_ram 1CDD                  uart_init@channel 0070  
               __end_of_uart_init 101B                 __end_of_uart_send 1CCA                        ??_send_cmd 0074  
                ?_init_attendance 0070                __end_of_CheckAdmin 1F30                      __pstringtext 1800  
                store_eeprom@data 0072                     send_char@data 0078                 __end_of_upload_HT 1000  
                      _uart_write 0821          __size_of_view_attendance 0223                       ?_get_eeprom 0070  
                     uart_write@i 0074                    ?_receive_reply 0070              uart_receive@rec_data 0071  
                  ??_uart_receive 0070                        _upload_GUI 0982          __end_of_clear_attendance 0319  
                  __end_of_AddNew 2000                     _export_select 02CC                    __end_of_allign 1D36  
                   __pbitbssBANK0 02C8               start_initialization 0007                     upload_HT@F567 00A0  
                upload_HT@address 0048                      ??_ResetAdmin 0027                          ??_AddNew 0024  
             __size_of_get_eeprom 0015                          ??_allign 0075                       __pdataBANK0 005A  
                     __pdataBANK1 00A0                       ?_uart_write 0070                __end_of_ResetAdmin 00BF  
                   __pcstackBANK0 0020                   ??_receive_reply 0021                 ??_view_attendance 007C  
               __size_of_lcd_goto 001D                       ?_upload_GUI 0070                    _usertype_enter 02CF  
            store_eeprom@location 0070                         _day_enter 02CA                         _day_count 005B  
                   ?_store_eeprom 0070                 __size_of_send_cmd 0039                         __ptext561 0319  
                       __ptext570 0982                         __ptext562 0032                         __ptext571 1DFD  
                       __ptext563 1F30                         __ptext580 1D36                         __ptext572 0804  
                       __ptext564 1EE9                         __ptext581 1CCA                         __ptext573 1CEA  
                       __ptext565 1EA5                         __ptext582 1CBE                         __ptext574 0821  
                       __ptext566 101B                         __ptext583 1E33                         __ptext575 00BF  
                       __ptext567 0BD7                         __ptext584 1CFE                         __ptext576 1D80  
                       __ptext568 11F7                         __ptext585 1005                         __ptext577 086D  
                       __ptext569 1D13                         __ptext586 1DCD                         __ptext578 1D5B  
                       __ptext587 0000                         __ptext579 1E6C                        send_cmd@P1 0071  
                      send_cmd@P2 0072                        send_cmd@P3 0073                         __pstrings 1AB7  
            __end_of_uart_receive 1CD9                          ?_lcd_clr 0070                     ??_send_config 0078  
                  __size_of_delay 0030                         delay@data 0070                     ??_send_string 007B  
              display_status@data 007D                  view_attendance@x 007D                display_status@type 0020  
             __size_of_uart_write 004C                         _send_char 1D80                    ??_store_eeprom 0071  
__size_of_receive_reply_nodisplay 0025                         _uart_init 1005                         _uart_send 1CBE  
                  _location_enter 02CD                        AddNew@data 0026                       __stringbase 1AC9  
             __size_of_upload_GUI 0255                         _upload_HT 0BD7                      ??_get_eeprom 0070  
                    allign@Allign 0076           __size_of_display_status 01DC               __end_of_send_config 1D5B  
               ?_clear_attendance 0070                        ?_send_char 0070                      send_string@i 007B  
              ??_clear_attendance 0073                      send_string@s 0079               __end_of_send_string 1E33  
                       init_fetch 1CD9                __end_of_get_eeprom 1D13                        ?_uart_init 0070  
                      ?_uart_send 0070          __size_of_init_attendance 0115                  __size_of_lcd_clr 0014  
                      ?_upload_HT 0070          receive_reply_nodisplay@i 0073                          _lcd_goto 0804  
                   __size_of_main 03E6                     __size_of_mode 04E7                          _location 005C  
                        _send_cmd 1E6C             __size_of_uart_receive 000F                      ??_uart_write 0071  
                 _view_attendance 11F7                          mode@data 004C              __end_of_store_eeprom 1E6C  
                     _send_config 1D36                       _send_string 1DFD                      ??_upload_GUI 0075  
                    _uart_receive 1CCA                       ??_send_char 0078                __end_of_uart_write 086D  
         _receive_reply_nodisplay 1D5B                         stringcode 1AC1                       ??_uart_init 0070  
                     ??_uart_send 0070                        _GUIcontrol 02C8                     uart_send@data 0070  
                     ??_upload_HT 0077                __end_of_upload_GUI 0BD7                          stringtab 1AB7  
               ??_init_attendance 0073                    _display_status 101B             __end_of_receive_reply 1EE9  
