

HI-TECH Software PIC LITE Macro Assembler V1.00 build 12136 
                                                                                               Wed Jun 27 12:59:11 2012

HI-TECH Software Omniscient Code Generator (Lite mode) build 12136
     1  0000                     opt subtitle "HI-TECH Software Omniscient Code Generator (Lite mode) build 12136"
     2                           
     3                           opt pagewidth 120
     4                           
     5                           	opt lm
     6                           
     7                           	processor	16F876A
     8                           clrc	macro
     9                           	bcf	3,0
    10  0000                     	endm
    11                           clrz	macro
    12                           	bcf	3,2
    13  0000                     	endm
    14                           setc	macro
    15                           	bsf	3,0
    16  0000                     	endm
    17                           setz	macro
    18                           	bsf	3,2
    19  0000                     	endm
    20                           skipc	macro
    21                           	btfss	3,0
    22  0000                     	endm
    23                           skipz	macro
    24                           	btfss	3,2
    25  0000                     	endm
    26                           skipnc	macro
    27                           	btfsc	3,0
    28  0000                     	endm
    29                           skipnz	macro
    30                           	btfsc	3,2
    31  0000                     	endm
    32  0000                     indf	equ	0
    33  0000                     indf0	equ	0
    34  0002                     pc	equ	2
    35  0002                     pcl	equ	2
    36  0003                     status	equ	3
    37  0004                     fsr	equ	4
    38  0004                     fsr0	equ	4
    39  0001                     c	equ	1
    40  0000                     z	equ	0
    41  000A                     pclath	equ	10
    42                           # 5 "PR29.c"
    43                           psect config,class=CONFIG,delta=2 ;# 
    44                           # 5 "PR29.c"
    45  2007  3F32               dw 0x3F32 ;# 
    46                           	FNCALL	_main,_send_config
    47                           	FNCALL	_main,_lcd_clr
    48                           	FNCALL	_main,_lcd_goto
    49                           	FNCALL	_main,_send_string
    50                           	FNCALL	_main,_delay
    51                           	FNCALL	_main,_ResetAdmin
    52                           	FNCALL	_main,_send_cmd
    53                           	FNCALL	_main,_receive_reply_nodisplay
    54                           	FNCALL	_main,_uart_init
    55                           	FNCALL	_main,_init_attendance
    56                           	FNCALL	_main,_CheckAdmin
    57                           	FNCALL	_main,_send_char
    58                           	FNCALL	_main,_get_eeprom
    59                           	FNCALL	_main,_receive_reply
    60                           	FNCALL	_main,_store_eeprom
    61                           	FNCALL	_main,_mode
    62                           	FNCALL	_ResetAdmin,_lcd_goto
    63                           	FNCALL	_ResetAdmin,_send_string
    64                           	FNCALL	_ResetAdmin,_delay
    65                           	FNCALL	_ResetAdmin,_send_cmd
    66                           	FNCALL	_ResetAdmin,_receive_reply
    67                           	FNCALL	_ResetAdmin,_AddNew
    68                           	FNCALL	_receive_reply_nodisplay,_uart_receive
    69                           	FNCALL	_init_attendance,_store_eeprom
    70                           	FNCALL	_mode,_lcd_clr
    71                           	FNCALL	_mode,_store_eeprom
    72                           	FNCALL	_mode,_lcd_goto
    73                           	FNCALL	_mode,_send_string
    74                           	FNCALL	_mode,_send_char
    75                           	FNCALL	_mode,_delay
    76                           	FNCALL	_mode,_AddNew
    77                           	FNCALL	_mode,_send_cmd
    78                           	FNCALL	_mode,_receive_reply
    79                           	FNCALL	_mode,_CheckAdmin
    80                           	FNCALL	_mode,_view_attendance
    81                           	FNCALL	_mode,_clear_attendance
    82                           	FNCALL	_mode,_upload_GUI
    83                           	FNCALL	_mode,_upload_HT
    84                           	FNCALL	_CheckAdmin,_send_cmd
    85                           	FNCALL	_CheckAdmin,_lcd_goto
    86                           	FNCALL	_CheckAdmin,_send_string
    87                           	FNCALL	_CheckAdmin,_delay
    88                           	FNCALL	_CheckAdmin,_receive_reply
    89                           	FNCALL	_AddNew,_send_cmd
    90                           	FNCALL	_AddNew,_lcd_goto
    91                           	FNCALL	_AddNew,_send_string
    92                           	FNCALL	_AddNew,_delay
    93                           	FNCALL	_AddNew,_receive_reply
    94                           	FNCALL	_AddNew,_lcd_clr
    95                           	FNCALL	_send_cmd,_uart_send
    96                           	FNCALL	_receive_reply,_uart_receive
    97                           	FNCALL	_receive_reply,_display_status
    98                           	FNCALL	_receive_reply,_delay
    99                           	FNCALL	_view_attendance,_lcd_clr
   100                           	FNCALL	_view_attendance,_lcd_goto
   101                           	FNCALL	_view_attendance,_send_string
   102                           	FNCALL	_view_attendance,_get_eeprom
   103                           	FNCALL	_view_attendance,_send_char
   104                           	FNCALL	_view_attendance,_delay
   105                           	FNCALL	_clear_attendance,_store_eeprom
   106                           	FNCALL	_upload_GUI,_get_eeprom
   107                           	FNCALL	_upload_GUI,_uart_write
   108                           	FNCALL	_upload_HT,_uart_write
   109                           	FNCALL	_upload_HT,_allign
   110                           	FNCALL	_upload_HT,_get_eeprom
   111                           	FNCALL	_display_status,_lcd_clr
   112                           	FNCALL	_display_status,_lcd_goto
   113                           	FNCALL	_display_status,_send_string
   114                           	FNCALL	_display_status,_delay
   115                           	FNCALL	_display_status,_send_char
   116                           	FNCALL	_lcd_clr,_send_config
   117                           	FNCALL	_lcd_clr,_delay
   118                           	FNCALL	_lcd_goto,_send_config
   119                           	FNCALL	_send_config,_delay
   120                           	FNCALL	_send_string,_send_char
   121                           	FNCALL	_send_char,_delay
   122                           	FNCALL	_allign,_uart_write
   123                           	FNROOT	_main
   124                           	global	_DAY
   125                           	global	_day_count
   126                           	global	_location
   127                           	global	_mode_count
   128                           	global	upload_HT@F1243
   129                           psect	idataBANK0,class=CODE,space=0,delta=2
   130                           global __pidataBANK0
   131  12B7                     __pidataBANK0:
   132                           	file	"PR29.c"
   133                           	line	66
   134                           
   135                           ;initializer for _DAY
   136  12B7  3401               	retlw	01h
   137                           	line	64
   138                           
   139                           ;initializer for _day_count
   140  12B8  3401               	retlw	01h
   141                           	line	63
   142                           
   143                           ;initializer for _location
   144  12B9  3401               	retlw	01h
   145                           	line	68
   146                           
   147                           ;initializer for _mode_count
   148  12BA  3401               	retlw	01h
   149                           psect	idataBANK1,class=CODE,space=0,delta=2
   150                           global __pidataBANK1
   151  12BB                     __pidataBANK1:
   152                           	line	969
   153                           
   154                           ;initializer for upload_HT@F1243
   155  12BB  342B               	retlw	02Bh
   156  12BC  342D               	retlw	02Dh
   157  12BD  342B               	retlw	02Bh
   158  12BE  342D               	retlw	02Dh
   159  12BF  342B               	retlw	02Bh
   160  12C0  342D               	retlw	02Dh
   161  12C1  3420               	retlw	020h
   162  12C2  3441               	retlw	041h
   163  12C3  3474               	retlw	074h
   164  12C4  3474               	retlw	074h
   165  12C5  3465               	retlw	065h
   166  12C6  346E               	retlw	06Eh
   167  12C7  3464               	retlw	064h
   168  12C8  3461               	retlw	061h
   169  12C9  346E               	retlw	06Eh
   170  12CA  3463               	retlw	063h
   171  12CB  3465               	retlw	065h
   172  12CC  3420               	retlw	020h
   173  12CD  344C               	retlw	04Ch
   174  12CE  3469               	retlw	069h
   175  12CF  3473               	retlw	073h
   176  12D0  3474               	retlw	074h
   177  12D1  3420               	retlw	020h
   178  12D2  342D               	retlw	02Dh
   179  12D3  342B               	retlw	02Bh
   180  12D4  342D               	retlw	02Dh
   181  12D5  342B               	retlw	02Bh
   182  12D6  342D               	retlw	02Dh
   183  12D7  3420               	retlw	020h
   184  12D8  3443               	retlw	043h
   185  12D9  3479               	retlw	079h
   186  12DA  3474               	retlw	074h
   187  12DB  3472               	retlw	072h
   188  12DC  346F               	retlw	06Fh
   189  12DD  346E               	retlw	06Eh
   190  12DE  3420               	retlw	020h
   191  12DF  3450               	retlw	050h
   192  12E0  3452               	retlw	052h
   193  12E1  3432               	retlw	032h
   194  12E2  3439               	retlw	039h
   195                           	global	_array_resp
   196                           	global	_TEMP
   197                           	global	_day_location
   198                           	global	_dummy_byte
   199                           	global	_GUIcontrol
   200                           	global	_admin
   201                           	global	_day_enter
   202                           	global	_error
   203                           	global	_export_select
   204                           	global	_location_enter
   205                           	global	_mode_enter
   206                           	global	_usertype_enter
   207                           	global	_PORTB
   208  0006                     _PORTB	set	0x6
   209                           	global	_RCREG
   210  001A                     _RCREG	set	0x1A
   211                           	global	_TXREG
   212  0019                     _TXREG	set	0x19
   213                           	global	_CARRY
   214  0018                     _CARRY	set	0x18
   215                           	global	_CREN
   216  00C4                     _CREN	set	0xC4
   217                           	global	_GIE
   218  005F                     _GIE	set	0x5F
   219                           	global	_RA0
   220  0028                     _RA0	set	0x28
   221                           	global	_RA1
   222  0029                     _RA1	set	0x29
   223                           	global	_RA2
   224  002A                     _RA2	set	0x2A
   225                           	global	_RA3
   226  002B                     _RA3	set	0x2B
   227                           	global	_RA4
   228  002C                     _RA4	set	0x2C
   229                           	global	_RA5
   230  002D                     _RA5	set	0x2D
   231                           	global	_RC0
   232  0038                     _RC0	set	0x38
   233                           	global	_RC1
   234  0039                     _RC1	set	0x39
   235                           	global	_RC4
   236  003C                     _RC4	set	0x3C
   237                           	global	_RC5
   238  003D                     _RC5	set	0x3D
   239                           	global	_RCIF
   240  0065                     _RCIF	set	0x65
   241                           	global	_SPEN
   242  00C7                     _SPEN	set	0xC7
   243                           	global	_TXIF
   244  0064                     _TXIF	set	0x64
   245                           	global	_ADCON1
   246  009F                     _ADCON1	set	0x9F
   247                           	global	_SPBRG
   248  0099                     _SPBRG	set	0x99
   249                           	global	_TRISA
   250  0085                     _TRISA	set	0x85
   251                           	global	_TRISB
   252  0086                     _TRISB	set	0x86
   253                           	global	_TRISC
   254  0087                     _TRISC	set	0x87
   255                           	global	_BRGH
   256  04C2                     _BRGH	set	0x4C2
   257                           	global	_TRISC0
   258  0438                     _TRISC0	set	0x438
   259                           	global	_TRISC1
   260  0439                     _TRISC1	set	0x439
   261                           	global	_TXEN
   262  04C5                     _TXEN	set	0x4C5
   263                           	global	_EEADR
   264  010D                     _EEADR	set	0x10D
   265                           	global	_EEDATA
   266  010C                     _EEDATA	set	0x10C
   267                           	global	_EECON1
   268  018C                     _EECON1	set	0x18C
   269                           	global	_EECON2
   270  018D                     _EECON2	set	0x18D
   271                           	global	_RD
   272  0C60                     _RD	set	0xC60
   273                           	global	_WR
   274  0C61                     _WR	set	0xC61
   275                           	global	_WREN
   276  0C62                     _WREN	set	0xC62
   277                           psect	strings,class=STRING,delta=2
   278                           global __pstrings
   279  1800                     __pstrings:
   280                           ;	global	stringtab,__stringbase
   281  1800                     stringtab:
   282                           ;	String table - string pointers are 2 bytes each
   283  1800  1BFF               	btfsc	(btemp+1),7
   284  1801  280A               	ljmp	stringcode
   285  1802  1383               	bcf	status,7
   286  1803  187F               	btfsc	(btemp+1),0
   287  1804  1783               	bsf	status,7
   288  1805  0800               	movf	indf,w
   289  1806  0A84               	incf fsr
   290  1807  1903               skipnz
   291  1808  0AFF               incf btemp+1
   292  1809  0008               	return
   293  180A                     stringcode:
   294  180A  087F               	movf btemp+1,w
   295  180B  397F               andlw 7Fh
   296  180C  008A               movwf	pclath
   297  180D  0804               	movf	fsr,w
   298  180E  0A84               incf fsr
   299  180F  1903               skipnz
   300  1810  0AFF               incf btemp+1
   301  1811  0082               	movwf pc
   302  1812                     __stringbase:
   303                           psect	stringtext,class=STRCODE,delta=2,reloc=256
   304                           global __pstringtext
   305  1000                     __pstringtext:
   306                           	
   307  1000                     STR_66:	
   308  1000  3452               	retlw	82	;'R'
   309  1001  3465               	retlw	101	;'e'
   310  1002  3473               	retlw	115	;'s'
   311  1003  3465               	retlw	101	;'e'
   312  1004  3474               	retlw	116	;'t'
   313  1005  3474               	retlw	116	;'t'
   314  1006  3469               	retlw	105	;'i'
   315  1007  346E               	retlw	110	;'n'
   316  1008  3467               	retlw	103	;'g'
   317  1009  3420               	retlw	32	;' '
   318  100A  3441               	retlw	65	;'A'
   319  100B  3464               	retlw	100	;'d'
   320  100C  346D               	retlw	109	;'m'
   321  100D  3469               	retlw	105	;'i'
   322  100E  346E               	retlw	110	;'n'
   323  100F  342E               	retlw	46	;'.'
   324  1010  342E               	retlw	46	;'.'
   325  1011  342E               	retlw	46	;'.'
   326  1012  3400               	retlw	0
   327                           psect	stringtext
   328                           	
   329  1013                     STR_41:	
   330  1013  3444               	retlw	68	;'D'
   331  1014  346F               	retlw	111	;'o'
   332  1015  346E               	retlw	110	;'n'
   333  1016  3465               	retlw	101	;'e'
   334  1017  3420               	retlw	32	;' '
   335  1018  3420               	retlw	32	;' '
   336  1019  3420               	retlw	32	;' '
   337  101A  3420               	retlw	32	;' '
   338  101B  3420               	retlw	32	;' '
   339  101C  3420               	retlw	32	;' '
   340  101D  3420               	retlw	32	;' '
   341  101E  3420               	retlw	32	;' '
   342  101F  3420               	retlw	32	;' '
   343  1020  3420               	retlw	32	;' '
   344  1021  3420               	retlw	32	;' '
   345  1022  3420               	retlw	32	;' '
   346  1023  3400               	retlw	0
   347                           psect	stringtext
   348                           	
   349  1024                     STR_14:	
   350  1024  3445               	retlw	69	;'E'
   351  1025  3478               	retlw	120	;'x'
   352  1026  3470               	retlw	112	;'p'
   353  1027  346F               	retlw	111	;'o'
   354  1028  3472               	retlw	114	;'r'
   355  1029  3474               	retlw	116	;'t'
   356  102A  3420               	retlw	32	;' '
   357  102B  3420               	retlw	32	;' '
   358  102C  3420               	retlw	32	;' '
   359  102D  3420               	retlw	32	;' '
   360  102E  3420               	retlw	32	;' '
   361  102F  3420               	retlw	32	;' '
   362  1030  3420               	retlw	32	;' '
   363  1031  3420               	retlw	32	;' '
   364  1032  3420               	retlw	32	;' '
   365  1033  3420               	retlw	32	;' '
   366  1034  3400               	retlw	0
   367                           psect	stringtext
   368                           	
   369  1035                     STR_37:	
   370  1035  3443               	retlw	67	;'C'
   371  1036  346C               	retlw	108	;'l'
   372  1037  3465               	retlw	101	;'e'
   373  1038  3461               	retlw	97	;'a'
   374  1039  3472               	retlw	114	;'r'
   375  103A  3465               	retlw	101	;'e'
   376  103B  3464               	retlw	100	;'d'
   377  103C  3420               	retlw	32	;' '
   378  103D  3420               	retlw	32	;' '
   379  103E  3420               	retlw	32	;' '
   380  103F  3420               	retlw	32	;' '
   381  1040  3420               	retlw	32	;' '
   382  1041  3420               	retlw	32	;' '
   383  1042  3420               	retlw	32	;' '
   384  1043  3420               	retlw	32	;' '
   385  1044  3420               	retlw	32	;' '
   386  1045  3400               	retlw	0
   387                           psect	stringtext
   388                           	
   389  1046                     STR_7:	
   390  1046  3453               	retlw	83	;'S'
   391  1047  3465               	retlw	101	;'e'
   392  1048  3474               	retlw	116	;'t'
   393  1049  3420               	retlw	32	;' '
   394  104A  3444               	retlw	68	;'D'
   395  104B  3461               	retlw	97	;'a'
   396  104C  3479               	retlw	121	;'y'
   397  104D  3420               	retlw	32	;' '
   398  104E  3420               	retlw	32	;' '
   399  104F  3420               	retlw	32	;' '
   400  1050  3420               	retlw	32	;' '
   401  1051  3420               	retlw	32	;' '
   402  1052  3420               	retlw	32	;' '
   403  1053  3420               	retlw	32	;' '
   404  1054  3420               	retlw	32	;' '
   405  1055  3420               	retlw	32	;' '
   406  1056  3400               	retlw	0
   407                           psect	stringtext
   408                           	
   409  1057                     STR_30:	
   410  1057  3453               	retlw	83	;'S'
   411  1058  3474               	retlw	116	;'t'
   412  1059  3461               	retlw	97	;'a'
   413  105A  346E               	retlw	110	;'n'
   414  105B  3464               	retlw	100	;'d'
   415  105C  3462               	retlw	98	;'b'
   416  105D  3479               	retlw	121	;'y'
   417  105E  3420               	retlw	32	;' '
   418  105F  3420               	retlw	32	;' '
   419  1060  3420               	retlw	32	;' '
   420  1061  3420               	retlw	32	;' '
   421  1062  3420               	retlw	32	;' '
   422  1063  3420               	retlw	32	;' '
   423  1064  3420               	retlw	32	;' '
   424  1065  3420               	retlw	32	;' '
   425  1066  3420               	retlw	32	;' '
   426  1067  3400               	retlw	0
   427                           psect	stringtext
   428                           	
   429  1068                     STR_29:	
   430  1068  344E               	retlw	78	;'N'
   431  1069  3465               	retlw	101	;'e'
   432  106A  3477               	retlw	119	;'w'
   433  106B  3420               	retlw	32	;' '
   434  106C  3441               	retlw	65	;'A'
   435  106D  3464               	retlw	100	;'d'
   436  106E  346D               	retlw	109	;'m'
   437  106F  3469               	retlw	105	;'i'
   438  1070  346E               	retlw	110	;'n'
   439  1071  3420               	retlw	32	;' '
   440  1072  3420               	retlw	32	;' '
   441  1073  3420               	retlw	32	;' '
   442  1074  3420               	retlw	32	;' '
   443  1075  3420               	retlw	32	;' '
   444  1076  3420               	retlw	32	;' '
   445  1077  3420               	retlw	32	;' '
   446  1078  3400               	retlw	0
   447                           psect	stringtext
   448                           	
   449  1079                     STR_36:	
   450  1079  3441               	retlw	65	;'A'
   451  107A  3474               	retlw	116	;'t'
   452  107B  3474               	retlw	116	;'t'
   453  107C  3465               	retlw	101	;'e'
   454  107D  346E               	retlw	110	;'n'
   455  107E  3464               	retlw	100	;'d'
   456  107F  3461               	retlw	97	;'a'
   457  1080  346E               	retlw	110	;'n'
   458  1081  3463               	retlw	99	;'c'
   459  1082  3465               	retlw	101	;'e'
   460  1083  3420               	retlw	32	;' '
   461  1084  3420               	retlw	32	;' '
   462  1085  3420               	retlw	32	;' '
   463  1086  3420               	retlw	32	;' '
   464  1087  3420               	retlw	32	;' '
   465  1088  3420               	retlw	32	;' '
   466  1089  3400               	retlw	0
   467                           psect	stringtext
   468                           	
   469  108A                     STR_44:	
   470  108A  3453               	retlw	83	;'S'
   471  108B  3475               	retlw	117	;'u'
   472  108C  3463               	retlw	99	;'c'
   473  108D  3463               	retlw	99	;'c'
   474  108E  3465               	retlw	101	;'e'
   475  108F  3473               	retlw	115	;'s'
   476  1090  3473               	retlw	115	;'s'
   477  1091  3466               	retlw	102	;'f'
   478  1092  3475               	retlw	117	;'u'
   479  1093  346C               	retlw	108	;'l'
   480  1094  3420               	retlw	32	;' '
   481  1095  3420               	retlw	32	;' '
   482  1096  3420               	retlw	32	;' '
   483  1097  3420               	retlw	32	;' '
   484  1098  3420               	retlw	32	;' '
   485  1099  3420               	retlw	32	;' '
   486  109A  3400               	retlw	0
   487                           psect	stringtext
   488                           	
   489  109B                     STR_45:	
   490  109B  3453               	retlw	83	;'S'
   491  109C  3463               	retlw	99	;'c'
   492  109D  3461               	retlw	97	;'a'
   493  109E  346E               	retlw	110	;'n'
   494  109F  346E               	retlw	110	;'n'
   495  10A0  3469               	retlw	105	;'i'
   496  10A1  346E               	retlw	110	;'n'
   497  10A2  3467               	retlw	103	;'g'
   498  10A3  342E               	retlw	46	;'.'
   499  10A4  342E               	retlw	46	;'.'
   500  10A5  342E               	retlw	46	;'.'
   501  10A6  3420               	retlw	32	;' '
   502  10A7  3420               	retlw	32	;' '
   503  10A8  3420               	retlw	32	;' '
   504  10A9  3420               	retlw	32	;' '
   505  10AA  3420               	retlw	32	;' '
   506  10AB  3400               	retlw	0
   507                           psect	stringtext
   508                           	
   509  10AC                     STR_24:	
   510  10AC  3443               	retlw	67	;'C'
   511  10AD  3468               	retlw	104	;'h'
   512  10AE  346F               	retlw	111	;'o'
   513  10AF  346F               	retlw	111	;'o'
   514  10B0  3473               	retlw	115	;'s'
   515  10B1  3465               	retlw	101	;'e'
   516  10B2  3420               	retlw	32	;' '
   517  10B3  3455               	retlw	85	;'U'
   518  10B4  3473               	retlw	115	;'s'
   519  10B5  3465               	retlw	101	;'e'
   520  10B6  3472               	retlw	114	;'r'
   521  10B7  3420               	retlw	32	;' '
   522  10B8  3420               	retlw	32	;' '
   523  10B9  3420               	retlw	32	;' '
   524  10BA  3420               	retlw	32	;' '
   525  10BB  3420               	retlw	32	;' '
   526  10BC  3400               	retlw	0
   527                           psect	stringtext
   528                           	
   529  10BD                     STR_40:	
   530  10BD  3455               	retlw	85	;'U'
   531  10BE  3470               	retlw	112	;'p'
   532  10BF  346C               	retlw	108	;'l'
   533  10C0  346F               	retlw	111	;'o'
   534  10C1  3461               	retlw	97	;'a'
   535  10C2  3464               	retlw	100	;'d'
   536  10C3  3469               	retlw	105	;'i'
   537  10C4  346E               	retlw	110	;'n'
   538  10C5  3467               	retlw	103	;'g'
   539  10C6  342E               	retlw	46	;'.'
   540  10C7  342E               	retlw	46	;'.'
   541  10C8  342E               	retlw	46	;'.'
   542  10C9  3420               	retlw	32	;' '
   543  10CA  3420               	retlw	32	;' '
   544  10CB  3420               	retlw	32	;' '
   545  10CC  3420               	retlw	32	;' '
   546  10CD  3400               	retlw	0
   547                           psect	stringtext
   548                           	
   549  10CE                     STR_11:	
   550  10CE  3443               	retlw	67	;'C'
   551  10CF  3468               	retlw	104	;'h'
   552  10D0  3461               	retlw	97	;'a'
   553  10D1  346E               	retlw	110	;'n'
   554  10D2  3467               	retlw	103	;'g'
   555  10D3  3465               	retlw	101	;'e'
   556  10D4  3420               	retlw	32	;' '
   557  10D5  3441               	retlw	65	;'A'
   558  10D6  3464               	retlw	100	;'d'
   559  10D7  346D               	retlw	109	;'m'
   560  10D8  3469               	retlw	105	;'i'
   561  10D9  346E               	retlw	110	;'n'
   562  10DA  3420               	retlw	32	;' '
   563  10DB  3420               	retlw	32	;' '
   564  10DC  3420               	retlw	32	;' '
   565  10DD  3420               	retlw	32	;' '
   566  10DE  3400               	retlw	0
   567                           psect	stringtext
   568                           	
   569  10DF                     STR_32:	
   570  10DF  3446               	retlw	70	;'F'
   571  10E0  346F               	retlw	111	;'o'
   572  10E1  3472               	retlw	114	;'r'
   573  10E2  346D               	retlw	109	;'m'
   574  10E3  3461               	retlw	97	;'a'
   575  10E4  346C               	retlw	108	;'l'
   576  10E5  3420               	retlw	32	;' '
   577  10E6  3441               	retlw	65	;'A'
   578  10E7  3464               	retlw	100	;'d'
   579  10E8  346D               	retlw	109	;'m'
   580  10E9  3469               	retlw	105	;'i'
   581  10EA  346E               	retlw	110	;'n'
   582  10EB  3420               	retlw	32	;' '
   583  10EC  3420               	retlw	32	;' '
   584  10ED  3420               	retlw	32	;' '
   585  10EE  3420               	retlw	32	;' '
   586  10EF  3400               	retlw	0
   587                           psect	stringtext
   588                           	
   589  10F0                     STR_9:	
   590  10F0  3444               	retlw	68	;'D'
   591  10F1  3465               	retlw	101	;'e'
   592  10F2  346C               	retlw	108	;'l'
   593  10F3  3465               	retlw	101	;'e'
   594  10F4  3474               	retlw	116	;'t'
   595  10F5  3465               	retlw	101	;'e'
   596  10F6  3420               	retlw	32	;' '
   597  10F7  3461               	retlw	97	;'a'
   598  10F8  3420               	retlw	32	;' '
   599  10F9  3444               	retlw	68	;'D'
   600  10FA  3461               	retlw	97	;'a'
   601  10FB  3474               	retlw	116	;'t'
   602  10FC  3461               	retlw	97	;'a'
   603  10FD  3420               	retlw	32	;' '
   604  10FE  3420               	retlw	32	;' '
   605  10FF  3420               	retlw	32	;' '
   606  1100  3400               	retlw	0
   607                           psect	stringtext
   608                           	
   609  1101                     STR_4:	
   610  1101  3432               	retlw	50	;'2'
   611  1102  342E               	retlw	46	;'.'
   612  1103  3420               	retlw	32	;' '
   613  1104  3455               	retlw	85	;'U'
   614  1105  3473               	retlw	115	;'s'
   615  1106  3465               	retlw	101	;'e'
   616  1107  3472               	retlw	114	;'r'
   617  1108  3420               	retlw	32	;' '
   618  1109  346C               	retlw	108	;'l'
   619  110A  346F               	retlw	111	;'o'
   620  110B  3467               	retlw	103	;'g'
   621  110C  3469               	retlw	105	;'i'
   622  110D  346E               	retlw	110	;'n'
   623  110E  3420               	retlw	32	;' '
   624  110F  3420               	retlw	32	;' '
   625  1110  3420               	retlw	32	;' '
   626  1111  3400               	retlw	0
   627                           psect	stringtext
   628                           	
   629  1112                     STR_8:	
   630  1112  3441               	retlw	65	;'A'
   631  1113  3464               	retlw	100	;'d'
   632  1114  3464               	retlw	100	;'d'
   633  1115  3420               	retlw	32	;' '
   634  1116  3461               	retlw	97	;'a'
   635  1117  3420               	retlw	32	;' '
   636  1118  344E               	retlw	78	;'N'
   637  1119  3465               	retlw	101	;'e'
   638  111A  3477               	retlw	119	;'w'
   639  111B  3420               	retlw	32	;' '
   640  111C  3444               	retlw	68	;'D'
   641  111D  3461               	retlw	97	;'a'
   642  111E  3474               	retlw	116	;'t'
   643  111F  3461               	retlw	97	;'a'
   644  1120  3420               	retlw	32	;' '
   645  1121  3420               	retlw	32	;' '
   646  1122  3400               	retlw	0
   647                           psect	stringtext
   648                           	
   649  1123                     STR_3:	
   650  1123  3431               	retlw	49	;'1'
   651  1124  342E               	retlw	46	;'.'
   652  1125  3420               	retlw	32	;' '
   653  1126  3441               	retlw	65	;'A'
   654  1127  3464               	retlw	100	;'d'
   655  1128  346D               	retlw	109	;'m'
   656  1129  3469               	retlw	105	;'i'
   657  112A  346E               	retlw	110	;'n'
   658  112B  3420               	retlw	32	;' '
   659  112C  346C               	retlw	108	;'l'
   660  112D  346F               	retlw	111	;'o'
   661  112E  3467               	retlw	103	;'g'
   662  112F  3469               	retlw	105	;'i'
   663  1130  346E               	retlw	110	;'n'
   664  1131  3420               	retlw	32	;' '
   665  1132  3420               	retlw	32	;' '
   666  1133  3400               	retlw	0
   667                           psect	stringtext
   668                           	
   669  1134                     STR_23:	
   670  1134  3450               	retlw	80	;'P'
   671  1135  3472               	retlw	114	;'r'
   672  1136  3465               	retlw	101	;'e'
   673  1137  3473               	retlw	115	;'s'
   674  1138  3473               	retlw	115	;'s'
   675  1139  3420               	retlw	32	;' '
   676  113A  3433               	retlw	51	;'3'
   677  113B  3420               	retlw	32	;' '
   678  113C  3474               	retlw	116	;'t'
   679  113D  346F               	retlw	111	;'o'
   680  113E  3420               	retlw	32	;' '
   681  113F  3473               	retlw	115	;'s'
   682  1140  3465               	retlw	101	;'e'
   683  1141  3474               	retlw	116	;'t'
   684  1142  3420               	retlw	32	;' '
   685  1143  3420               	retlw	32	;' '
   686  1144  3400               	retlw	0
   687                           psect	stringtext
   688                           	
   689  1145                     STR_39:	
   690  1145  3432               	retlw	50	;'2'
   691  1146  342E               	retlw	46	;'.'
   692  1147  3420               	retlw	32	;' '
   693  1148  3445               	retlw	69	;'E'
   694  1149  3478               	retlw	120	;'x'
   695  114A  3470               	retlw	112	;'p'
   696  114B  346F               	retlw	111	;'o'
   697  114C  3472               	retlw	114	;'r'
   698  114D  3474               	retlw	116	;'t'
   699  114E  3420               	retlw	32	;' '
   700  114F  3474               	retlw	116	;'t'
   701  1150  346F               	retlw	111	;'o'
   702  1151  3420               	retlw	32	;' '
   703  1152  3448               	retlw	72	;'H'
   704  1153  3454               	retlw	84	;'T'
   705  1154  3420               	retlw	32	;' '
   706  1155  3400               	retlw	0
   707                           psect	stringtext
   708                           	
   709  1156                     STR_10:	
   710  1156  3444               	retlw	68	;'D'
   711  1157  3465               	retlw	101	;'e'
   712  1158  346C               	retlw	108	;'l'
   713  1159  3465               	retlw	101	;'e'
   714  115A  3474               	retlw	116	;'t'
   715  115B  3465               	retlw	101	;'e'
   716  115C  3420               	retlw	32	;' '
   717  115D  3441               	retlw	65	;'A'
   718  115E  346C               	retlw	108	;'l'
   719  115F  346C               	retlw	108	;'l'
   720  1160  3420               	retlw	32	;' '
   721  1161  3444               	retlw	68	;'D'
   722  1162  3461               	retlw	97	;'a'
   723  1163  3474               	retlw	116	;'t'
   724  1164  3461               	retlw	97	;'a'
   725  1165  3420               	retlw	32	;' '
   726  1166  3400               	retlw	0
   727                           psect	stringtext
   728                           	
   729  1167                     STR_12:	
   730  1167  3456               	retlw	86	;'V'
   731  1168  3469               	retlw	105	;'i'
   732  1169  3465               	retlw	101	;'e'
   733  116A  3477               	retlw	119	;'w'
   734  116B  3420               	retlw	32	;' '
   735  116C  3441               	retlw	65	;'A'
   736  116D  3474               	retlw	116	;'t'
   737  116E  3474               	retlw	116	;'t'
   738  116F  3465               	retlw	101	;'e'
   739  1170  346E               	retlw	110	;'n'
   740  1171  3464               	retlw	100	;'d'
   741  1172  3461               	retlw	97	;'a'
   742  1173  346E               	retlw	110	;'n'
   743  1174  3463               	retlw	99	;'c'
   744  1175  3465               	retlw	101	;'e'
   745  1176  3420               	retlw	32	;' '
   746  1177  3400               	retlw	0
   747                           psect	stringtext
   748                           	
   749  1178                     STR_31:	
   750  1178  3456               	retlw	86	;'V'
   751  1179  3465               	retlw	101	;'e'
   752  117A  3472               	retlw	114	;'r'
   753  117B  3469               	retlw	105	;'i'
   754  117C  3466               	retlw	102	;'f'
   755  117D  3469               	retlw	105	;'i'
   756  117E  3463               	retlw	99	;'c'
   757  117F  3461               	retlw	97	;'a'
   758  1180  3474               	retlw	116	;'t'
   759  1181  3469               	retlw	105	;'i'
   760  1182  346F               	retlw	111	;'o'
   761  1183  346E               	retlw	110	;'n'
   762  1184  3420               	retlw	32	;' '
   763  1185  346F               	retlw	111	;'o'
   764  1186  3466               	retlw	102	;'f'
   765  1187  3420               	retlw	32	;' '
   766  1188  3400               	retlw	0
   767                           psect	stringtext
   768                           	
   769  1189                     STR_16:	
   770  1189  3450               	retlw	80	;'P'
   771  118A  3472               	retlw	114	;'r'
   772  118B  3465               	retlw	101	;'e'
   773  118C  3473               	retlw	115	;'s'
   774  118D  3473               	retlw	115	;'s'
   775  118E  3420               	retlw	32	;' '
   776  118F  3433               	retlw	51	;'3'
   777  1190  3420               	retlw	32	;' '
   778  1191  3474               	retlw	116	;'t'
   779  1192  346F               	retlw	111	;'o'
   780  1193  3420               	retlw	32	;' '
   781  1194  346D               	retlw	109	;'m'
   782  1195  3461               	retlw	97	;'a'
   783  1196  3472               	retlw	114	;'r'
   784  1197  346B               	retlw	107	;'k'
   785  1198  3420               	retlw	32	;' '
   786  1199  3400               	retlw	0
   787                           psect	stringtext
   788                           	
   789  119A                     STR_46:	
   790  119A  3456               	retlw	86	;'V'
   791  119B  3465               	retlw	101	;'e'
   792  119C  3472               	retlw	114	;'r'
   793  119D  3469               	retlw	105	;'i'
   794  119E  3466               	retlw	102	;'f'
   795  119F  3469               	retlw	105	;'i'
   796  11A0  3463               	retlw	99	;'c'
   797  11A1  3461               	retlw	97	;'a'
   798  11A2  3474               	retlw	116	;'t'
   799  11A3  3469               	retlw	105	;'i'
   800  11A4  346F               	retlw	111	;'o'
   801  11A5  346E               	retlw	110	;'n'
   802  11A6  3420               	retlw	32	;' '
   803  11A7  3431               	retlw	49	;'1'
   804  11A8  342F               	retlw	47	;'/'
   805  11A9  3432               	retlw	50	;'2'
   806  11AA  3400               	retlw	0
   807                           psect	stringtext
   808                           	
   809  11AB                     STR_48:	
   810  11AB  3456               	retlw	86	;'V'
   811  11AC  3465               	retlw	101	;'e'
   812  11AD  3472               	retlw	114	;'r'
   813  11AE  3469               	retlw	105	;'i'
   814  11AF  3466               	retlw	102	;'f'
   815  11B0  3469               	retlw	105	;'i'
   816  11B1  3463               	retlw	99	;'c'
   817  11B2  3461               	retlw	97	;'a'
   818  11B3  3474               	retlw	116	;'t'
   819  11B4  3469               	retlw	105	;'i'
   820  11B5  346F               	retlw	111	;'o'
   821  11B6  346E               	retlw	110	;'n'
   822  11B7  3420               	retlw	32	;' '
   823  11B8  3432               	retlw	50	;'2'
   824  11B9  342F               	retlw	47	;'/'
   825  11BA  3432               	retlw	50	;'2'
   826  11BB  3400               	retlw	0
   827                           psect	stringtext
   828                           	
   829  11BC                     STR_38:	
   830  11BC  3431               	retlw	49	;'1'
   831  11BD  342E               	retlw	46	;'.'
   832  11BE  3420               	retlw	32	;' '
   833  11BF  3445               	retlw	69	;'E'
   834  11C0  3478               	retlw	120	;'x'
   835  11C1  3470               	retlw	112	;'p'
   836  11C2  346F               	retlw	111	;'o'
   837  11C3  3472               	retlw	114	;'r'
   838  11C4  3474               	retlw	116	;'t'
   839  11C5  3420               	retlw	32	;' '
   840  11C6  3474               	retlw	116	;'t'
   841  11C7  346F               	retlw	111	;'o'
   842  11C8  3420               	retlw	32	;' '
   843  11C9  3447               	retlw	71	;'G'
   844  11CA  3455               	retlw	85	;'U'
   845  11CB  3449               	retlw	73	;'I'
   846  11CC  3400               	retlw	0
   847                           psect	stringtext
   848                           	
   849  11CD                     STR_17:	
   850  11CD  3450               	retlw	80	;'P'
   851  11CE  346C               	retlw	108	;'l'
   852  11CF  3461               	retlw	97	;'a'
   853  11D0  3463               	retlw	99	;'c'
   854  11D1  3465               	retlw	101	;'e'
   855  11D2  3420               	retlw	32	;' '
   856  11D3  3479               	retlw	121	;'y'
   857  11D4  346F               	retlw	111	;'o'
   858  11D5  3475               	retlw	117	;'u'
   859  11D6  3472               	retlw	114	;'r'
   860  11D7  3420               	retlw	32	;' '
   861  11D8  3474               	retlw	116	;'t'
   862  11D9  3468               	retlw	104	;'h'
   863  11DA  3475               	retlw	117	;'u'
   864  11DB  346D               	retlw	109	;'m'
   865  11DC  3462               	retlw	98	;'b'
   866  11DD  3400               	retlw	0
   867                           psect	stringtext
   868                           	
   869  11DE                     STR_28:	
   870  11DE  344E               	retlw	78	;'N'
   871  11DF  3465               	retlw	101	;'e'
   872  11E0  3477               	retlw	119	;'w'
   873  11E1  3420               	retlw	32	;' '
   874  11E2  3441               	retlw	65	;'A'
   875  11E3  3464               	retlw	100	;'d'
   876  11E4  346D               	retlw	109	;'m'
   877  11E5  3469               	retlw	105	;'i'
   878  11E6  346E               	retlw	110	;'n'
   879  11E7  3420               	retlw	32	;' '
   880  11E8  344E               	retlw	78	;'N'
   881  11E9  3465               	retlw	101	;'e'
   882  11EA  3465               	retlw	101	;'e'
   883  11EB  3464               	retlw	100	;'d'
   884  11EC  3465               	retlw	101	;'e'
   885  11ED  3464               	retlw	100	;'d'
   886  11EE  3400               	retlw	0
   887                           psect	stringtext
   888                           	
   889  11EF                     STR_13:	
   890  11EF  3443               	retlw	67	;'C'
   891  11F0  346C               	retlw	108	;'l'
   892  11F1  3465               	retlw	101	;'e'
   893  11F2  3461               	retlw	97	;'a'
   894  11F3  3472               	retlw	114	;'r'
   895  11F4  3420               	retlw	32	;' '
   896  11F5  3441               	retlw	65	;'A'
   897  11F6  3474               	retlw	116	;'t'
   898  11F7  3474               	retlw	116	;'t'
   899  11F8  3465               	retlw	101	;'e'
   900  11F9  346E               	retlw	110	;'n'
   901  11FA  3464               	retlw	100	;'d'
   902  11FB  3461               	retlw	97	;'a'
   903  11FC  346E               	retlw	110	;'n'
   904  11FD  3463               	retlw	99	;'c'
   905  11FE  3465               	retlw	101	;'e'
   906  11FF  3400               	retlw	0
   907                           psect	stringtext
   908                           	
   909  1200                     STR_65:	
   910  1200  3455               	retlw	85	;'U'
   911  1201  3473               	retlw	115	;'s'
   912  1202  3465               	retlw	101	;'e'
   913  1203  3472               	retlw	114	;'r'
   914  1204  3420               	retlw	32	;' '
   915  1205  3431               	retlw	49	;'1'
   916  1206  3420               	retlw	32	;' '
   917  1207  3432               	retlw	50	;'2'
   918  1208  3420               	retlw	32	;' '
   919  1209  3433               	retlw	51	;'3'
   920  120A  3420               	retlw	32	;' '
   921  120B  3434               	retlw	52	;'4'
   922  120C  3420               	retlw	32	;' '
   923  120D  3435               	retlw	53	;'5'
   924  120E  3420               	retlw	32	;' '
   925  120F  3400               	retlw	0
   926                           psect	stringtext
   927                           	
   928  1210                     STR_15:	
   929  1210  3454               	retlw	84	;'T'
   930  1211  346F               	retlw	111	;'o'
   931  1212  3464               	retlw	100	;'d'
   932  1213  3461               	retlw	97	;'a'
   933  1214  3479               	retlw	121	;'y'
   934  1215  3420               	retlw	32	;' '
   935  1216  3469               	retlw	105	;'i'
   936  1217  3473               	retlw	115	;'s'
   937  1218  3420               	retlw	32	;' '
   938  1219  3444               	retlw	68	;'D'
   939  121A  3461               	retlw	97	;'a'
   940  121B  3479               	retlw	121	;'y'
   941  121C  3420               	retlw	32	;' '
   942  121D  3400               	retlw	0
   943                           psect	stringtext
   944                           	
   945  121E                     STR_52:	
   946  121E  3441               	retlw	65	;'A'
   947  121F  3463               	retlw	99	;'c'
   948  1220  3463               	retlw	99	;'c'
   949  1221  3465               	retlw	101	;'e'
   950  1222  3473               	retlw	115	;'s'
   951  1223  3473               	retlw	115	;'s'
   952  1224  3420               	retlw	32	;' '
   953  1225  3444               	retlw	68	;'D'
   954  1226  3465               	retlw	101	;'e'
   955  1227  346E               	retlw	110	;'n'
   956  1228  3469               	retlw	105	;'i'
   957  1229  3465               	retlw	101	;'e'
   958  122A  3464               	retlw	100	;'d'
   959  122B  3400               	retlw	0
   960                           psect	stringtext
   961                           	
   962  122C                     STR_18:	
   963  122C  346F               	retlw	111	;'o'
   964  122D  346E               	retlw	110	;'n'
   965  122E  3420               	retlw	32	;' '
   966  122F  3474               	retlw	116	;'t'
   967  1230  3468               	retlw	104	;'h'
   968  1231  3465               	retlw	101	;'e'
   969  1232  3420               	retlw	32	;' '
   970  1233  3477               	retlw	119	;'w'
   971  1234  3469               	retlw	105	;'i'
   972  1235  346E               	retlw	110	;'n'
   973  1236  3464               	retlw	100	;'d'
   974  1237  346F               	retlw	111	;'o'
   975  1238  3477               	retlw	119	;'w'
   976  1239  3400               	retlw	0
   977                           psect	stringtext
   978                           	
   979  123A                     STR_1:	
   980  123A  3443               	retlw	67	;'C'
   981  123B  3479               	retlw	121	;'y'
   982  123C  3474               	retlw	116	;'t'
   983  123D  3472               	retlw	114	;'r'
   984  123E  346F               	retlw	111	;'o'
   985  123F  346E               	retlw	110	;'n'
   986  1240  3420               	retlw	32	;' '
   987  1241  3454               	retlw	84	;'T'
   988  1242  3465               	retlw	101	;'e'
   989  1243  3463               	retlw	99	;'c'
   990  1244  3468               	retlw	104	;'h'
   991  1245  342E               	retlw	46	;'.'
   992  1246  3400               	retlw	0
   993                           psect	stringtext
   994                           	
   995  1247                     STR_53:	
   996  1247  3448               	retlw	72	;'H'
   997  1248  3465               	retlw	101	;'e'
   998  1249  346C               	retlw	108	;'l'
   999  124A  346C               	retlw	108	;'l'
  1000  124B  346F               	retlw	111	;'o'
  1001  124C  3420               	retlw	32	;' '
  1002  124D  3455               	retlw	85	;'U'
  1003  124E  3473               	retlw	115	;'s'
  1004  124F  3465               	retlw	101	;'e'
  1005  1250  3472               	retlw	114	;'r'
  1006  1251  3420               	retlw	32	;' '
  1007  1252  3400               	retlw	0
  1008                           psect	stringtext
  1009                           	
  1010  1253                     STR_33:	
  1011  1253  3444               	retlw	68	;'D'
  1012  1254  3465               	retlw	101	;'e'
  1013  1255  346C               	retlw	108	;'l'
  1014  1256  3465               	retlw	101	;'e'
  1015  1257  3474               	retlw	116	;'t'
  1016  1258  3469               	retlw	105	;'i'
  1017  1259  346E               	retlw	110	;'n'
  1018  125A  3467               	retlw	103	;'g'
  1019  125B  342E               	retlw	46	;'.'
  1020  125C  342E               	retlw	46	;'.'
  1021  125D  342E               	retlw	46	;'.'
  1022  125E  3400               	retlw	0
  1023                           psect	stringtext
  1024                           	
  1025  125F                     STR_55:	
  1026  125F  3448               	retlw	72	;'H'
  1027  1260  3465               	retlw	101	;'e'
  1028  1261  346C               	retlw	108	;'l'
  1029  1262  346C               	retlw	108	;'l'
  1030  1263  346F               	retlw	111	;'o'
  1031  1264  3420               	retlw	32	;' '
  1032  1265  3441               	retlw	65	;'A'
  1033  1266  3464               	retlw	100	;'d'
  1034  1267  346D               	retlw	109	;'m'
  1035  1268  3469               	retlw	105	;'i'
  1036  1269  346E               	retlw	110	;'n'
  1037  126A  3400               	retlw	0
  1038                           psect	stringtext
  1039                           	
  1040  126B                     STR_51:	
  1041  126B  3455               	retlw	85	;'U'
  1042  126C  3473               	retlw	115	;'s'
  1043  126D  3465               	retlw	101	;'e'
  1044  126E  3472               	retlw	114	;'r'
  1045  126F  3420               	retlw	32	;' '
  1046  1270  3445               	retlw	69	;'E'
  1047  1271  3478               	retlw	120	;'x'
  1048  1272  3469               	retlw	105	;'i'
  1049  1273  3473               	retlw	115	;'s'
  1050  1274  3474               	retlw	116	;'t'
  1051  1275  3400               	retlw	0
  1052                           psect	stringtext
  1053                           	
  1054  1276                     STR_20:	
  1055  1276  3453               	retlw	83	;'S'
  1056  1277  3465               	retlw	101	;'e'
  1057  1278  346C               	retlw	108	;'l'
  1058  1279  3465               	retlw	101	;'e'
  1059  127A  3463               	retlw	99	;'c'
  1060  127B  3474               	retlw	116	;'t'
  1061  127C  3465               	retlw	101	;'e'
  1062  127D  3464               	retlw	100	;'d'
  1063  127E  3400               	retlw	0
  1064                           psect	stringtext
  1065                           	
  1066  127F                     STR_54:	
  1067  127F  3457               	retlw	87	;'W'
  1068  1280  3465               	retlw	101	;'e'
  1069  1281  346C               	retlw	108	;'l'
  1070  1282  3463               	retlw	99	;'c'
  1071  1283  346F               	retlw	111	;'o'
  1072  1284  346D               	retlw	109	;'m'
  1073  1285  3465               	retlw	101	;'e'
  1074  1286  3400               	retlw	0
  1075                           psect	stringtext
  1076                           	
  1077  1287                     STR_50:	
  1078  1287  3454               	retlw	84	;'T'
  1079  1288  3469               	retlw	105	;'i'
  1080  1289  346D               	retlw	109	;'m'
  1081  128A  3465               	retlw	101	;'e'
  1082  128B  346F               	retlw	111	;'o'
  1083  128C  3475               	retlw	117	;'u'
  1084  128D  3474               	retlw	116	;'t'
  1085  128E  3400               	retlw	0
  1086                           psect	stringtext
  1087                           	
  1088  128F                     STR_69:	
  1089  128F  3453               	retlw	83	;'S'
  1090  1290  3474               	retlw	116	;'t'
  1091  1291  3461               	retlw	97	;'a'
  1092  1292  346E               	retlw	110	;'n'
  1093  1293  3464               	retlw	100	;'d'
  1094  1294  3462               	retlw	98	;'b'
  1095  1295  3479               	retlw	121	;'y'
  1096  1296  3400               	retlw	0
  1097                           psect	stringtext
  1098                           	
  1099  1297                     STR_5:	
  1100  1297  344D               	retlw	77	;'M'
  1101  1298  346F               	retlw	111	;'o'
  1102  1299  3464               	retlw	100	;'d'
  1103  129A  3465               	retlw	101	;'e'
  1104  129B  343D               	retlw	61	;'='
  1105  129C  3420               	retlw	32	;' '
  1106  129D  3400               	retlw	0
  1107                           psect	stringtext
  1108                           	
  1109  129E                     STR_49:	
  1110  129E  3446               	retlw	70	;'F'
  1111  129F  3461               	retlw	97	;'a'
  1112  12A0  3469               	retlw	105	;'i'
  1113  12A1  346C               	retlw	108	;'l'
  1114  12A2  3465               	retlw	101	;'e'
  1115  12A3  3464               	retlw	100	;'d'
  1116  12A4  3400               	retlw	0
  1117                           psect	stringtext
  1118                           	
  1119  12A5                     STR_2:	
  1120  12A5  3450               	retlw	80	;'P'
  1121  12A6  3452               	retlw	82	;'R'
  1122  12A7  3420               	retlw	32	;' '
  1123  12A8  3432               	retlw	50	;'2'
  1124  12A9  3439               	retlw	57	;'9'
  1125  12AA  3400               	retlw	0
  1126                           psect	stringtext
  1127                           	
  1128  12AB                     STR_56:	
  1129  12AB  3445               	retlw	69	;'E'
  1130  12AC  3472               	retlw	114	;'r'
  1131  12AD  3472               	retlw	114	;'r'
  1132  12AE  346F               	retlw	111	;'o'
  1133  12AF  3472               	retlw	114	;'r'
  1134  12B0  3400               	retlw	0
  1135                           psect	stringtext
  1136                           	
  1137  12B1                     STR_22:	
  1138  12B1  342F               	retlw	47	;'/'
  1139  12B2  3435               	retlw	53	;'5'
  1140  12B3  3400               	retlw	0
  1141                           psect	stringtext
  1142                           	
  1143  12B4                     STR_6:	
  1144  12B4  342F               	retlw	47	;'/'
  1145  12B5  3438               	retlw	56	;'8'
  1146  12B6  3400               	retlw	0
  1147                           psect	stringtext
  1148  122C                     STR_58	equ	STR_18+0
  1149  122C                     STR_60	equ	STR_18+0
  1150  11DE                     STR_67	equ	STR_28+0
  1151  11CD                     STR_57	equ	STR_17+0
  1152  11CD                     STR_59	equ	STR_17+0
  1153  11AB                     STR_64	equ	STR_48+0
  1154  119A                     STR_62	equ	STR_46+0
  1155  1210                     STR_21	equ	STR_15+0
  1156  1219                     STR_19	equ	STR_15+9
  1157  124D                     STR_25	equ	STR_53+6
  1158  124D                     STR_27	equ	STR_53+6
  1159  10BD                     STR_42	equ	STR_40+0
  1160  10AC                     STR_26	equ	STR_24+0
  1161  109B                     STR_47	equ	STR_45+0
  1162  109B                     STR_61	equ	STR_45+0
  1163  109B                     STR_63	equ	STR_45+0
  1164  1068                     STR_34	equ	STR_29+0
  1165  1068                     STR_68	equ	STR_29+0
  1166  1057                     STR_35	equ	STR_30+0
  1167  1013                     STR_43	equ	STR_41+0
  1168                           	file	"C:\Users\HATAKE~1\AppData\Local\Temp\s1he0."
  1169                           	line	#
  1170                           psect cinit,class=CODE,delta=2
  1171                           global start_initialization
  1172  0801                     start_initialization:
  1173                           
  1174                           psect	bitbssBANK0,class=BANK0,bit,space=1
  1175                           global __pbitbssBANK0
  1176  02C8                     __pbitbssBANK0:
  1177  02C8                     _GUIcontrol:
  1178  02C8                            ds      1
  1179                           
  1180  02C9                     _admin:
  1181  02C9                            ds      1
  1182                           
  1183  02CA                     _day_enter:
  1184  02CA                            ds      1
  1185                           
  1186  02CB                     _error:
  1187  02CB                            ds      1
  1188                           
  1189  02CC                     _export_select:
  1190  02CC                            ds      1
  1191                           
  1192  02CD                     _location_enter:
  1193  02CD                            ds      1
  1194                           
  1195  02CE                     _mode_enter:
  1196  02CE                            ds      1
  1197                           
  1198  02CF                     _usertype_enter:
  1199  02CF                            ds      1
  1200                           
  1201                           psect	bssBANK0,class=BANK0,space=1
  1202                           global __pbssBANK0
  1203  004E                     __pbssBANK0:
  1204  004E                     _array_resp:
  1205  004E                            ds      8
  1206                           
  1207  0056                     _TEMP:
  1208  0056                            ds      1
  1209                           
  1210  0057                     _day_location:
  1211  0057                            ds      1
  1212                           
  1213  0058                     _dummy_byte:
  1214  0058                            ds      1
  1215                           
  1216                           psect	dataBANK0,class=BANK0,space=1
  1217                           global __pdataBANK0
  1218  005A                     __pdataBANK0:
  1219                           	file	"PR29.c"
  1220                           	line	66
  1221  005A                     _DAY:
  1222  005A                            ds      1
  1223                           
  1224                           psect	dataBANK0
  1225                           	file	"PR29.c"
  1226                           	line	64
  1227  005B                     _day_count:
  1228  005B                            ds      1
  1229                           
  1230                           psect	dataBANK0
  1231                           	file	"PR29.c"
  1232                           	line	63
  1233  005C                     _location:
  1234  005C                            ds      1
  1235                           
  1236                           psect	dataBANK0
  1237                           	file	"PR29.c"
  1238                           	line	68
  1239  005D                     _mode_count:
  1240  005D                            ds      1
  1241                           
  1242                           psect	dataBANK1,class=BANK1,space=1
  1243                           global __pdataBANK1
  1244  00A0                     __pdataBANK1:
  1245                           	file	"PR29.c"
  1246                           	line	969
  1247  00A0                     upload_HT@F1243:
  1248  00A0                            ds      40
  1249                           
  1250                           ; Clear objects allocated to BITBANK0
  1251                           psect cinit,class=CODE,delta=2,merge=1
  1252  0801  01D9               	clrf	((__pbitbssBANK0/8)+0)&07Fh
  1253                           ; Clear objects allocated to BANK0
  1254                           psect cinit,class=CODE,delta=2,merge=1
  1255  0802  01CE               	clrf	((__pbssBANK0)+0)&07Fh
  1256  0803  01CF               	clrf	((__pbssBANK0)+1)&07Fh
  1257  0804  01D0               	clrf	((__pbssBANK0)+2)&07Fh
  1258  0805  01D1               	clrf	((__pbssBANK0)+3)&07Fh
  1259  0806  01D2               	clrf	((__pbssBANK0)+4)&07Fh
  1260  0807  01D3               	clrf	((__pbssBANK0)+5)&07Fh
  1261  0808  01D4               	clrf	((__pbssBANK0)+6)&07Fh
  1262  0809  01D5               	clrf	((__pbssBANK0)+7)&07Fh
  1263  080A  01D6               	clrf	((__pbssBANK0)+8)&07Fh
  1264  080B  01D7               	clrf	((__pbssBANK0)+9)&07Fh
  1265  080C  01D8               	clrf	((__pbssBANK0)+10)&07Fh
  1266                           global btemp
  1267                           psect inittext,class=CODE,delta=2
  1268                           global init_fetch,btemp
  1269                           ;	Called with low address in FSR and high address in W
  1270  1A89                     init_fetch:
  1271  1A89  087E               	movf btemp,w
  1272  1A8A  008A               	movwf pclath
  1273  1A8B  087F               	movf btemp+1,w
  1274  1A8C  0082               	movwf pc
  1275                           global init_ram
  1276                           ;Called with:
  1277                           ;	high address of idata address in btemp 
  1278                           ;	low address of idata address in btemp+1 
  1279                           ;	low address of data in FSR
  1280                           ;	high address + 1 of data in btemp-1
  1281  1A8D                     init_ram:
  1282  1A8D  160A  158A  2289   	fcall init_fetch
              160A  158A         
  1283  1A92  0080               	movwf indf,f
  1284  1A93  0A84               	incf fsr,f
  1285  1A94  0804               	movf fsr,w
  1286  1A95  067D               	xorwf btemp-1,w
  1287  1A96  1903               	btfsc status,2
  1288  1A97  3400               	retlw 0
  1289  1A98  0AFF               	incf btemp+1,f
  1290  1A99  1903               	btfsc status,2
  1291  1A9A  0AFE               	incf btemp,f
  1292  1A9B  2A8D               	goto init_ram
  1293                           ; Initialize objects allocated to BANK1
  1294                           psect cinit,class=CODE,delta=2,merge=1
  1295                           global init_ram, __pidataBANK1
  1296  080D  1383               	bcf	status, 7	;select IRP bank0
  1297  080E  30C8               	movlw low(__pdataBANK1+40)
  1298  080F  00FD               	movwf btemp-1,f
  1299  0810  3012               	movlw high(__pidataBANK1)
  1300  0811  00FE               	movwf btemp,f
  1301  0812  30BB               	movlw low(__pidataBANK1)
  1302  0813  00FF               	movwf btemp+1,f
  1303  0814  30A0               	movlw low(__pdataBANK1)
  1304  0815  0084               	movwf fsr,f
  1305  0816  160A  158A  228D   	fcall init_ram
              120A  158A         
  1306                           ; Initialize objects allocated to BANK0
  1307                           psect cinit,class=CODE,delta=2,merge=1
  1308                           global init_ram, __pidataBANK0
  1309  081B  305E               	movlw low(__pdataBANK0+4)
  1310  081C  00FD               	movwf btemp-1,f
  1311  081D  3012               	movlw high(__pidataBANK0)
  1312  081E  00FE               	movwf btemp,f
  1313  081F  30B7               	movlw low(__pidataBANK0)
  1314  0820  00FF               	movwf btemp+1,f
  1315  0821  305A               	movlw low(__pdataBANK0)
  1316  0822  0084               	movwf fsr,f
  1317  0823  160A  158A  228D   	fcall init_ram
              120A  158A         
  1318                           psect cinit,class=CODE,delta=2,merge=1
  1319                           global end_of_initialization
  1320                           
  1321                           ;End of C runtime variable initialization code
  1322                           
  1323  0828                     end_of_initialization:
  1324  0828  0183               clrf status
  1325  0829  120A  158A  282C   ljmp _main	;jump to C main() function
  1326                           psect	cstackCOMMON,class=COMMON,space=1
  1327                           global __pcstackCOMMON
  1328  0070                     __pcstackCOMMON:
  1329                           	global	?_send_config
  1330  0070                     ?_send_config:	; 0 bytes @ 0x0
  1331                           	global	?_lcd_clr
  1332  0070                     ?_lcd_clr:	; 0 bytes @ 0x0
  1333                           	global	?_lcd_goto
  1334  0070                     ?_lcd_goto:	; 0 bytes @ 0x0
  1335                           	global	?_delay
  1336  0070                     ?_delay:	; 0 bytes @ 0x0
  1337                           	global	?_ResetAdmin
  1338  0070                     ?_ResetAdmin:	; 0 bytes @ 0x0
  1339                           	global	?_receive_reply_nodisplay
  1340  0070                     ?_receive_reply_nodisplay:	; 0 bytes @ 0x0
  1341                           	global	?_uart_init
  1342  0070                     ?_uart_init:	; 0 bytes @ 0x0
  1343                           	global	??_uart_init
  1344  0070                     ??_uart_init:	; 0 bytes @ 0x0
  1345                           	global	?_init_attendance
  1346  0070                     ?_init_attendance:	; 0 bytes @ 0x0
  1347                           	global	?_CheckAdmin
  1348  0070                     ?_CheckAdmin:	; 0 bytes @ 0x0
  1349                           	global	?_send_char
  1350  0070                     ?_send_char:	; 0 bytes @ 0x0
  1351                           	global	??_get_eeprom
  1352  0070                     ??_get_eeprom:	; 0 bytes @ 0x0
  1353                           	global	?_receive_reply
  1354  0070                     ?_receive_reply:	; 0 bytes @ 0x0
  1355                           	global	?_store_eeprom
  1356  0070                     ?_store_eeprom:	; 0 bytes @ 0x0
  1357                           	global	?_mode
  1358  0070                     ?_mode:	; 0 bytes @ 0x0
  1359                           	global	?_AddNew
  1360  0070                     ?_AddNew:	; 0 bytes @ 0x0
  1361                           	global	?_view_attendance
  1362  0070                     ?_view_attendance:	; 0 bytes @ 0x0
  1363                           	global	?_clear_attendance
  1364  0070                     ?_clear_attendance:	; 0 bytes @ 0x0
  1365                           	global	?_upload_GUI
  1366  0070                     ?_upload_GUI:	; 0 bytes @ 0x0
  1367                           	global	?_upload_HT
  1368  0070                     ?_upload_HT:	; 0 bytes @ 0x0
  1369                           	global	?_uart_write
  1370  0070                     ?_uart_write:	; 0 bytes @ 0x0
  1371                           	global	?_allign
  1372  0070                     ?_allign:	; 0 bytes @ 0x0
  1373                           	global	?_main
  1374  0070                     ?_main:	; 0 bytes @ 0x0
  1375                           	global	?_uart_send
  1376  0070                     ?_uart_send:	; 0 bytes @ 0x0
  1377                           	global	??_uart_send
  1378  0070                     ??_uart_send:	; 0 bytes @ 0x0
  1379                           	global	??_uart_receive
  1380  0070                     ??_uart_receive:	; 0 bytes @ 0x0
  1381                           	global	?_get_eeprom
  1382  0070                     ?_get_eeprom:	; 1 bytes @ 0x0
  1383                           	global	?_uart_receive
  1384  0070                     ?_uart_receive:	; 1 bytes @ 0x0
  1385                           	global	uart_send@data
  1386  0070                     uart_send@data:	; 1 bytes @ 0x0
  1387                           	global	store_eeprom@location
  1388  0070                     store_eeprom@location:	; 1 bytes @ 0x0
  1389                           	global	uart_init@channel
  1390  0070                     uart_init@channel:	; 1 bytes @ 0x0
  1391                           	global	uart_write@data
  1392  0070                     uart_write@data:	; 1 bytes @ 0x0
  1393                           	global	delay@data
  1394  0070                     delay@data:	; 4 bytes @ 0x0
  1395  0070                     	ds	1
  1396                           	global	?_send_cmd
  1397  0071                     ?_send_cmd:	; 0 bytes @ 0x1
  1398                           	global	??_store_eeprom
  1399  0071                     ??_store_eeprom:	; 0 bytes @ 0x1
  1400                           	global	??_uart_write
  1401  0071                     ??_uart_write:	; 0 bytes @ 0x1
  1402                           	global	send_cmd@P1
  1403  0071                     send_cmd@P1:	; 1 bytes @ 0x1
  1404                           	global	uart_receive@rec_data
  1405  0071                     uart_receive@rec_data:	; 1 bytes @ 0x1
  1406                           	global	get_eeprom@location
  1407  0071                     get_eeprom@location:	; 1 bytes @ 0x1
  1408  0071                     	ds	1
  1409                           	global	??_receive_reply_nodisplay
  1410  0072                     ??_receive_reply_nodisplay:	; 0 bytes @ 0x2
  1411                           	global	send_cmd@P2
  1412  0072                     send_cmd@P2:	; 1 bytes @ 0x2
  1413                           	global	store_eeprom@data
  1414  0072                     store_eeprom@data:	; 1 bytes @ 0x2
  1415                           	global	get_eeprom@value
  1416  0072                     get_eeprom@value:	; 1 bytes @ 0x2
  1417  0072                     	ds	1
  1418                           	global	??_init_attendance
  1419  0073                     ??_init_attendance:	; 0 bytes @ 0x3
  1420                           	global	??_clear_attendance
  1421  0073                     ??_clear_attendance:	; 0 bytes @ 0x3
  1422                           	global	send_cmd@P3
  1423  0073                     send_cmd@P3:	; 1 bytes @ 0x3
  1424                           	global	receive_reply_nodisplay@i
  1425  0073                     receive_reply_nodisplay@i:	; 1 bytes @ 0x3
  1426                           	global	uart_write@channel
  1427  0073                     uart_write@channel:	; 1 bytes @ 0x3
  1428  0073                     	ds	1
  1429                           	global	??_delay
  1430  0074                     ??_delay:	; 0 bytes @ 0x4
  1431                           	global	??_send_cmd
  1432  0074                     ??_send_cmd:	; 0 bytes @ 0x4
  1433                           	global	uart_write@i
  1434  0074                     uart_write@i:	; 1 bytes @ 0x4
  1435  0074                     	ds	1
  1436                           	global	??_upload_GUI
  1437  0075                     ??_upload_GUI:	; 0 bytes @ 0x5
  1438                           	global	??_allign
  1439  0075                     ??_allign:	; 0 bytes @ 0x5
  1440                           	global	send_cmd@CHK
  1441  0075                     send_cmd@CHK:	; 1 bytes @ 0x5
  1442  0075                     	ds	1
  1443                           	global	send_cmd@CMD
  1444  0076                     send_cmd@CMD:	; 1 bytes @ 0x6
  1445                           	global	allign@Allign
  1446  0076                     allign@Allign:	; 1 bytes @ 0x6
  1447  0076                     	ds	1
  1448                           	global	??_upload_HT
  1449  0077                     ??_upload_HT:	; 0 bytes @ 0x7
  1450  0077                     	ds	1
  1451                           	global	??_send_config
  1452  0078                     ??_send_config:	; 0 bytes @ 0x8
  1453                           	global	??_send_char
  1454  0078                     ??_send_char:	; 0 bytes @ 0x8
  1455                           	global	send_config@data
  1456  0078                     send_config@data:	; 1 bytes @ 0x8
  1457                           	global	send_char@data
  1458  0078                     send_char@data:	; 1 bytes @ 0x8
  1459                           	global	upload_GUI@address
  1460  0078                     upload_GUI@address:	; 1 bytes @ 0x8
  1461  0078                     	ds	1
  1462                           	global	??_lcd_clr
  1463  0079                     ??_lcd_clr:	; 0 bytes @ 0x9
  1464                           	global	??_lcd_goto
  1465  0079                     ??_lcd_goto:	; 0 bytes @ 0x9
  1466                           	global	?_send_string
  1467  0079                     ?_send_string:	; 0 bytes @ 0x9
  1468                           	global	upload_GUI@count
  1469  0079                     upload_GUI@count:	; 1 bytes @ 0x9
  1470                           	global	send_string@s
  1471  0079                     send_string@s:	; 2 bytes @ 0x9
  1472  0079                     	ds	1
  1473                           	global	lcd_goto@data
  1474  007A                     lcd_goto@data:	; 1 bytes @ 0xA
  1475  007A                     	ds	1
  1476                           	global	??_send_string
  1477  007B                     ??_send_string:	; 0 bytes @ 0xB
  1478  007B                     	ds	1
  1479                           	global	send_string@i
  1480  007C                     send_string@i:	; 1 bytes @ 0xC
  1481  007C                     	ds	1
  1482                           	global	??_view_attendance
  1483  007D                     ??_view_attendance:	; 0 bytes @ 0xD
  1484                           	global	??_display_status
  1485  007D                     ??_display_status:	; 0 bytes @ 0xD
  1486                           	global	display_status@type
  1487  007D                     display_status@type:	; 1 bytes @ 0xD
  1488  007D                     	ds	1
  1489                           psect	cstackBANK0,class=BANK0,space=1
  1490                           global __pcstackBANK0
  1491  0020                     __pcstackBANK0:
  1492                           	global	?_display_status
  1493  0020                     ?_display_status:	; 0 bytes @ 0x0
  1494                           	global	display_status@data0
  1495  0020                     display_status@data0:	; 1 bytes @ 0x0
  1496                           	global	view_attendance@x
  1497  0020                     view_attendance@x:	; 1 bytes @ 0x0
  1498                           	global	upload_HT@array_title
  1499  0020                     upload_HT@array_title:	; 40 bytes @ 0x0
  1500  0020                     	ds	1
  1501                           	global	display_status@data
  1502  0021                     display_status@data:	; 1 bytes @ 0x1
  1503  0021                     	ds	1
  1504                           	global	??_receive_reply
  1505  0022                     ??_receive_reply:	; 0 bytes @ 0x2
  1506  0022                     	ds	2
  1507                           	global	receive_reply@i
  1508  0024                     receive_reply@i:	; 1 bytes @ 0x4
  1509  0024                     	ds	1
  1510                           	global	??_CheckAdmin
  1511  0025                     ??_CheckAdmin:	; 0 bytes @ 0x5
  1512                           	global	??_AddNew
  1513  0025                     ??_AddNew:	; 0 bytes @ 0x5
  1514  0025                     	ds	2
  1515                           	global	AddNew@data
  1516  0027                     AddNew@data:	; 1 bytes @ 0x7
  1517  0027                     	ds	1
  1518                           	global	??_ResetAdmin
  1519  0028                     ??_ResetAdmin:	; 0 bytes @ 0x8
  1520  0028                     	ds	32
  1521                           	global	upload_HT@address
  1522  0048                     upload_HT@address:	; 1 bytes @ 0x28
  1523  0048                     	ds	1
  1524                           	global	upload_HT@count
  1525  0049                     upload_HT@count:	; 1 bytes @ 0x29
  1526  0049                     	ds	1
  1527                           	global	??_mode
  1528  004A                     ??_mode:	; 0 bytes @ 0x2A
  1529  004A                     	ds	2
  1530                           	global	mode@data
  1531  004C                     mode@data:	; 1 bytes @ 0x2C
  1532  004C                     	ds	1
  1533                           	global	??_main
  1534  004D                     ??_main:	; 0 bytes @ 0x2D
  1535  004D                     	ds	1
  1536                           ;!
  1537                           ;!Data Sizes:
  1538                           ;!    Strings     695
  1539                           ;!    Constant    0
  1540                           ;!    Data        44
  1541                           ;!    BSS         11
  1542                           ;!    Persistent  0
  1543                           ;!    Stack       0
  1544                           ;!
  1545                           ;!Auto Spaces:
  1546                           ;!    Space          Size  Autos    Used
  1547                           ;!    COMMON           14     14      14
  1548                           ;!    BANK0            80     46      62
  1549                           ;!    BANK1            80      0      40
  1550                           ;!    BANK3            96      0       0
  1551                           ;!    BANK2            96      0       0
  1552                           
  1553                           ;!
  1554                           ;!Pointer List with Targets:
  1555                           ;!
  1556                           ;!    send_string@s	PTR const unsigned char  size(2) Largest target is 19
  1557                           ;!		 -> STR_69(CODE[8]), STR_68(CODE[17]), STR_67(CODE[17]), STR_66(CODE[19]), 
  1558                           ;!		 -> STR_65(CODE[16]), STR_64(CODE[17]), STR_63(CODE[17]), STR_62(CODE[17]), 
  1559                           ;!		 -> STR_61(CODE[17]), STR_60(CODE[14]), STR_59(CODE[17]), STR_58(CODE[14]), 
  1560                           ;!		 -> STR_57(CODE[17]), STR_56(CODE[6]), STR_55(CODE[12]), STR_54(CODE[8]), 
  1561                           ;!		 -> STR_53(CODE[12]), STR_52(CODE[14]), STR_51(CODE[11]), STR_50(CODE[8]), 
  1562                           ;!		 -> STR_49(CODE[7]), STR_48(CODE[17]), STR_47(CODE[17]), STR_46(CODE[17]), 
  1563                           ;!		 -> STR_45(CODE[17]), STR_44(CODE[17]), STR_43(CODE[17]), STR_42(CODE[17]), 
  1564                           ;!		 -> STR_41(CODE[17]), STR_40(CODE[17]), STR_39(CODE[17]), STR_38(CODE[17]), 
  1565                           ;!		 -> STR_37(CODE[17]), STR_36(CODE[17]), STR_35(CODE[17]), STR_34(CODE[17]), 
  1566                           ;!		 -> STR_33(CODE[12]), STR_32(CODE[17]), STR_31(CODE[17]), STR_30(CODE[17]), 
  1567                           ;!		 -> STR_29(CODE[17]), STR_28(CODE[17]), STR_27(CODE[6]), STR_26(CODE[17]), 
  1568                           ;!		 -> STR_25(CODE[6]), STR_24(CODE[17]), STR_23(CODE[17]), STR_22(CODE[3]), 
  1569                           ;!		 -> STR_21(CODE[14]), STR_20(CODE[9]), STR_19(CODE[5]), STR_18(CODE[14]), 
  1570                           ;!		 -> STR_17(CODE[17]), STR_16(CODE[17]), STR_15(CODE[14]), STR_14(CODE[17]), 
  1571                           ;!		 -> STR_13(CODE[17]), STR_12(CODE[17]), STR_11(CODE[17]), STR_10(CODE[17]), 
  1572                           ;!		 -> STR_9(CODE[17]), STR_8(CODE[17]), STR_7(CODE[17]), STR_6(CODE[3]), 
  1573                           ;!		 -> STR_5(CODE[7]), STR_4(CODE[17]), STR_3(CODE[17]), STR_2(CODE[6]), 
  1574                           ;!		 -> STR_1(CODE[13]), 
  1575                           ;!
  1576                           
  1577                           
  1578                           ;!
  1579                           ;!Critical Paths under _main in COMMON
  1580                           ;!
  1581                           ;!    _receive_reply_nodisplay->_uart_receive
  1582                           ;!    _init_attendance->_store_eeprom
  1583                           ;!    _mode->_view_attendance
  1584                           ;!    _send_cmd->_uart_send
  1585                           ;!    _receive_reply->_display_status
  1586                           ;!    _view_attendance->_send_string
  1587                           ;!    _clear_attendance->_store_eeprom
  1588                           ;!    _upload_GUI->_uart_write
  1589                           ;!    _upload_HT->_allign
  1590                           ;!    _display_status->_send_string
  1591                           ;!    _lcd_clr->_send_config
  1592                           ;!    _lcd_goto->_send_config
  1593                           ;!    _send_config->_delay
  1594                           ;!    _send_string->_send_char
  1595                           ;!    _send_char->_delay
  1596                           ;!    _allign->_uart_write
  1597                           ;!
  1598                           ;!Critical Paths under _main in BANK0
  1599                           ;!
  1600                           ;!    _main->_mode
  1601                           ;!    _ResetAdmin->_AddNew
  1602                           ;!    _mode->_upload_HT
  1603                           ;!    _CheckAdmin->_receive_reply
  1604                           ;!    _AddNew->_receive_reply
  1605                           ;!    _receive_reply->_display_status
  1606                           ;!
  1607                           ;!Critical Paths under _main in BANK1
  1608                           ;!
  1609                           ;!    None.
  1610                           ;!
  1611                           ;!Critical Paths under _main in BANK3
  1612                           ;!
  1613                           ;!    None.
  1614                           ;!
  1615                           ;!Critical Paths under _main in BANK2
  1616                           ;!
  1617                           ;!    None.
  1618                           
  1619 ;;
  1620 ;;Main: autosize = 0, tempsize = 1, incstack = 0, save=0
  1621 ;;
  1622                           
  1623                           ;!
  1624                           ;!Call Graph Tables:
  1625                           ;!
  1626                           ;! ---------------------------------------------------------------------------------
  1627                           ;! (Depth) Function   	        Calls       Base Space   Used Autos Params    Refs
  1628                           ;! ---------------------------------------------------------------------------------
  1629                           ;! (0) _main                                                 1     1      0   14757
  1630                           ;!                                             45 BANK0      1     1      0
  1631                           ;!                        _send_config
  1632                           ;!                            _lcd_clr
  1633                           ;!                           _lcd_goto
  1634                           ;!                        _send_string
  1635                           ;!                              _delay
  1636                           ;!                         _ResetAdmin
  1637                           ;!                           _send_cmd
  1638                           ;!            _receive_reply_nodisplay
  1639                           ;!                          _uart_init
  1640                           ;!                    _init_attendance
  1641                           ;!                         _CheckAdmin
  1642                           ;!                          _send_char
  1643                           ;!                         _get_eeprom
  1644                           ;!                      _receive_reply
  1645                           ;!                       _store_eeprom
  1646                           ;!                               _mode
  1647                           ;! ---------------------------------------------------------------------------------
  1648                           ;! (1) _ResetAdmin                                           1     1      0    2902
  1649                           ;!                                              8 BANK0      1     1      0
  1650                           ;!                           _lcd_goto
  1651                           ;!                        _send_string
  1652                           ;!                              _delay
  1653                           ;!                           _send_cmd
  1654                           ;!                      _receive_reply
  1655                           ;!                             _AddNew
  1656                           ;! ---------------------------------------------------------------------------------
  1657                           ;! (1) _receive_reply_nodisplay                              2     2      0      91
  1658                           ;!                                              2 COMMON     2     2      0
  1659                           ;!                       _uart_receive
  1660                           ;! ---------------------------------------------------------------------------------
  1661                           ;! (1) _uart_init                                            1     1      0      22
  1662                           ;!                                              0 COMMON     1     1      0
  1663                           ;! ---------------------------------------------------------------------------------
  1664                           ;! (1) _init_attendance                                      1     1      0      44
  1665                           ;!                                              3 COMMON     1     1      0
  1666                           ;!                       _store_eeprom
  1667                           ;! ---------------------------------------------------------------------------------
  1668                           ;! (1) _mode                                                 3     3      0    8639
  1669                           ;!                                             42 BANK0      3     3      0
  1670                           ;!                            _lcd_clr
  1671                           ;!                       _store_eeprom
  1672                           ;!                           _lcd_goto
  1673                           ;!                        _send_string
  1674                           ;!                          _send_char
  1675                           ;!                              _delay
  1676                           ;!                             _AddNew
  1677                           ;!                           _send_cmd
  1678                           ;!                      _receive_reply
  1679                           ;!                         _CheckAdmin
  1680                           ;!                    _view_attendance
  1681                           ;!                   _clear_attendance
  1682                           ;!                         _upload_GUI
  1683                           ;!                          _upload_HT
  1684                           ;! ---------------------------------------------------------------------------------
  1685                           ;! (2) _CheckAdmin                                           1     1      0    1362
  1686                           ;!                                              5 BANK0      1     1      0
  1687                           ;!                           _send_cmd
  1688                           ;!                           _lcd_goto
  1689                           ;!                        _send_string
  1690                           ;!                              _delay
  1691                           ;!                      _receive_reply
  1692                           ;! ---------------------------------------------------------------------------------
  1693                           ;! (2) _AddNew                                               3     3      0    1540
  1694                           ;!                                              5 BANK0      3     3      0
  1695                           ;!                           _send_cmd
  1696                           ;!                           _lcd_goto
  1697                           ;!                        _send_string
  1698                           ;!                              _delay
  1699                           ;!                      _receive_reply
  1700                           ;!                            _lcd_clr
  1701                           ;! ---------------------------------------------------------------------------------
  1702                           ;! (3) _send_cmd                                             6     3      3     221
  1703                           ;!                                              1 COMMON     6     3      3
  1704                           ;!                          _uart_send
  1705                           ;! ---------------------------------------------------------------------------------
  1706                           ;! (3) _receive_reply                                        3     3      0     805
  1707                           ;!                                              2 BANK0      3     3      0
  1708                           ;!                       _uart_receive
  1709                           ;!                     _display_status
  1710                           ;!                              _delay
  1711                           ;! ---------------------------------------------------------------------------------
  1712                           ;! (4) _uart_send                                            1     1      0      22
  1713                           ;!                                              0 COMMON     1     1      0
  1714                           ;! ---------------------------------------------------------------------------------
  1715                           ;! (4) _uart_receive                                         2     2      0      23
  1716                           ;!                                              0 COMMON     2     2      0
  1717                           ;! ---------------------------------------------------------------------------------
  1718                           ;! (2) _view_attendance                                      2     2      0    1240
  1719                           ;!                                             13 COMMON     1     1      0
  1720                           ;!                                              0 BANK0      1     1      0
  1721                           ;!                            _lcd_clr
  1722                           ;!                           _lcd_goto
  1723                           ;!                        _send_string
  1724                           ;!                         _get_eeprom
  1725                           ;!                          _send_char
  1726                           ;!                              _delay
  1727                           ;! ---------------------------------------------------------------------------------
  1728                           ;! (2) _clear_attendance                                     1     1      0      44
  1729                           ;!                                              3 COMMON     1     1      0
  1730                           ;!                       _store_eeprom
  1731                           ;! ---------------------------------------------------------------------------------
  1732                           ;! (3) _store_eeprom                                         3     2      1      44
  1733                           ;!                                              0 COMMON     3     2      1
  1734                           ;! ---------------------------------------------------------------------------------
  1735                           ;! (2) _upload_GUI                                           5     5      0    1084
  1736                           ;!                                              5 COMMON     5     5      0
  1737                           ;!                         _get_eeprom
  1738                           ;!                         _uart_write
  1739                           ;! ---------------------------------------------------------------------------------
  1740                           ;! (2) _upload_HT                                           46    46      0    1608
  1741                           ;!                                              7 COMMON     4     4      0
  1742                           ;!                                              0 BANK0     42    42      0
  1743                           ;!                         _uart_write
  1744                           ;!                             _allign
  1745                           ;!                         _get_eeprom
  1746                           ;! ---------------------------------------------------------------------------------
  1747                           ;! (3) _get_eeprom                                           3     3      0      45
  1748                           ;!                                              0 COMMON     3     3      0
  1749                           ;! ---------------------------------------------------------------------------------
  1750                           ;! (4) _display_status                                       3     1      2     669
  1751                           ;!                                             13 COMMON     1     1      0
  1752                           ;!                                              0 BANK0      2     0      2
  1753                           ;!                            _lcd_clr
  1754                           ;!                           _lcd_goto
  1755                           ;!                        _send_string
  1756                           ;!                              _delay
  1757                           ;!                          _send_char
  1758                           ;! ---------------------------------------------------------------------------------
  1759                           ;! (3) _lcd_clr                                              0     0      0     112
  1760                           ;!                        _send_config
  1761                           ;!                              _delay
  1762                           ;! ---------------------------------------------------------------------------------
  1763                           ;! (3) _lcd_goto                                             2     2      0     156
  1764                           ;!                                              9 COMMON     2     2      0
  1765                           ;!                        _send_config
  1766                           ;! ---------------------------------------------------------------------------------
  1767                           ;! (4) _send_config                                          1     1      0      67
  1768                           ;!                                              8 COMMON     1     1      0
  1769                           ;!                              _delay
  1770                           ;! ---------------------------------------------------------------------------------
  1771                           ;! (3) _send_string                                          4     2      2     135
  1772                           ;!                                              9 COMMON     4     2      2
  1773                           ;!                          _send_char
  1774                           ;! ---------------------------------------------------------------------------------
  1775                           ;! (3) _send_char                                            1     1      0      67
  1776                           ;!                                              8 COMMON     1     1      0
  1777                           ;!                              _delay
  1778                           ;! ---------------------------------------------------------------------------------
  1779                           ;! (3) _delay                                                8     4      4      45
  1780                           ;!                                              0 COMMON     8     4      4
  1781                           ;! ---------------------------------------------------------------------------------
  1782                           ;! (3) _allign                                               2     2      0     180
  1783                           ;!                                              5 COMMON     2     2      0
  1784                           ;!                         _uart_write
  1785                           ;! ---------------------------------------------------------------------------------
  1786                           ;! (4) _uart_write                                           5     4      1     134
  1787                           ;!                                              0 COMMON     5     4      1
  1788                           ;! ---------------------------------------------------------------------------------
  1789                           ;! Estimated maximum stack depth 4
  1790                           ;! ---------------------------------------------------------------------------------
  1791                           ;!
  1792                           ;! Call Graph Graphs:
  1793                           ;!
  1794                           ;! _main (ROOT)
  1795                           ;!   _send_config
  1796                           ;!     _delay
  1797                           ;!   _lcd_clr
  1798                           ;!     _send_config
  1799                           ;!       _delay
  1800                           ;!     _delay
  1801                           ;!   _lcd_goto
  1802                           ;!     _send_config
  1803                           ;!       _delay
  1804                           ;!   _send_string
  1805                           ;!     _send_char
  1806                           ;!       _delay
  1807                           ;!   _delay
  1808                           ;!   _ResetAdmin
  1809                           ;!     _lcd_goto
  1810                           ;!       _send_config
  1811                           ;!         _delay
  1812                           ;!     _send_string
  1813                           ;!       _send_char
  1814                           ;!         _delay
  1815                           ;!     _delay
  1816                           ;!     _send_cmd
  1817                           ;!       _uart_send
  1818                           ;!     _receive_reply
  1819                           ;!       _uart_receive
  1820                           ;!       _display_status
  1821                           ;!         _lcd_clr
  1822                           ;!           _send_config
  1823                           ;!             _delay
  1824                           ;!           _delay
  1825                           ;!         _lcd_goto
  1826                           ;!           _send_config
  1827                           ;!             _delay
  1828                           ;!         _send_string
  1829                           ;!           _send_char
  1830                           ;!             _delay
  1831                           ;!         _delay
  1832                           ;!         _send_char
  1833                           ;!           _delay
  1834                           ;!       _delay
  1835                           ;!     _AddNew
  1836                           ;!       _send_cmd
  1837                           ;!         _uart_send
  1838                           ;!       _lcd_goto
  1839                           ;!         _send_config
  1840                           ;!           _delay
  1841                           ;!       _send_string
  1842                           ;!         _send_char
  1843                           ;!           _delay
  1844                           ;!       _delay
  1845                           ;!       _receive_reply
  1846                           ;!         _uart_receive
  1847                           ;!         _display_status
  1848                           ;!           _lcd_clr
  1849                           ;!             _send_config
  1850                           ;!               _delay
  1851                           ;!             _delay
  1852                           ;!           _lcd_goto
  1853                           ;!             _send_config
  1854                           ;!               _delay
  1855                           ;!           _send_string
  1856                           ;!             _send_char
  1857                           ;!               _delay
  1858                           ;!           _delay
  1859                           ;!           _send_char
  1860                           ;!             _delay
  1861                           ;!         _delay
  1862                           ;!       _lcd_clr
  1863                           ;!         _send_config
  1864                           ;!           _delay
  1865                           ;!         _delay
  1866                           ;!   _send_cmd
  1867                           ;!     _uart_send
  1868                           ;!   _receive_reply_nodisplay
  1869                           ;!     _uart_receive
  1870                           ;!   _uart_init
  1871                           ;!   _init_attendance
  1872                           ;!     _store_eeprom
  1873                           ;!   _CheckAdmin
  1874                           ;!     _send_cmd
  1875                           ;!       _uart_send
  1876                           ;!     _lcd_goto
  1877                           ;!       _send_config
  1878                           ;!         _delay
  1879                           ;!     _send_string
  1880                           ;!       _send_char
  1881                           ;!         _delay
  1882                           ;!     _delay
  1883                           ;!     _receive_reply
  1884                           ;!       _uart_receive
  1885                           ;!       _display_status
  1886                           ;!         _lcd_clr
  1887                           ;!           _send_config
  1888                           ;!             _delay
  1889                           ;!           _delay
  1890                           ;!         _lcd_goto
  1891                           ;!           _send_config
  1892                           ;!             _delay
  1893                           ;!         _send_string
  1894                           ;!           _send_char
  1895                           ;!             _delay
  1896                           ;!         _delay
  1897                           ;!         _send_char
  1898                           ;!           _delay
  1899                           ;!       _delay
  1900                           ;!   _send_char
  1901                           ;!     _delay
  1902                           ;!   _get_eeprom
  1903                           ;!   _receive_reply
  1904                           ;!     _uart_receive
  1905                           ;!     _display_status
  1906                           ;!       _lcd_clr
  1907                           ;!         _send_config
  1908                           ;!           _delay
  1909                           ;!         _delay
  1910                           ;!       _lcd_goto
  1911                           ;!         _send_config
  1912                           ;!           _delay
  1913                           ;!       _send_string
  1914                           ;!         _send_char
  1915                           ;!           _delay
  1916                           ;!       _delay
  1917                           ;!       _send_char
  1918                           ;!         _delay
  1919                           ;!     _delay
  1920                           ;!   _store_eeprom
  1921                           ;!   _mode
  1922                           ;!     _lcd_clr
  1923                           ;!       _send_config
  1924                           ;!         _delay
  1925                           ;!       _delay
  1926                           ;!     _store_eeprom
  1927                           ;!     _lcd_goto
  1928                           ;!       _send_config
  1929                           ;!         _delay
  1930                           ;!     _send_string
  1931                           ;!       _send_char
  1932                           ;!         _delay
  1933                           ;!     _send_char
  1934                           ;!       _delay
  1935                           ;!     _delay
  1936                           ;!     _AddNew
  1937                           ;!       _send_cmd
  1938                           ;!         _uart_send
  1939                           ;!       _lcd_goto
  1940                           ;!         _send_config
  1941                           ;!           _delay
  1942                           ;!       _send_string
  1943                           ;!         _send_char
  1944                           ;!           _delay
  1945                           ;!       _delay
  1946                           ;!       _receive_reply
  1947                           ;!         _uart_receive
  1948                           ;!         _display_status
  1949                           ;!           _lcd_clr
  1950                           ;!             _send_config
  1951                           ;!               _delay
  1952                           ;!             _delay
  1953                           ;!           _lcd_goto
  1954                           ;!             _send_config
  1955                           ;!               _delay
  1956                           ;!           _send_string
  1957                           ;!             _send_char
  1958                           ;!               _delay
  1959                           ;!           _delay
  1960                           ;!           _send_char
  1961                           ;!             _delay
  1962                           ;!         _delay
  1963                           ;!       _lcd_clr
  1964                           ;!         _send_config
  1965                           ;!           _delay
  1966                           ;!         _delay
  1967                           ;!     _send_cmd
  1968                           ;!       _uart_send
  1969                           ;!     _receive_reply
  1970                           ;!       _uart_receive
  1971                           ;!       _display_status
  1972                           ;!         _lcd_clr
  1973                           ;!           _send_config
  1974                           ;!             _delay
  1975                           ;!           _delay
  1976                           ;!         _lcd_goto
  1977                           ;!           _send_config
  1978                           ;!             _delay
  1979                           ;!         _send_string
  1980                           ;!           _send_char
  1981                           ;!             _delay
  1982                           ;!         _delay
  1983                           ;!         _send_char
  1984                           ;!           _delay
  1985                           ;!       _delay
  1986                           ;!     _CheckAdmin
  1987                           ;!       _send_cmd
  1988                           ;!         _uart_send
  1989                           ;!       _lcd_goto
  1990                           ;!         _send_config
  1991                           ;!           _delay
  1992                           ;!       _send_string
  1993                           ;!         _send_char
  1994                           ;!           _delay
  1995                           ;!       _delay
  1996                           ;!       _receive_reply
  1997                           ;!         _uart_receive
  1998                           ;!         _display_status
  1999                           ;!           _lcd_clr
  2000                           ;!             _send_config
  2001                           ;!               _delay
  2002                           ;!             _delay
  2003                           ;!           _lcd_goto
  2004                           ;!             _send_config
  2005                           ;!               _delay
  2006                           ;!           _send_string
  2007                           ;!             _send_char
  2008                           ;!               _delay
  2009                           ;!           _delay
  2010                           ;!           _send_char
  2011                           ;!             _delay
  2012                           ;!         _delay
  2013                           ;!     _view_attendance
  2014                           ;!       _lcd_clr
  2015                           ;!         _send_config
  2016                           ;!           _delay
  2017                           ;!         _delay
  2018                           ;!       _lcd_goto
  2019                           ;!         _send_config
  2020                           ;!           _delay
  2021                           ;!       _send_string
  2022                           ;!         _send_char
  2023                           ;!           _delay
  2024                           ;!       _get_eeprom
  2025                           ;!       _send_char
  2026                           ;!         _delay
  2027                           ;!       _delay
  2028                           ;!     _clear_attendance
  2029                           ;!       _store_eeprom
  2030                           ;!     _upload_GUI
  2031                           ;!       _get_eeprom
  2032                           ;!       _uart_write
  2033                           ;!     _upload_HT
  2034                           ;!       _uart_write
  2035                           ;!       _allign
  2036                           ;!         _uart_write
  2037                           ;!       _get_eeprom
  2038                           ;!
  2039                           
  2040                           ;! Address spaces:
  2041                           
  2042                           ;!Name               Size   Autos  Total    Cost      Usage
  2043                           ;!BANK3               60      0       0       9        0.0%
  2044                           ;!BITBANK3            60      0       0       8        0.0%
  2045                           ;!SFR3                 0      0       0       4        0.0%
  2046                           ;!BITSFR3              0      0       0       4        0.0%
  2047                           ;!BANK2               60      0       0      11        0.0%
  2048                           ;!BITBANK2            60      0       0      10        0.0%
  2049                           ;!SFR2                 0      0       0       5        0.0%
  2050                           ;!BITSFR2              0      0       0       5        0.0%
  2051                           ;!BANK1               50      0      28       7       50.0%
  2052                           ;!BITBANK1            50      0       0       6        0.0%
  2053                           ;!SFR1                 0      0       0       2        0.0%
  2054                           ;!BITSFR1              0      0       0       2        0.0%
  2055                           ;!BANK0               50     2E      3E       5       77.5%
  2056                           ;!BITBANK0            50      0       1       4        1.3%
  2057                           ;!SFR0                 0      0       0       1        0.0%
  2058                           ;!BITSFR0              0      0       0       1        0.0%
  2059                           ;!COMMON               E      E       E       1      100.0%
  2060                           ;!BITCOMMON            E      0       0       0        0.0%
  2061                           ;!CODE                 0      0       0       0        0.0%
  2062                           ;!DATA                 0      0      7B      12        0.0%
  2063                           ;!ABS                  0      0      74       3        0.0%
  2064                           ;!NULL                 0      0       0       0        0.0%
  2065                           ;!STACK                0      0       7       2        0.0%
  2066                           ;!EEDATA             100      0       0       0        0.0%
  2067                           
  2068                           	global	_main
  2069                           
  2070 ;; *************** function _main *****************
  2071 ;; Defined at:
  2072 ;;		line 71 in file "PR29.c"
  2073 ;; Parameters:    Size  Location     Type
  2074 ;;		None
  2075 ;; Auto vars:     Size  Location     Type
  2076 ;;		None
  2077 ;; Return value:  Size  Location     Type
  2078 ;;		None               void
  2079 ;; Registers used:
  2080 ;;		wreg, fsr0l, fsr0h, status,2, status,0, btemp+1, pclath, cstack
  2081 ;; Tracked objects:
  2082 ;;		On entry : 17F/0
  2083 ;;		On exit  : 0/0
  2084 ;;		Unchanged: 0/0
  2085 ;; Data sizes:     COMMON   BANK0   BANK1   BANK3   BANK2
  2086 ;;      Params:         0       0       0       0       0
  2087 ;;      Locals:         0       0       0       0       0
  2088 ;;      Temps:          0       1       0       0       0
  2089 ;;      Totals:         0       1       0       0       0
  2090 ;;Total ram usage:        1 bytes
  2091 ;; Hardware stack levels required when called:    7
  2092 ;; This function calls:
  2093 ;;		_send_config
  2094 ;;		_lcd_clr
  2095 ;;		_lcd_goto
  2096 ;;		_send_string
  2097 ;;		_delay
  2098 ;;		_ResetAdmin
  2099 ;;		_send_cmd
  2100 ;;		_receive_reply_nodisplay
  2101 ;;		_uart_init
  2102 ;;		_init_attendance
  2103 ;;		_CheckAdmin
  2104 ;;		_send_char
  2105 ;;		_get_eeprom
  2106 ;;		_receive_reply
  2107 ;;		_store_eeprom
  2108 ;;		_mode
  2109 ;; This function is called by:
  2110 ;;		Startup code after reset
  2111 ;; This function uses a non-reentrant model
  2112 ;;
  2113                           psect	maintext,global,class=CODE,delta=2,split=1
  2114                           global __pmaintext
  2115  082C                     __pmaintext:
  2116                           psect	maintext
  2117                           	file	"PR29.c"
  2118                           	line	71
  2119                           	global	__size_of_main
  2120  03C6                     	__size_of_main	equ	__end_of_main-_main
  2121                           	
  2122  082C                     _main:	
  2123                           	opt	stack 1
  2124                           ; Regs used in _main: [wreg-fsr0h+status,2+status,0+btemp+1+pclath+cstack]
  2125                           	line	73
  2126                           	
  2127  082C                     l3786:	
  2128                           ;PR29.c: 73: TRISA = 0b00011100;
  2129  082C  301C               	movlw	(01Ch)
  2130  082D  1683               	bsf	status, 5	;RP0=1, select bank1
  2131  082E  1303               	bcf	status, 6	;RP1=0, select bank1
  2132  082F  0085               	movwf	(133)^080h	;volatile
  2133                           	line	74
  2134                           	
  2135  0830                     l3788:	
  2136                           ;PR29.c: 74: TRISB = 0b00000000;
  2137  0830  0186               	clrf	(134)^080h	;volatile
  2138                           	line	75
  2139                           	
  2140  0831                     l3790:	
  2141                           ;PR29.c: 75: TRISC = 0b10000000;
  2142  0831  3080               	movlw	(080h)
  2143  0832  0087               	movwf	(135)^080h	;volatile
  2144                           	line	78
  2145                           	
  2146  0833                     l3792:	
  2147                           ;PR29.c: 78: ADCON1 = 0b10000110;
  2148  0833  3086               	movlw	(086h)
  2149  0834  009F               	movwf	(159)^080h	;volatile
  2150                           	line	81
  2151                           	
  2152  0835                     l3794:	
  2153                           ;PR29.c: 81: send_config(0b00000001);
  2154  0835  3001               	movlw	(01h)
  2155  0836  160A  158A  235D   	fcall	_send_config
              120A  158A         
  2156                           	line	82
  2157                           	
  2158  083B                     l3796:	
  2159                           ;PR29.c: 82: send_config(0b00000010);
  2160  083B  3002               	movlw	(02h)
  2161  083C  160A  158A  235D   	fcall	_send_config
              120A  158A         
  2162                           	line	83
  2163                           	
  2164  0841                     l3798:	
  2165                           ;PR29.c: 83: send_config(0b00000110);
  2166  0841  3006               	movlw	(06h)
  2167  0842  160A  158A  235D   	fcall	_send_config
              120A  158A         
  2168                           	line	84
  2169                           	
  2170  0847                     l3800:	
  2171                           ;PR29.c: 84: send_config(0b00001100);
  2172  0847  300C               	movlw	(0Ch)
  2173  0848  160A  158A  235D   	fcall	_send_config
              120A  158A         
  2174                           	line	85
  2175                           	
  2176  084D                     l3802:	
  2177                           ;PR29.c: 85: send_config(0b00111000);
  2178  084D  3038               	movlw	(038h)
  2179  084E  160A  158A  235D   	fcall	_send_config
              120A  158A         
  2180                           	line	87
  2181                           	
  2182  0853                     l3804:	
  2183                           ;PR29.c: 87: RA5=0;
  2184  0853  1283               	bcf	status, 5	;RP0=0, select bank0
  2185  0854  1303               	bcf	status, 6	;RP1=0, select bank0
  2186  0855  1285               	bcf	(45/8),(45)&7	;volatile
  2187                           	line	88
  2188                           	
  2189  0856                     l3806:	
  2190                           ;PR29.c: 88: RA1=0;
  2191  0856  1085               	bcf	(41/8),(41)&7	;volatile
  2192                           	line	91
  2193                           	
  2194  0857                     l3808:	
  2195                           ;PR29.c: 91: lcd_clr();
  2196  0857  160A  158A  229C   	fcall	_lcd_clr
              120A  158A         
  2197                           	line	92
  2198                           	
  2199  085C                     l3810:	
  2200                           ;PR29.c: 92: lcd_goto(0);
  2201  085C  3000               	movlw	(0)
  2202  085D  160A  158A  22DB   	fcall	_lcd_goto
              120A  158A         
  2203                           	line	93
  2204                           	
  2205  0862                     l3812:	
  2206                           ;PR29.c: 93: send_string("Cytron Tech.");
  2207  0862  303A               	movlw	low(STR_1|8000h)
  2208  0863  00F9               	movwf	(?_send_string)
  2209  0864  3092               	movlw	high(STR_1|8000h)
  2210  0865  00FA               	movwf	((?_send_string))+1
  2211  0866  160A  158A  23B2   	fcall	_send_string
              120A  158A         
  2212                           	line	94
  2213                           	
  2214  086B                     l3814:	
  2215                           ;PR29.c: 94: lcd_goto(20);
  2216  086B  3014               	movlw	(014h)
  2217  086C  160A  158A  22DB   	fcall	_lcd_goto
              120A  158A         
  2218                           	line	95
  2219                           	
  2220  0871                     l3816:	
  2221                           ;PR29.c: 95: send_string("PR 29");
  2222  0871  30A5               	movlw	low(STR_2|8000h)
  2223  0872  00F9               	movwf	(?_send_string)
  2224  0873  3092               	movlw	high(STR_2|8000h)
  2225  0874  00FA               	movwf	((?_send_string))+1
  2226  0875  160A  158A  23B2   	fcall	_send_string
              120A  158A         
  2227                           	line	96
  2228                           	
  2229  087A                     l3818:	
  2230                           ;PR29.c: 96: delay(200000);
  2231  087A  3000               	movlw	0
  2232  087B  00F3               	movwf	(?_delay+3)
  2233  087C  3003               	movlw	03h
  2234  087D  00F2               	movwf	(?_delay+2)
  2235  087E  300D               	movlw	0Dh
  2236  087F  00F1               	movwf	(?_delay+1)
  2237  0880  3040               	movlw	040h
  2238  0881  00F0               	movwf	(?_delay)
  2239                           
  2240  0882  160A  158A  2382   	fcall	_delay
              120A  158A         
  2241                           	line	97
  2242                           	
  2243  0887                     l3820:	
  2244                           ;PR29.c: 97: lcd_clr();
  2245  0887  160A  158A  229C   	fcall	_lcd_clr
              120A  158A         
  2246                           	line	101
  2247                           	
  2248  088C                     l3822:	
  2249                           ;PR29.c: 101: SPBRG = 0x40;
  2250  088C  3040               	movlw	(040h)
  2251  088D  1683               	bsf	status, 5	;RP0=1, select bank1
  2252  088E  1303               	bcf	status, 6	;RP1=0, select bank1
  2253  088F  0099               	movwf	(153)^080h	;volatile
  2254                           	line	102
  2255                           	
  2256  0890                     l3824:	
  2257                           ;PR29.c: 102: BRGH = 1;
  2258  0890  1518               	bsf	(1218/8)^080h,(1218)&7	;volatile
  2259                           	line	103
  2260                           	
  2261  0891                     l3826:	
  2262                           ;PR29.c: 103: TXEN = 1;
  2263  0891  1698               	bsf	(1221/8)^080h,(1221)&7	;volatile
  2264                           	line	104
  2265                           	
  2266  0892                     l3828:	
  2267                           ;PR29.c: 104: CREN = 1;
  2268  0892  1283               	bcf	status, 5	;RP0=0, select bank0
  2269  0893  1303               	bcf	status, 6	;RP1=0, select bank0
  2270  0894  1618               	bsf	(196/8),(196)&7	;volatile
  2271                           	line	105
  2272                           	
  2273  0895                     l3830:	
  2274                           ;PR29.c: 105: SPEN = 1;
  2275  0895  1798               	bsf	(199/8),(199)&7	;volatile
  2276                           	line	108
  2277                           	
  2278  0896                     l3832:	
  2279                           ;PR29.c: 108: if((!RA2) && (!RA3))
  2280  0896  1905               	btfsc	(42/8),(42)&7	;volatile
  2281  0897  2899               	goto	u3291
  2282  0898  289A               	goto	u3290
  2283  0899                     u3291:
  2284  0899  28BC               	goto	l3844
  2285  089A                     u3290:
  2286                           	
  2287  089A                     l3834:	
  2288  089A  1985               	btfsc	(43/8),(43)&7	;volatile
  2289  089B  289D               	goto	u3301
  2290  089C  289E               	goto	u3300
  2291  089D                     u3301:
  2292  089D  28BC               	goto	l3844
  2293  089E                     u3300:
  2294                           	line	110
  2295                           	
  2296  089E                     l3836:	
  2297                           ;PR29.c: 109: {
  2298                           ;PR29.c: 110: delay(100000);
  2299  089E  3000               	movlw	0
  2300  089F  00F3               	movwf	(?_delay+3)
  2301  08A0  3001               	movlw	01h
  2302  08A1  00F2               	movwf	(?_delay+2)
  2303  08A2  3086               	movlw	086h
  2304  08A3  00F1               	movwf	(?_delay+1)
  2305  08A4  30A0               	movlw	0A0h
  2306  08A5  00F0               	movwf	(?_delay)
  2307                           
  2308  08A6  160A  158A  2382   	fcall	_delay
              120A  158A         
  2309                           	line	111
  2310                           	
  2311  08AB                     l3838:	
  2312                           ;PR29.c: 111: if((!RA2) && (!RA3))
  2313  08AB  1283               	bcf	status, 5	;RP0=0, select bank0
  2314  08AC  1303               	bcf	status, 6	;RP1=0, select bank0
  2315  08AD  1905               	btfsc	(42/8),(42)&7	;volatile
  2316  08AE  28B0               	goto	u3311
  2317  08AF  28B1               	goto	u3310
  2318  08B0                     u3311:
  2319  08B0  28BC               	goto	l3844
  2320  08B1                     u3310:
  2321                           	
  2322  08B1                     l3840:	
  2323  08B1  1985               	btfsc	(43/8),(43)&7	;volatile
  2324  08B2  28B4               	goto	u3321
  2325  08B3  28B5               	goto	u3320
  2326  08B4                     u3321:
  2327  08B4  28BC               	goto	l3844
  2328  08B5                     u3320:
  2329                           	line	113
  2330                           	
  2331  08B5                     l3842:	
  2332                           ;PR29.c: 112: {
  2333                           ;PR29.c: 113: ResetAdmin();
  2334  08B5  160A  118A  22E3   	fcall	_ResetAdmin
              120A  158A         
  2335  08BA  28BC               	goto	l3844
  2336                           	line	114
  2337                           	
  2338  08BB                     l142:	
  2339  08BB  28BC               	goto	l3844
  2340                           	line	115
  2341                           	
  2342  08BC                     l141:	
  2343                           	line	118
  2344                           	
  2345  08BC                     l3844:	
  2346                           ;PR29.c: 114: }
  2347                           ;PR29.c: 115: }
  2348                           ;PR29.c: 118: send_cmd(0x2E,0x00,0x10,0x00);
  2349  08BC  01F1               	clrf	(?_send_cmd)
  2350  08BD  3010               	movlw	(010h)
  2351  08BE  1283               	bcf	status, 5	;RP0=0, select bank0
  2352  08BF  1303               	bcf	status, 6	;RP1=0, select bank0
  2353  08C0  00CD               	movwf	(??_main+0)+0
  2354  08C1  084D               	movf	(??_main+0)+0,w
  2355  08C2  00F2               	movwf	0+(?_send_cmd)+01h
  2356  08C3  01F3               	clrf	0+(?_send_cmd)+02h
  2357  08C4  302E               	movlw	(02Eh)
  2358  08C5  160A  158A  241F   	fcall	_send_cmd
              120A  158A         
  2359                           	line	119
  2360                           	
  2361  08CA                     l3846:	
  2362                           ;PR29.c: 119: delay(10);
  2363  08CA  3000               	movlw	0
  2364  08CB  00F3               	movwf	(?_delay+3)
  2365  08CC  3000               	movlw	0
  2366  08CD  00F2               	movwf	(?_delay+2)
  2367  08CE  3000               	movlw	0
  2368  08CF  00F1               	movwf	(?_delay+1)
  2369  08D0  300A               	movlw	0Ah
  2370  08D1  00F0               	movwf	(?_delay)
  2371                           
  2372  08D2  160A  158A  2382   	fcall	_delay
              120A  158A         
  2373                           	line	120
  2374                           	
  2375  08D7                     l3848:	
  2376                           ;PR29.c: 120: receive_reply_nodisplay();
  2377  08D7  160A  158A  2317   	fcall	_receive_reply_nodisplay
              120A  158A         
  2378                           	line	121
  2379                           	
  2380  08DC                     l3850:	
  2381                           ;PR29.c: 121: send_cmd(0x2d,0x00,1,0x00);
  2382  08DC  01F1               	clrf	(?_send_cmd)
  2383  08DD  01F2               	clrf	0+(?_send_cmd)+01h
  2384  08DE  1403               	bsf	status,0
  2385  08DF  0DF2               	rlf	0+(?_send_cmd)+01h,f
  2386  08E0  01F3               	clrf	0+(?_send_cmd)+02h
  2387  08E1  302D               	movlw	(02Dh)
  2388  08E2  160A  158A  241F   	fcall	_send_cmd
              120A  158A         
  2389                           	line	122
  2390                           	
  2391  08E7                     l3852:	
  2392                           ;PR29.c: 122: delay(10);
  2393  08E7  3000               	movlw	0
  2394  08E8  00F3               	movwf	(?_delay+3)
  2395  08E9  3000               	movlw	0
  2396  08EA  00F2               	movwf	(?_delay+2)
  2397  08EB  3000               	movlw	0
  2398  08EC  00F1               	movwf	(?_delay+1)
  2399  08ED  300A               	movlw	0Ah
  2400  08EE  00F0               	movwf	(?_delay)
  2401                           
  2402  08EF  160A  158A  2382   	fcall	_delay
              120A  158A         
  2403                           	line	123
  2404                           	
  2405  08F4                     l3854:	
  2406                           ;PR29.c: 123: receive_reply_nodisplay();
  2407  08F4  160A  158A  2317   	fcall	_receive_reply_nodisplay
              120A  158A         
  2408                           	line	126
  2409                           	
  2410  08F9                     l3856:	
  2411                           ;PR29.c: 126: uart_init(1);
  2412  08F9  3001               	movlw	(01h)
  2413  08FA  160A  158A  22C5   	fcall	_uart_init
              120A  158A         
  2414                           	line	129
  2415                           	
  2416  08FF                     l3858:	
  2417                           ;PR29.c: 129: init_attendance();
  2418  08FF  160A  158A  2523   	fcall	_init_attendance
              120A  158A         
  2419  0904  294E               	goto	l144
  2420                           	line	131
  2421                           ;PR29.c: 131: while(1)
  2422                           	
  2423  0905                     l143:	
  2424                           	line	133
  2425                           ;PR29.c: 132: {
  2426                           ;PR29.c: 133: while(usertype_enter==0)
  2427  0905  294E               	goto	l144
  2428                           	
  2429  0906                     l145:	
  2430                           	line	135
  2431                           	
  2432  0906                     l3860:	
  2433                           ;PR29.c: 134: {
  2434                           ;PR29.c: 135: lcd_goto(0);
  2435  0906  3000               	movlw	(0)
  2436  0907  160A  158A  22DB   	fcall	_lcd_goto
              120A  158A         
  2437                           	line	136
  2438                           	
  2439  090C                     l3862:	
  2440                           ;PR29.c: 136: send_string("1. Admin login  ");
  2441  090C  3023               	movlw	low(STR_3|8000h)
  2442  090D  00F9               	movwf	(?_send_string)
  2443  090E  3091               	movlw	high(STR_3|8000h)
  2444  090F  00FA               	movwf	((?_send_string))+1
  2445  0910  160A  158A  23B2   	fcall	_send_string
              120A  158A         
  2446                           	line	137
  2447                           	
  2448  0915                     l3864:	
  2449                           ;PR29.c: 137: lcd_goto(20);
  2450  0915  3014               	movlw	(014h)
  2451  0916  160A  158A  22DB   	fcall	_lcd_goto
              120A  158A         
  2452                           	line	138
  2453                           ;PR29.c: 138: send_string("2. User login   ");
  2454  091B  3001               	movlw	low(STR_4|8000h)
  2455  091C  00F9               	movwf	(?_send_string)
  2456  091D  3091               	movlw	high(STR_4|8000h)
  2457  091E  00FA               	movwf	((?_send_string))+1
  2458  091F  160A  158A  23B2   	fcall	_send_string
              120A  158A         
  2459                           	line	139
  2460                           	
  2461  0924                     l3866:	
  2462                           ;PR29.c: 139: if(!RA2)
  2463  0924  1283               	bcf	status, 5	;RP0=0, select bank0
  2464  0925  1303               	bcf	status, 6	;RP1=0, select bank0
  2465  0926  1905               	btfsc	(42/8),(42)&7	;volatile
  2466  0927  2929               	goto	u3331
  2467  0928  292A               	goto	u3330
  2468  0929                     u3331:
  2469  0929  2940               	goto	l146
  2470  092A                     u3330:
  2471  092A  292C               	goto	l147
  2472                           	line	141
  2473                           	
  2474  092B                     l3868:	
  2475                           ;PR29.c: 140: {
  2476                           ;PR29.c: 141: while(!RA2);
  2477  092B  292C               	goto	l147
  2478                           	
  2479  092C                     l148:	
  2480                           	
  2481  092C                     l147:	
  2482  092C  1D05               	btfss	(42/8),(42)&7	;volatile
  2483  092D  292F               	goto	u3341
  2484  092E  2930               	goto	u3340
  2485  092F                     u3341:
  2486  092F  292C               	goto	l147
  2487  0930                     u3340:
  2488  0930  2931               	goto	l3870
  2489                           	
  2490  0931                     l149:	
  2491                           	line	142
  2492                           	
  2493  0931                     l3870:	
  2494                           ;PR29.c: 142: CheckAdmin();
  2495  0931  160A  158A  2458   	fcall	_CheckAdmin
              120A  158A         
  2496                           	line	143
  2497                           	
  2498  0936                     l3872:	
  2499                           ;PR29.c: 143: if(error!=1)
  2500  0936  1283               	bcf	status, 5	;RP0=0, select bank0
  2501  0937  1303               	bcf	status, 6	;RP1=0, select bank0
  2502  0938  19D9               	btfsc	(_error/8),(_error)&7
  2503  0939  293B               	goto	u3351
  2504  093A  293C               	goto	u3350
  2505  093B                     u3351:
  2506  093B  294E               	goto	l144
  2507  093C                     u3350:
  2508                           	line	145
  2509                           	
  2510  093C                     l3874:	
  2511                           ;PR29.c: 144: {
  2512                           ;PR29.c: 145: admin = 1;
  2513  093C  14D9               	bsf	(_admin/8),(_admin)&7
  2514                           	line	146
  2515                           ;PR29.c: 146: usertype_enter=1;
  2516  093D  17D9               	bsf	(_usertype_enter/8),(_usertype_enter)&7
  2517  093E  294E               	goto	l144
  2518                           	line	147
  2519                           	
  2520  093F                     l150:	
  2521                           	line	148
  2522                           ;PR29.c: 147: }
  2523                           ;PR29.c: 148: }
  2524  093F  294E               	goto	l144
  2525                           	line	149
  2526                           	
  2527  0940                     l146:	
  2528                           ;PR29.c: 149: else if (!RA3)
  2529  0940  1985               	btfsc	(43/8),(43)&7	;volatile
  2530  0941  2943               	goto	u3361
  2531  0942  2944               	goto	u3360
  2532  0943                     u3361:
  2533  0943  294E               	goto	l144
  2534  0944                     u3360:
  2535  0944  2946               	goto	l153
  2536                           	line	151
  2537                           	
  2538  0945                     l3876:	
  2539                           ;PR29.c: 150: {
  2540                           ;PR29.c: 151: while(!RA3);
  2541  0945  2946               	goto	l153
  2542                           	
  2543  0946                     l154:	
  2544                           	
  2545  0946                     l153:	
  2546  0946  1D85               	btfss	(43/8),(43)&7	;volatile
  2547  0947  2949               	goto	u3371
  2548  0948  294A               	goto	u3370
  2549  0949                     u3371:
  2550  0949  2946               	goto	l153
  2551  094A                     u3370:
  2552                           	
  2553  094A                     l155:	
  2554                           	line	152
  2555                           ;PR29.c: 152: admin = 0;
  2556  094A  10D9               	bcf	(_admin/8),(_admin)&7
  2557                           	line	153
  2558                           ;PR29.c: 153: usertype_enter=1;
  2559  094B  17D9               	bsf	(_usertype_enter/8),(_usertype_enter)&7
  2560  094C  294E               	goto	l144
  2561                           	line	154
  2562                           	
  2563  094D                     l152:	
  2564  094D  294E               	goto	l144
  2565                           	line	155
  2566                           	
  2567  094E                     l151:	
  2568                           	
  2569  094E                     l144:	
  2570                           	line	133
  2571  094E  1283               	bcf	status, 5	;RP0=0, select bank0
  2572  094F  1303               	bcf	status, 6	;RP1=0, select bank0
  2573  0950  1FD9               	btfss	(_usertype_enter/8),(_usertype_enter)&7
  2574  0951  2953               	goto	u3381
  2575  0952  2954               	goto	u3380
  2576  0953                     u3381:
  2577  0953  2906               	goto	l3860
  2578  0954                     u3380:
  2579  0954  2955               	goto	l3878
  2580                           	
  2581  0955                     l156:	
  2582                           	line	156
  2583                           	
  2584  0955                     l3878:	
  2585                           ;PR29.c: 154: }
  2586                           ;PR29.c: 155: }
  2587                           ;PR29.c: 156: lcd_clr();
  2588  0955  160A  158A  229C   	fcall	_lcd_clr
              120A  158A         
  2589                           	line	159
  2590                           ;PR29.c: 159: while(mode_enter==0 && admin ==1 && usertype_enter==1)
  2591  095A  2A69               	goto	l3942
  2592                           	
  2593  095B                     l158:	
  2594                           	line	161
  2595                           ;PR29.c: 160: {
  2596                           ;PR29.c: 161: if((!RA2))
  2597  095B  1905               	btfsc	(42/8),(42)&7	;volatile
  2598  095C  295E               	goto	u3391
  2599  095D  295F               	goto	u3390
  2600  095E                     u3391:
  2601  095E  2976               	goto	l159
  2602  095F                     u3390:
  2603  095F  2961               	goto	l160
  2604                           	line	163
  2605                           	
  2606  0960                     l3880:	
  2607                           ;PR29.c: 162: {
  2608                           ;PR29.c: 163: while((!RA2));
  2609  0960  2961               	goto	l160
  2610                           	
  2611  0961                     l161:	
  2612                           	
  2613  0961                     l160:	
  2614  0961  1D05               	btfss	(42/8),(42)&7	;volatile
  2615  0962  2964               	goto	u3401
  2616  0963  2965               	goto	u3400
  2617  0964                     u3401:
  2618  0964  2961               	goto	l160
  2619  0965                     u3400:
  2620  0965  2966               	goto	l3882
  2621                           	
  2622  0966                     l162:	
  2623                           	line	164
  2624                           	
  2625  0966                     l3882:	
  2626                           ;PR29.c: 164: if (mode_count<8)
  2627  0966  3008               	movlw	(08h)
  2628  0967  025D               	subwf	(_mode_count),w
  2629  0968  1803               	skipnc
  2630  0969  296B               	goto	u3411
  2631  096A  296C               	goto	u3410
  2632  096B                     u3411:
  2633  096B  2971               	goto	l3886
  2634  096C                     u3410:
  2635                           	line	165
  2636                           	
  2637  096C                     l3884:	
  2638                           ;PR29.c: 165: mode_count++;
  2639  096C  3001               	movlw	(01h)
  2640  096D  00CD               	movwf	(??_main+0)+0
  2641  096E  084D               	movf	(??_main+0)+0,w
  2642  096F  07DD               	addwf	(_mode_count),f
  2643  0970  299E               	goto	l3898
  2644                           	line	166
  2645                           	
  2646  0971                     l163:	
  2647                           	line	167
  2648                           	
  2649  0971                     l3886:	
  2650                           ;PR29.c: 166: else
  2651                           ;PR29.c: 167: mode_count=1;
  2652  0971  01DD               	clrf	(_mode_count)
  2653  0972  1403               	bsf	status,0
  2654  0973  0DDD               	rlf	(_mode_count),f
  2655  0974  299E               	goto	l3898
  2656                           	
  2657  0975                     l164:	
  2658                           	line	168
  2659                           ;PR29.c: 168: }
  2660  0975  299E               	goto	l3898
  2661                           	line	169
  2662                           	
  2663  0976                     l159:	
  2664                           ;PR29.c: 169: else if((!RA3))
  2665  0976  1985               	btfsc	(43/8),(43)&7	;volatile
  2666  0977  2979               	goto	u3421
  2667  0978  297A               	goto	u3420
  2668  0979                     u3421:
  2669  0979  2990               	goto	l166
  2670  097A                     u3420:
  2671  097A  297C               	goto	l167
  2672                           	line	171
  2673                           	
  2674  097B                     l3888:	
  2675                           ;PR29.c: 170: {
  2676                           ;PR29.c: 171: while((!RA3));
  2677  097B  297C               	goto	l167
  2678                           	
  2679  097C                     l168:	
  2680                           	
  2681  097C                     l167:	
  2682  097C  1D85               	btfss	(43/8),(43)&7	;volatile
  2683  097D  297F               	goto	u3431
  2684  097E  2980               	goto	u3430
  2685  097F                     u3431:
  2686  097F  297C               	goto	l167
  2687  0980                     u3430:
  2688  0980  2981               	goto	l3890
  2689                           	
  2690  0981                     l169:	
  2691                           	line	172
  2692                           	
  2693  0981                     l3890:	
  2694                           ;PR29.c: 172: if (mode_count>1)
  2695  0981  3002               	movlw	(02h)
  2696  0982  025D               	subwf	(_mode_count),w
  2697  0983  1C03               	skipc
  2698  0984  2986               	goto	u3441
  2699  0985  2987               	goto	u3440
  2700  0986                     u3441:
  2701  0986  298A               	goto	l3894
  2702  0987                     u3440:
  2703                           	line	173
  2704                           	
  2705  0987                     l3892:	
  2706                           ;PR29.c: 173: mode_count--;
  2707  0987  3001               	movlw	low(01h)
  2708  0988  02DD               	subwf	(_mode_count),f
  2709  0989  299E               	goto	l3898
  2710                           	line	174
  2711                           	
  2712  098A                     l170:	
  2713                           	line	175
  2714                           	
  2715  098A                     l3894:	
  2716                           ;PR29.c: 174: else
  2717                           ;PR29.c: 175: mode_count=8;
  2718  098A  3008               	movlw	(08h)
  2719  098B  00CD               	movwf	(??_main+0)+0
  2720  098C  084D               	movf	(??_main+0)+0,w
  2721  098D  00DD               	movwf	(_mode_count)
  2722  098E  299E               	goto	l3898
  2723                           	
  2724  098F                     l171:	
  2725                           	line	176
  2726                           ;PR29.c: 176: }
  2727  098F  299E               	goto	l3898
  2728                           	line	177
  2729                           	
  2730  0990                     l166:	
  2731                           ;PR29.c: 177: else if(!RA4)
  2732  0990  1A05               	btfsc	(44/8),(44)&7	;volatile
  2733  0991  2993               	goto	u3451
  2734  0992  2994               	goto	u3450
  2735  0993                     u3451:
  2736  0993  299E               	goto	l3898
  2737  0994                     u3450:
  2738  0994  2996               	goto	l174
  2739                           	line	179
  2740                           	
  2741  0995                     l3896:	
  2742                           ;PR29.c: 178: {
  2743                           ;PR29.c: 179: while(!RA4);
  2744  0995  2996               	goto	l174
  2745                           	
  2746  0996                     l175:	
  2747                           	
  2748  0996                     l174:	
  2749  0996  1E05               	btfss	(44/8),(44)&7	;volatile
  2750  0997  2999               	goto	u3461
  2751  0998  299A               	goto	u3460
  2752  0999                     u3461:
  2753  0999  2996               	goto	l174
  2754  099A                     u3460:
  2755                           	
  2756  099A                     l176:	
  2757                           	line	180
  2758                           ;PR29.c: 180: mode_enter=1;
  2759  099A  1759               	bsf	(_mode_enter/8),(_mode_enter)&7
  2760  099B  299E               	goto	l3898
  2761                           	line	181
  2762                           	
  2763  099C                     l173:	
  2764  099C  299E               	goto	l3898
  2765                           	line	182
  2766                           	
  2767  099D                     l172:	
  2768  099D  299E               	goto	l3898
  2769                           	
  2770  099E                     l165:	
  2771                           	
  2772  099E                     l3898:	
  2773                           ;PR29.c: 181: }
  2774                           ;PR29.c: 182: lcd_goto(0);
  2775  099E  3000               	movlw	(0)
  2776  099F  160A  158A  22DB   	fcall	_lcd_goto
              120A  158A         
  2777                           	line	183
  2778                           	
  2779  09A4                     l3900:	
  2780                           ;PR29.c: 183: send_string("Mode= ");
  2781  09A4  3097               	movlw	low(STR_5|8000h)
  2782  09A5  00F9               	movwf	(?_send_string)
  2783  09A6  3092               	movlw	high(STR_5|8000h)
  2784  09A7  00FA               	movwf	((?_send_string))+1
  2785  09A8  160A  158A  23B2   	fcall	_send_string
              120A  158A         
  2786                           	line	184
  2787                           	
  2788  09AD                     l3902:	
  2789                           ;PR29.c: 184: lcd_goto(6);
  2790  09AD  3006               	movlw	(06h)
  2791  09AE  160A  158A  22DB   	fcall	_lcd_goto
              120A  158A         
  2792                           	line	185
  2793                           	
  2794  09B3                     l3904:	
  2795                           ;PR29.c: 185: send_char(0x30+mode_count);
  2796  09B3  1283               	bcf	status, 5	;RP0=0, select bank0
  2797  09B4  1303               	bcf	status, 6	;RP1=0, select bank0
  2798  09B5  085D               	movf	(_mode_count),w
  2799  09B6  3E30               	addlw	030h
  2800  09B7  160A  158A  2338   	fcall	_send_char
              120A  158A         
  2801                           	line	186
  2802                           	
  2803  09BC                     l3906:	
  2804                           ;PR29.c: 186: lcd_goto(7);
  2805  09BC  3007               	movlw	(07h)
  2806  09BD  160A  158A  22DB   	fcall	_lcd_goto
              120A  158A         
  2807                           	line	187
  2808                           ;PR29.c: 187: send_string("/8");
  2809  09C2  30B4               	movlw	low(STR_6|8000h)
  2810  09C3  00F9               	movwf	(?_send_string)
  2811  09C4  3092               	movlw	high(STR_6|8000h)
  2812  09C5  00FA               	movwf	((?_send_string))+1
  2813  09C6  160A  158A  23B2   	fcall	_send_string
              120A  158A         
  2814                           	line	188
  2815                           	
  2816  09CB                     l3908:	
  2817                           ;PR29.c: 188: lcd_goto(20);
  2818  09CB  3014               	movlw	(014h)
  2819  09CC  160A  158A  22DB   	fcall	_lcd_goto
              120A  158A         
  2820                           	line	189
  2821                           	
  2822  09D1                     l3910:	
  2823                           ;PR29.c: 189: if (mode_count==1) send_string("Set Day         ");
  2824  09D1  1283               	bcf	status, 5	;RP0=0, select bank0
  2825  09D2  1303               	bcf	status, 6	;RP1=0, select bank0
  2826  09D3  085D               	movf	(_mode_count),w
  2827  09D4  3A01               	xorlw	01h
  2828  09D5  1D03               	skipz
  2829  09D6  29D8               	goto	u3471
  2830  09D7  29D9               	goto	u3470
  2831  09D8                     u3471:
  2832  09D8  29E3               	goto	l3914
  2833  09D9                     u3470:
  2834                           	
  2835  09D9                     l3912:	
  2836  09D9  3046               	movlw	low(STR_7|8000h)
  2837  09DA  00F9               	movwf	(?_send_string)
  2838  09DB  3090               	movlw	high(STR_7|8000h)
  2839  09DC  00FA               	movwf	((?_send_string))+1
  2840  09DD  160A  158A  23B2   	fcall	_send_string
              120A  158A         
  2841  09E2  2A69               	goto	l3942
  2842                           	line	190
  2843                           	
  2844  09E3                     l177:	
  2845                           	
  2846  09E3                     l3914:	
  2847                           ;PR29.c: 190: else if (mode_count==2) send_string("Add a New Data  ");
  2848  09E3  1283               	bcf	status, 5	;RP0=0, select bank0
  2849  09E4  1303               	bcf	status, 6	;RP1=0, select bank0
  2850  09E5  085D               	movf	(_mode_count),w
  2851  09E6  3A02               	xorlw	02h
  2852  09E7  1D03               	skipz
  2853  09E8  29EA               	goto	u3481
  2854  09E9  29EB               	goto	u3480
  2855  09EA                     u3481:
  2856  09EA  29F5               	goto	l3918
  2857  09EB                     u3480:
  2858                           	
  2859  09EB                     l3916:	
  2860  09EB  3012               	movlw	low(STR_8|8000h)
  2861  09EC  00F9               	movwf	(?_send_string)
  2862  09ED  3091               	movlw	high(STR_8|8000h)
  2863  09EE  00FA               	movwf	((?_send_string))+1
  2864  09EF  160A  158A  23B2   	fcall	_send_string
              120A  158A         
  2865  09F4  2A69               	goto	l3942
  2866                           	line	191
  2867                           	
  2868  09F5                     l179:	
  2869                           	
  2870  09F5                     l3918:	
  2871                           ;PR29.c: 191: else if (mode_count==3) send_string("Delete a Data   ");
  2872  09F5  1283               	bcf	status, 5	;RP0=0, select bank0
  2873  09F6  1303               	bcf	status, 6	;RP1=0, select bank0
  2874  09F7  085D               	movf	(_mode_count),w
  2875  09F8  3A03               	xorlw	03h
  2876  09F9  1D03               	skipz
  2877  09FA  29FC               	goto	u3491
  2878  09FB  29FD               	goto	u3490
  2879  09FC                     u3491:
  2880  09FC  2A07               	goto	l3922
  2881  09FD                     u3490:
  2882                           	
  2883  09FD                     l3920:	
  2884  09FD  30F0               	movlw	low(STR_9|8000h)
  2885  09FE  00F9               	movwf	(?_send_string)
  2886  09FF  3090               	movlw	high(STR_9|8000h)
  2887  0A00  00FA               	movwf	((?_send_string))+1
  2888  0A01  160A  158A  23B2   	fcall	_send_string
              120A  158A         
  2889  0A06  2A69               	goto	l3942
  2890                           	line	192
  2891                           	
  2892  0A07                     l181:	
  2893                           	
  2894  0A07                     l3922:	
  2895                           ;PR29.c: 192: else if (mode_count==4) send_string("Delete All Data ");
  2896  0A07  1283               	bcf	status, 5	;RP0=0, select bank0
  2897  0A08  1303               	bcf	status, 6	;RP1=0, select bank0
  2898  0A09  085D               	movf	(_mode_count),w
  2899  0A0A  3A04               	xorlw	04h
  2900  0A0B  1D03               	skipz
  2901  0A0C  2A0E               	goto	u3501
  2902  0A0D  2A0F               	goto	u3500
  2903  0A0E                     u3501:
  2904  0A0E  2A19               	goto	l3926
  2905  0A0F                     u3500:
  2906                           	
  2907  0A0F                     l3924:	
  2908  0A0F  3056               	movlw	low(STR_10|8000h)
  2909  0A10  00F9               	movwf	(?_send_string)
  2910  0A11  3091               	movlw	high(STR_10|8000h)
  2911  0A12  00FA               	movwf	((?_send_string))+1
  2912  0A13  160A  158A  23B2   	fcall	_send_string
              120A  158A         
  2913  0A18  2A69               	goto	l3942
  2914                           	line	193
  2915                           	
  2916  0A19                     l183:	
  2917                           	
  2918  0A19                     l3926:	
  2919                           ;PR29.c: 193: else if (mode_count==5) send_string("Change Admin    ");
  2920  0A19  1283               	bcf	status, 5	;RP0=0, select bank0
  2921  0A1A  1303               	bcf	status, 6	;RP1=0, select bank0
  2922  0A1B  085D               	movf	(_mode_count),w
  2923  0A1C  3A05               	xorlw	05h
  2924  0A1D  1D03               	skipz
  2925  0A1E  2A20               	goto	u3511
  2926  0A1F  2A21               	goto	u3510
  2927  0A20                     u3511:
  2928  0A20  2A2B               	goto	l3930
  2929  0A21                     u3510:
  2930                           	
  2931  0A21                     l3928:	
  2932  0A21  30CE               	movlw	low(STR_11|8000h)
  2933  0A22  00F9               	movwf	(?_send_string)
  2934  0A23  3090               	movlw	high(STR_11|8000h)
  2935  0A24  00FA               	movwf	((?_send_string))+1
  2936  0A25  160A  158A  23B2   	fcall	_send_string
              120A  158A         
  2937  0A2A  2A69               	goto	l3942
  2938                           	line	194
  2939                           	
  2940  0A2B                     l185:	
  2941                           	
  2942  0A2B                     l3930:	
  2943                           ;PR29.c: 194: else if (mode_count==6) send_string("View Attendance ");
  2944  0A2B  1283               	bcf	status, 5	;RP0=0, select bank0
  2945  0A2C  1303               	bcf	status, 6	;RP1=0, select bank0
  2946  0A2D  085D               	movf	(_mode_count),w
  2947  0A2E  3A06               	xorlw	06h
  2948  0A2F  1D03               	skipz
  2949  0A30  2A32               	goto	u3521
  2950  0A31  2A33               	goto	u3520
  2951  0A32                     u3521:
  2952  0A32  2A3D               	goto	l3934
  2953  0A33                     u3520:
  2954                           	
  2955  0A33                     l3932:	
  2956  0A33  3067               	movlw	low(STR_12|8000h)
  2957  0A34  00F9               	movwf	(?_send_string)
  2958  0A35  3091               	movlw	high(STR_12|8000h)
  2959  0A36  00FA               	movwf	((?_send_string))+1
  2960  0A37  160A  158A  23B2   	fcall	_send_string
              120A  158A         
  2961  0A3C  2A69               	goto	l3942
  2962                           	line	195
  2963                           	
  2964  0A3D                     l187:	
  2965                           	
  2966  0A3D                     l3934:	
  2967                           ;PR29.c: 195: else if (mode_count==7) send_string("Clear Attendance");
  2968  0A3D  1283               	bcf	status, 5	;RP0=0, select bank0
  2969  0A3E  1303               	bcf	status, 6	;RP1=0, select bank0
  2970  0A3F  085D               	movf	(_mode_count),w
  2971  0A40  3A07               	xorlw	07h
  2972  0A41  1D03               	skipz
  2973  0A42  2A44               	goto	u3531
  2974  0A43  2A45               	goto	u3530
  2975  0A44                     u3531:
  2976  0A44  2A4F               	goto	l3938
  2977  0A45                     u3530:
  2978                           	
  2979  0A45                     l3936:	
  2980  0A45  30EF               	movlw	low(STR_13|8000h)
  2981  0A46  00F9               	movwf	(?_send_string)
  2982  0A47  3091               	movlw	high(STR_13|8000h)
  2983  0A48  00FA               	movwf	((?_send_string))+1
  2984  0A49  160A  158A  23B2   	fcall	_send_string
              120A  158A         
  2985  0A4E  2A69               	goto	l3942
  2986                           	line	196
  2987                           	
  2988  0A4F                     l189:	
  2989                           	
  2990  0A4F                     l3938:	
  2991                           ;PR29.c: 196: else if (mode_count==8) send_string("Export          ");
  2992  0A4F  1283               	bcf	status, 5	;RP0=0, select bank0
  2993  0A50  1303               	bcf	status, 6	;RP1=0, select bank0
  2994  0A51  085D               	movf	(_mode_count),w
  2995  0A52  3A08               	xorlw	08h
  2996  0A53  1D03               	skipz
  2997  0A54  2A56               	goto	u3541
  2998  0A55  2A57               	goto	u3540
  2999  0A56                     u3541:
  3000  0A56  2A69               	goto	l3942
  3001  0A57                     u3540:
  3002                           	
  3003  0A57                     l3940:	
  3004  0A57  3024               	movlw	low(STR_14|8000h)
  3005  0A58  00F9               	movwf	(?_send_string)
  3006  0A59  3090               	movlw	high(STR_14|8000h)
  3007  0A5A  00FA               	movwf	((?_send_string))+1
  3008  0A5B  160A  158A  23B2   	fcall	_send_string
              120A  158A         
  3009  0A60  2A69               	goto	l3942
  3010                           	
  3011  0A61                     l191:	
  3012  0A61  2A69               	goto	l3942
  3013                           	line	197
  3014                           	
  3015  0A62                     l190:	
  3016  0A62  2A69               	goto	l3942
  3017                           	
  3018  0A63                     l188:	
  3019  0A63  2A69               	goto	l3942
  3020                           	
  3021  0A64                     l186:	
  3022  0A64  2A69               	goto	l3942
  3023                           	
  3024  0A65                     l184:	
  3025  0A65  2A69               	goto	l3942
  3026                           	
  3027  0A66                     l182:	
  3028  0A66  2A69               	goto	l3942
  3029                           	
  3030  0A67                     l180:	
  3031  0A67  2A69               	goto	l3942
  3032                           	
  3033  0A68                     l178:	
  3034  0A68  2A69               	goto	l3942
  3035                           	
  3036  0A69                     l157:	
  3037                           	line	159
  3038                           	
  3039  0A69                     l3942:	
  3040  0A69  1283               	bcf	status, 5	;RP0=0, select bank0
  3041  0A6A  1303               	bcf	status, 6	;RP1=0, select bank0
  3042  0A6B  1B59               	btfsc	(_mode_enter/8),(_mode_enter)&7
  3043  0A6C  2A6E               	goto	u3551
  3044  0A6D  2A6F               	goto	u3550
  3045  0A6E                     u3551:
  3046  0A6E  2BC3               	goto	l195
  3047  0A6F                     u3550:
  3048                           	
  3049  0A6F                     l3944:	
  3050  0A6F  1CD9               	btfss	(_admin/8),(_admin)&7
  3051  0A70  2A72               	goto	u3561
  3052  0A71  2A73               	goto	u3560
  3053  0A72                     u3561:
  3054  0A72  2BC3               	goto	l195
  3055  0A73                     u3560:
  3056                           	
  3057  0A73                     l3946:	
  3058  0A73  1BD9               	btfsc	(_usertype_enter/8),(_usertype_enter)&7
  3059  0A74  2A76               	goto	u3571
  3060  0A75  2A77               	goto	u3570
  3061  0A76                     u3571:
  3062  0A76  295B               	goto	l158
  3063  0A77                     u3570:
  3064  0A77  2BC3               	goto	l195
  3065                           	
  3066  0A78                     l193:	
  3067  0A78  2BC3               	goto	l195
  3068                           	
  3069  0A79                     l194:	
  3070                           	line	199
  3071                           ;PR29.c: 197: }
  3072                           ;PR29.c: 199: while(mode_enter==0 && admin ==0 && usertype_enter==1)
  3073  0A79  2BC3               	goto	l195
  3074                           	
  3075  0A7A                     l196:	
  3076  0A7A  2A7B               	goto	l3948
  3077                           	line	201
  3078                           ;PR29.c: 200: {
  3079                           ;PR29.c: 201: while(1)
  3080                           	
  3081  0A7B                     l197:	
  3082                           	line	203
  3083                           	
  3084  0A7B                     l3948:	
  3085                           ;PR29.c: 202: {
  3086                           ;PR29.c: 203: lcd_goto(0);
  3087  0A7B  3000               	movlw	(0)
  3088  0A7C  160A  158A  22DB   	fcall	_lcd_goto
              120A  158A         
  3089                           	line	204
  3090                           	
  3091  0A81                     l3950:	
  3092                           ;PR29.c: 204: send_string("Today is Day ");
  3093  0A81  3010               	movlw	low(STR_15|8000h)
  3094  0A82  00F9               	movwf	(?_send_string)
  3095  0A83  3092               	movlw	high(STR_15|8000h)
  3096  0A84  00FA               	movwf	((?_send_string))+1
  3097  0A85  160A  158A  23B2   	fcall	_send_string
              120A  158A         
  3098                           	line	205
  3099                           	
  3100  0A8A                     l3952:	
  3101                           ;PR29.c: 205: lcd_goto(13);
  3102  0A8A  300D               	movlw	(0Dh)
  3103  0A8B  160A  158A  22DB   	fcall	_lcd_goto
              120A  158A         
  3104                           	line	206
  3105                           	
  3106  0A90                     l3954:	
  3107                           ;PR29.c: 206: DAY=get_eeprom(0xff);
  3108  0A90  30FF               	movlw	(0FFh)
  3109  0A91  160A  158A  22B0   	fcall	_get_eeprom
              120A  158A         
  3110  0A96  1283               	bcf	status, 5	;RP0=0, select bank0
  3111  0A97  1303               	bcf	status, 6	;RP1=0, select bank0
  3112  0A98  00CD               	movwf	(??_main+0)+0
  3113  0A99  084D               	movf	(??_main+0)+0,w
  3114  0A9A  00DA               	movwf	(_DAY)
  3115                           	line	207
  3116                           	
  3117  0A9B                     l3956:	
  3118                           ;PR29.c: 207: send_char(0x30+DAY);
  3119  0A9B  085A               	movf	(_DAY),w
  3120  0A9C  3E30               	addlw	030h
  3121  0A9D  160A  158A  2338   	fcall	_send_char
              120A  158A         
  3122                           	line	208
  3123                           	
  3124  0AA2                     l3958:	
  3125                           ;PR29.c: 208: lcd_goto(20);
  3126  0AA2  3014               	movlw	(014h)
  3127  0AA3  160A  158A  22DB   	fcall	_lcd_goto
              120A  158A         
  3128                           	line	209
  3129                           	
  3130  0AA8                     l3960:	
  3131                           ;PR29.c: 209: send_string("Press 3 to mark ");
  3132  0AA8  3089               	movlw	low(STR_16|8000h)
  3133  0AA9  00F9               	movwf	(?_send_string)
  3134  0AAA  3091               	movlw	high(STR_16|8000h)
  3135  0AAB  00FA               	movwf	((?_send_string))+1
  3136  0AAC  160A  158A  23B2   	fcall	_send_string
              120A  158A         
  3137                           	line	210
  3138                           	
  3139  0AB1                     l3962:	
  3140                           ;PR29.c: 210: if(!RA4)
  3141  0AB1  1283               	bcf	status, 5	;RP0=0, select bank0
  3142  0AB2  1303               	bcf	status, 6	;RP1=0, select bank0
  3143  0AB3  1A05               	btfsc	(44/8),(44)&7	;volatile
  3144  0AB4  2AB6               	goto	u3581
  3145  0AB5  2AB7               	goto	u3580
  3146  0AB6                     u3581:
  3147  0AB6  2A7B               	goto	l3948
  3148  0AB7                     u3580:
  3149  0AB7  2AB9               	goto	l199
  3150                           	line	212
  3151                           	
  3152  0AB8                     l3964:	
  3153                           ;PR29.c: 211: {
  3154                           ;PR29.c: 212: while(!RA4);
  3155  0AB8  2AB9               	goto	l199
  3156                           	
  3157  0AB9                     l200:	
  3158                           	
  3159  0AB9                     l199:	
  3160  0AB9  1E05               	btfss	(44/8),(44)&7	;volatile
  3161  0ABA  2ABC               	goto	u3591
  3162  0ABB  2ABD               	goto	u3590
  3163  0ABC                     u3591:
  3164  0ABC  2AB9               	goto	l199
  3165  0ABD                     u3590:
  3166  0ABD  2ABE               	goto	l3966
  3167                           	
  3168  0ABE                     l201:	
  3169                           	line	214
  3170                           	
  3171  0ABE                     l3966:	
  3172                           ;PR29.c: 214: send_cmd(0x0c,0x00,0x00,0x00);
  3173  0ABE  01F1               	clrf	(?_send_cmd)
  3174  0ABF  01F2               	clrf	0+(?_send_cmd)+01h
  3175  0AC0  01F3               	clrf	0+(?_send_cmd)+02h
  3176  0AC1  300C               	movlw	(0Ch)
  3177  0AC2  160A  158A  241F   	fcall	_send_cmd
              120A  158A         
  3178                           	line	215
  3179                           ;PR29.c: 215: lcd_clr();
  3180  0AC7  160A  158A  229C   	fcall	_lcd_clr
              120A  158A         
  3181                           	line	216
  3182                           ;PR29.c: 216: lcd_goto(0);
  3183  0ACC  3000               	movlw	(0)
  3184  0ACD  160A  158A  22DB   	fcall	_lcd_goto
              120A  158A         
  3185                           	line	217
  3186                           	
  3187  0AD2                     l3968:	
  3188                           ;PR29.c: 217: send_string("Place your thumb");
  3189  0AD2  30CD               	movlw	low(STR_17|8000h)
  3190  0AD3  00F9               	movwf	(?_send_string)
  3191  0AD4  3091               	movlw	high(STR_17|8000h)
  3192  0AD5  00FA               	movwf	((?_send_string))+1
  3193  0AD6  160A  158A  23B2   	fcall	_send_string
              120A  158A         
  3194                           	line	218
  3195                           	
  3196  0ADB                     l3970:	
  3197                           ;PR29.c: 218: lcd_goto(20);
  3198  0ADB  3014               	movlw	(014h)
  3199  0ADC  160A  158A  22DB   	fcall	_lcd_goto
              120A  158A         
  3200                           	line	219
  3201                           ;PR29.c: 219: send_string("on the window");
  3202  0AE1  302C               	movlw	low(STR_18|8000h)
  3203  0AE2  00F9               	movwf	(?_send_string)
  3204  0AE3  3092               	movlw	high(STR_18|8000h)
  3205  0AE4  00FA               	movwf	((?_send_string))+1
  3206  0AE5  160A  158A  23B2   	fcall	_send_string
              120A  158A         
  3207                           	line	220
  3208                           	
  3209  0AEA                     l3972:	
  3210                           ;PR29.c: 220: delay(100);
  3211  0AEA  3000               	movlw	0
  3212  0AEB  00F3               	movwf	(?_delay+3)
  3213  0AEC  3000               	movlw	0
  3214  0AED  00F2               	movwf	(?_delay+2)
  3215  0AEE  3000               	movlw	0
  3216  0AEF  00F1               	movwf	(?_delay+1)
  3217  0AF0  3064               	movlw	064h
  3218  0AF1  00F0               	movwf	(?_delay)
  3219                           
  3220  0AF2  160A  158A  2382   	fcall	_delay
              120A  158A         
  3221                           	line	221
  3222                           	
  3223  0AF7                     l3974:	
  3224                           ;PR29.c: 221: receive_reply();
  3225  0AF7  160A  158A  2497   	fcall	_receive_reply
              120A  158A         
  3226                           	line	223
  3227                           	
  3228  0AFC                     l3976:	
  3229                           ;PR29.c: 223: if(!error)
  3230  0AFC  1283               	bcf	status, 5	;RP0=0, select bank0
  3231  0AFD  1303               	bcf	status, 6	;RP1=0, select bank0
  3232  0AFE  19D9               	btfsc	(_error/8),(_error)&7
  3233  0AFF  2B01               	goto	u3601
  3234  0B00  2B02               	goto	u3600
  3235  0B01                     u3601:
  3236  0B01  2A7B               	goto	l3948
  3237  0B02                     u3600:
  3238                           	line	225
  3239                           	
  3240  0B02                     l3978:	
  3241                           ;PR29.c: 224: {
  3242                           ;PR29.c: 225: if(DAY==1)
  3243  0B02  085A               	movf	(_DAY),w
  3244  0B03  3A01               	xorlw	01h
  3245  0B04  1D03               	skipz
  3246  0B05  2B07               	goto	u3611
  3247  0B06  2B08               	goto	u3610
  3248  0B07                     u3611:
  3249  0B07  2B23               	goto	l3984
  3250  0B08                     u3610:
  3251                           	line	226
  3252                           	
  3253  0B08                     l3980:	
  3254                           ;PR29.c: 226: { day_location=0x00;
  3255  0B08  01D7               	clrf	(_day_location)
  3256                           	line	227
  3257                           	
  3258  0B09                     l3982:	
  3259                           ;PR29.c: 227: store_eeprom(0x2f,day_location+3+array_resp[3]);
  3260  0B09  0857               	movf	(_day_location),w
  3261  0B0A  0751               	addwf	0+(_array_resp)+03h,w
  3262  0B0B  3E03               	addlw	03h
  3263  0B0C  00CD               	movwf	(??_main+0)+0
  3264  0B0D  084D               	movf	(??_main+0)+0,w
  3265  0B0E  00F0               	movwf	(?_store_eeprom)
  3266  0B0F  302F               	movlw	(02Fh)
  3267  0B10  160A  158A  23E6   	fcall	_store_eeprom
              120A  158A         
  3268                           	line	228
  3269                           ;PR29.c: 228: delay(100);
  3270  0B15  3000               	movlw	0
  3271  0B16  00F3               	movwf	(?_delay+3)
  3272  0B17  3000               	movlw	0
  3273  0B18  00F2               	movwf	(?_delay+2)
  3274  0B19  3000               	movlw	0
  3275  0B1A  00F1               	movwf	(?_delay+1)
  3276  0B1B  3064               	movlw	064h
  3277  0B1C  00F0               	movwf	(?_delay)
  3278                           
  3279  0B1D  160A  158A  2382   	fcall	_delay
              120A  158A         
  3280                           	line	229
  3281                           ;PR29.c: 229: }
  3282  0B22  2A7B               	goto	l3948
  3283                           	line	230
  3284                           	
  3285  0B23                     l203:	
  3286                           	
  3287  0B23                     l3984:	
  3288                           ;PR29.c: 230: else if(DAY==2)
  3289  0B23  1283               	bcf	status, 5	;RP0=0, select bank0
  3290  0B24  1303               	bcf	status, 6	;RP1=0, select bank0
  3291  0B25  085A               	movf	(_DAY),w
  3292  0B26  3A02               	xorlw	02h
  3293  0B27  1D03               	skipz
  3294  0B28  2B2A               	goto	u3621
  3295  0B29  2B2B               	goto	u3620
  3296  0B2A                     u3621:
  3297  0B2A  2B49               	goto	l3992
  3298  0B2B                     u3620:
  3299                           	line	231
  3300                           	
  3301  0B2B                     l3986:	
  3302                           ;PR29.c: 231: { day_location=0x10;
  3303  0B2B  3010               	movlw	(010h)
  3304  0B2C  00CD               	movwf	(??_main+0)+0
  3305  0B2D  084D               	movf	(??_main+0)+0,w
  3306  0B2E  00D7               	movwf	(_day_location)
  3307                           	line	232
  3308                           	
  3309  0B2F                     l3988:	
  3310                           ;PR29.c: 232: store_eeprom(0x2f,day_location+3+array_resp[3]);
  3311  0B2F  0857               	movf	(_day_location),w
  3312  0B30  0751               	addwf	0+(_array_resp)+03h,w
  3313  0B31  3E03               	addlw	03h
  3314  0B32  00CD               	movwf	(??_main+0)+0
  3315  0B33  084D               	movf	(??_main+0)+0,w
  3316  0B34  00F0               	movwf	(?_store_eeprom)
  3317  0B35  302F               	movlw	(02Fh)
  3318  0B36  160A  158A  23E6   	fcall	_store_eeprom
              120A  158A         
  3319                           	line	233
  3320                           	
  3321  0B3B                     l3990:	
  3322                           ;PR29.c: 233: delay(100);
  3323  0B3B  3000               	movlw	0
  3324  0B3C  00F3               	movwf	(?_delay+3)
  3325  0B3D  3000               	movlw	0
  3326  0B3E  00F2               	movwf	(?_delay+2)
  3327  0B3F  3000               	movlw	0
  3328  0B40  00F1               	movwf	(?_delay+1)
  3329  0B41  3064               	movlw	064h
  3330  0B42  00F0               	movwf	(?_delay)
  3331                           
  3332  0B43  160A  158A  2382   	fcall	_delay
              120A  158A         
  3333                           	line	234
  3334                           ;PR29.c: 234: }
  3335  0B48  2A7B               	goto	l3948
  3336                           	line	235
  3337                           	
  3338  0B49                     l205:	
  3339                           	
  3340  0B49                     l3992:	
  3341                           ;PR29.c: 235: else if(DAY==3)
  3342  0B49  1283               	bcf	status, 5	;RP0=0, select bank0
  3343  0B4A  1303               	bcf	status, 6	;RP1=0, select bank0
  3344  0B4B  085A               	movf	(_DAY),w
  3345  0B4C  3A03               	xorlw	03h
  3346  0B4D  1D03               	skipz
  3347  0B4E  2B50               	goto	u3631
  3348  0B4F  2B51               	goto	u3630
  3349  0B50                     u3631:
  3350  0B50  2B6F               	goto	l4000
  3351  0B51                     u3630:
  3352                           	line	236
  3353                           	
  3354  0B51                     l3994:	
  3355                           ;PR29.c: 236: { day_location=0x20;
  3356  0B51  3020               	movlw	(020h)
  3357  0B52  00CD               	movwf	(??_main+0)+0
  3358  0B53  084D               	movf	(??_main+0)+0,w
  3359  0B54  00D7               	movwf	(_day_location)
  3360                           	line	237
  3361                           	
  3362  0B55                     l3996:	
  3363                           ;PR29.c: 237: store_eeprom(0x2f,day_location+3+array_resp[3]);
  3364  0B55  0857               	movf	(_day_location),w
  3365  0B56  0751               	addwf	0+(_array_resp)+03h,w
  3366  0B57  3E03               	addlw	03h
  3367  0B58  00CD               	movwf	(??_main+0)+0
  3368  0B59  084D               	movf	(??_main+0)+0,w
  3369  0B5A  00F0               	movwf	(?_store_eeprom)
  3370  0B5B  302F               	movlw	(02Fh)
  3371  0B5C  160A  158A  23E6   	fcall	_store_eeprom
              120A  158A         
  3372                           	line	238
  3373                           	
  3374  0B61                     l3998:	
  3375                           ;PR29.c: 238: delay(100);
  3376  0B61  3000               	movlw	0
  3377  0B62  00F3               	movwf	(?_delay+3)
  3378  0B63  3000               	movlw	0
  3379  0B64  00F2               	movwf	(?_delay+2)
  3380  0B65  3000               	movlw	0
  3381  0B66  00F1               	movwf	(?_delay+1)
  3382  0B67  3064               	movlw	064h
  3383  0B68  00F0               	movwf	(?_delay)
  3384                           
  3385  0B69  160A  158A  2382   	fcall	_delay
              120A  158A         
  3386                           	line	239
  3387                           ;PR29.c: 239: }
  3388  0B6E  2A7B               	goto	l3948
  3389                           	line	240
  3390                           	
  3391  0B6F                     l207:	
  3392                           	
  3393  0B6F                     l4000:	
  3394                           ;PR29.c: 240: else if(DAY==4)
  3395  0B6F  1283               	bcf	status, 5	;RP0=0, select bank0
  3396  0B70  1303               	bcf	status, 6	;RP1=0, select bank0
  3397  0B71  085A               	movf	(_DAY),w
  3398  0B72  3A04               	xorlw	04h
  3399  0B73  1D03               	skipz
  3400  0B74  2B76               	goto	u3641
  3401  0B75  2B77               	goto	u3640
  3402  0B76                     u3641:
  3403  0B76  2B95               	goto	l4008
  3404  0B77                     u3640:
  3405                           	line	241
  3406                           	
  3407  0B77                     l4002:	
  3408                           ;PR29.c: 241: { day_location=0x30;
  3409  0B77  3030               	movlw	(030h)
  3410  0B78  00CD               	movwf	(??_main+0)+0
  3411  0B79  084D               	movf	(??_main+0)+0,w
  3412  0B7A  00D7               	movwf	(_day_location)
  3413                           	line	242
  3414                           	
  3415  0B7B                     l4004:	
  3416                           ;PR29.c: 242: store_eeprom(0x2f,day_location+3+array_resp[3]);
  3417  0B7B  0857               	movf	(_day_location),w
  3418  0B7C  0751               	addwf	0+(_array_resp)+03h,w
  3419  0B7D  3E03               	addlw	03h
  3420  0B7E  00CD               	movwf	(??_main+0)+0
  3421  0B7F  084D               	movf	(??_main+0)+0,w
  3422  0B80  00F0               	movwf	(?_store_eeprom)
  3423  0B81  302F               	movlw	(02Fh)
  3424  0B82  160A  158A  23E6   	fcall	_store_eeprom
              120A  158A         
  3425                           	line	243
  3426                           	
  3427  0B87                     l4006:	
  3428                           ;PR29.c: 243: delay(100);
  3429  0B87  3000               	movlw	0
  3430  0B88  00F3               	movwf	(?_delay+3)
  3431  0B89  3000               	movlw	0
  3432  0B8A  00F2               	movwf	(?_delay+2)
  3433  0B8B  3000               	movlw	0
  3434  0B8C  00F1               	movwf	(?_delay+1)
  3435  0B8D  3064               	movlw	064h
  3436  0B8E  00F0               	movwf	(?_delay)
  3437                           
  3438  0B8F  160A  158A  2382   	fcall	_delay
              120A  158A         
  3439                           	line	244
  3440                           ;PR29.c: 244: }
  3441  0B94  2A7B               	goto	l3948
  3442                           	line	245
  3443                           	
  3444  0B95                     l209:	
  3445                           	
  3446  0B95                     l4008:	
  3447                           ;PR29.c: 245: else if(DAY==5)
  3448  0B95  1283               	bcf	status, 5	;RP0=0, select bank0
  3449  0B96  1303               	bcf	status, 6	;RP1=0, select bank0
  3450  0B97  085A               	movf	(_DAY),w
  3451  0B98  3A05               	xorlw	05h
  3452  0B99  1D03               	skipz
  3453  0B9A  2B9C               	goto	u3651
  3454  0B9B  2B9D               	goto	u3650
  3455  0B9C                     u3651:
  3456  0B9C  2A7B               	goto	l3948
  3457  0B9D                     u3650:
  3458                           	line	246
  3459                           	
  3460  0B9D                     l4010:	
  3461                           ;PR29.c: 246: { day_location=0x40;
  3462  0B9D  3040               	movlw	(040h)
  3463  0B9E  00CD               	movwf	(??_main+0)+0
  3464  0B9F  084D               	movf	(??_main+0)+0,w
  3465  0BA0  00D7               	movwf	(_day_location)
  3466                           	line	247
  3467                           	
  3468  0BA1                     l4012:	
  3469                           ;PR29.c: 247: store_eeprom(0x2f,day_location+3+array_resp[3]);
  3470  0BA1  0857               	movf	(_day_location),w
  3471  0BA2  0751               	addwf	0+(_array_resp)+03h,w
  3472  0BA3  3E03               	addlw	03h
  3473  0BA4  00CD               	movwf	(??_main+0)+0
  3474  0BA5  084D               	movf	(??_main+0)+0,w
  3475  0BA6  00F0               	movwf	(?_store_eeprom)
  3476  0BA7  302F               	movlw	(02Fh)
  3477  0BA8  160A  158A  23E6   	fcall	_store_eeprom
              120A  158A         
  3478                           	line	248
  3479                           	
  3480  0BAD                     l4014:	
  3481                           ;PR29.c: 248: delay(100);
  3482  0BAD  3000               	movlw	0
  3483  0BAE  00F3               	movwf	(?_delay+3)
  3484  0BAF  3000               	movlw	0
  3485  0BB0  00F2               	movwf	(?_delay+2)
  3486  0BB1  3000               	movlw	0
  3487  0BB2  00F1               	movwf	(?_delay+1)
  3488  0BB3  3064               	movlw	064h
  3489  0BB4  00F0               	movwf	(?_delay)
  3490                           
  3491  0BB5  160A  158A  2382   	fcall	_delay
              120A  158A         
  3492  0BBA  2A7B               	goto	l3948
  3493                           	line	249
  3494                           	
  3495  0BBB                     l211:	
  3496  0BBB  2A7B               	goto	l3948
  3497                           	line	251
  3498                           	
  3499  0BBC                     l210:	
  3500  0BBC  2A7B               	goto	l3948
  3501                           	
  3502  0BBD                     l208:	
  3503  0BBD  2A7B               	goto	l3948
  3504                           	
  3505  0BBE                     l206:	
  3506  0BBE  2A7B               	goto	l3948
  3507                           	
  3508  0BBF                     l204:	
  3509  0BBF  2A7B               	goto	l3948
  3510                           	
  3511  0BC0                     l202:	
  3512  0BC0  2A7B               	goto	l3948
  3513                           	line	253
  3514                           	
  3515  0BC1                     l198:	
  3516  0BC1  2A7B               	goto	l3948
  3517                           	line	254
  3518                           	
  3519  0BC2                     l212:	
  3520                           	line	201
  3521  0BC2  2A7B               	goto	l3948
  3522                           	
  3523  0BC3                     l213:	
  3524                           	line	256
  3525                           	
  3526  0BC3                     l195:	
  3527                           	line	199
  3528  0BC3  1283               	bcf	status, 5	;RP0=0, select bank0
  3529  0BC4  1303               	bcf	status, 6	;RP1=0, select bank0
  3530  0BC5  1B59               	btfsc	(_mode_enter/8),(_mode_enter)&7
  3531  0BC6  2BC8               	goto	u3661
  3532  0BC7  2BC9               	goto	u3660
  3533  0BC8                     u3661:
  3534  0BC8  2BD3               	goto	l4020
  3535  0BC9                     u3660:
  3536                           	
  3537  0BC9                     l4016:	
  3538  0BC9  18D9               	btfsc	(_admin/8),(_admin)&7
  3539  0BCA  2BCC               	goto	u3671
  3540  0BCB  2BCD               	goto	u3670
  3541  0BCC                     u3671:
  3542  0BCC  2BD3               	goto	l4020
  3543  0BCD                     u3670:
  3544                           	
  3545  0BCD                     l4018:	
  3546  0BCD  1BD9               	btfsc	(_usertype_enter/8),(_usertype_enter)&7
  3547  0BCE  2BD0               	goto	u3681
  3548  0BCF  2BD1               	goto	u3680
  3549  0BD0                     u3681:
  3550  0BD0  2A7B               	goto	l3948
  3551  0BD1                     u3680:
  3552  0BD1  2BD3               	goto	l4020
  3553                           	
  3554  0BD2                     l215:	
  3555  0BD2  2BD3               	goto	l4020
  3556                           	
  3557  0BD3                     l216:	
  3558                           	line	257
  3559                           	
  3560  0BD3                     l4020:	
  3561                           ;PR29.c: 249: }
  3562                           ;PR29.c: 251: }
  3563                           ;PR29.c: 253: }
  3564                           ;PR29.c: 254: }
  3565                           ;PR29.c: 256: }
  3566                           ;PR29.c: 257: lcd_clr();
  3567  0BD3  160A  158A  229C   	fcall	_lcd_clr
              120A  158A         
  3568                           	line	258
  3569                           	
  3570  0BD8                     l4022:	
  3571                           ;PR29.c: 258: mode(mode_count);
  3572  0BD8  1283               	bcf	status, 5	;RP0=0, select bank0
  3573  0BD9  1303               	bcf	status, 6	;RP1=0, select bank0
  3574  0BDA  085D               	movf	(_mode_count),w
  3575  0BDB  120A  118A  2329   	fcall	_mode
              120A  158A         
  3576                           	line	259
  3577                           	
  3578  0BE0                     l4024:	
  3579                           ;PR29.c: 259: delay(10);
  3580  0BE0  3000               	movlw	0
  3581  0BE1  00F3               	movwf	(?_delay+3)
  3582  0BE2  3000               	movlw	0
  3583  0BE3  00F2               	movwf	(?_delay+2)
  3584  0BE4  3000               	movlw	0
  3585  0BE5  00F1               	movwf	(?_delay+1)
  3586  0BE6  300A               	movlw	0Ah
  3587  0BE7  00F0               	movwf	(?_delay)
  3588                           
  3589  0BE8  160A  158A  2382   	fcall	_delay
              120A  158A         
  3590  0BED  294E               	goto	l144
  3591                           	line	262
  3592                           	
  3593  0BEE                     l217:	
  3594                           	line	131
  3595  0BEE  294E               	goto	l144
  3596                           	
  3597  0BEF                     l218:	
  3598                           	line	264
  3599                           	
  3600  0BEF                     l219:	
  3601                           	global	start
  3602  0BEF  120A  118A  2800   	ljmp	start
  3603                           	opt stack 0
  3604                           GLOBAL	__end_of_main
  3605  0BF2                     	__end_of_main:
  3606                           	signat	_main,88
  3607                           	global	_ResetAdmin
  3608                           
  3609 ;; *************** function _ResetAdmin *****************
  3610 ;; Defined at:
  3611 ;;		line 1176 in file "PR29.c"
  3612 ;; Parameters:    Size  Location     Type
  3613 ;;		None
  3614 ;; Auto vars:     Size  Location     Type
  3615 ;;		None
  3616 ;; Return value:  Size  Location     Type
  3617 ;;		None               void
  3618 ;; Registers used:
  3619 ;;		wreg, fsr0l, fsr0h, status,2, status,0, btemp+1, pclath, cstack
  3620 ;; Tracked objects:
  3621 ;;		On entry : 0/0
  3622 ;;		On exit  : 0/0
  3623 ;;		Unchanged: 0/0
  3624 ;; Data sizes:     COMMON   BANK0   BANK1   BANK3   BANK2
  3625 ;;      Params:         0       0       0       0       0
  3626 ;;      Locals:         0       0       0       0       0
  3627 ;;      Temps:          0       1       0       0       0
  3628 ;;      Totals:         0       1       0       0       0
  3629 ;;Total ram usage:        1 bytes
  3630 ;; Hardware stack levels used:    1
  3631 ;; Hardware stack levels required when called:    6
  3632 ;; This function calls:
  3633 ;;		_lcd_goto
  3634 ;;		_send_string
  3635 ;;		_delay
  3636 ;;		_send_cmd
  3637 ;;		_receive_reply
  3638 ;;		_AddNew
  3639 ;; This function is called by:
  3640 ;;		_main
  3641 ;; This function uses a non-reentrant model
  3642 ;;
  3643                           psect	text531,local,class=CODE,delta=2,merge=1
  3644                           global __ptext531
  3645  12E3                     __ptext531:
  3646                           psect	text531
  3647                           	file	"PR29.c"
  3648                           	line	1176
  3649                           	global	__size_of_ResetAdmin
  3650  0085                     	__size_of_ResetAdmin	equ	__end_of_ResetAdmin-_ResetAdmin
  3651                           	
  3652  12E3                     _ResetAdmin:	
  3653                           	opt	stack 1
  3654                           ; Regs used in _ResetAdmin: [wreg-fsr0h+status,2+status,0+btemp+1+pclath+cstack]
  3655                           	line	1177
  3656                           	
  3657  12E3                     l3474:	
  3658                           ;PR29.c: 1177: lcd_goto(0);
  3659  12E3  3000               	movlw	(0)
  3660  12E4  160A  158A  22DB   	fcall	_lcd_goto
              160A  118A         
  3661                           	line	1178
  3662                           	
  3663  12E9                     l3476:	
  3664                           ;PR29.c: 1178: send_string("Resetting Admin...");
  3665  12E9  3000               	movlw	low(STR_66|8000h)
  3666  12EA  00F9               	movwf	(?_send_string)
  3667  12EB  3090               	movlw	high(STR_66|8000h)
  3668  12EC  00FA               	movwf	((?_send_string))+1
  3669  12ED  160A  158A  23B2   	fcall	_send_string
              160A  118A         
  3670                           	line	1179
  3671                           	
  3672  12F2                     l3478:	
  3673                           ;PR29.c: 1179: delay(200000);
  3674  12F2  3000               	movlw	0
  3675  12F3  00F3               	movwf	(?_delay+3)
  3676  12F4  3003               	movlw	03h
  3677  12F5  00F2               	movwf	(?_delay+2)
  3678  12F6  300D               	movlw	0Dh
  3679  12F7  00F1               	movwf	(?_delay+1)
  3680  12F8  3040               	movlw	040h
  3681  12F9  00F0               	movwf	(?_delay)
  3682                           
  3683  12FA  160A  158A  2382   	fcall	_delay
              160A  118A         
  3684                           	line	1180
  3685                           	
  3686  12FF                     l3480:	
  3687                           ;PR29.c: 1180: send_cmd(0x04,0x00,0xFF,0x00);
  3688  12FF  01F1               	clrf	(?_send_cmd)
  3689  1300  30FF               	movlw	(0FFh)
  3690  1301  1283               	bcf	status, 5	;RP0=0, select bank0
  3691  1302  1303               	bcf	status, 6	;RP1=0, select bank0
  3692  1303  00A8               	movwf	(??_ResetAdmin+0)+0
  3693  1304  0828               	movf	(??_ResetAdmin+0)+0,w
  3694  1305  00F2               	movwf	0+(?_send_cmd)+01h
  3695  1306  01F3               	clrf	0+(?_send_cmd)+02h
  3696  1307  3004               	movlw	(04h)
  3697  1308  160A  158A  241F   	fcall	_send_cmd
              160A  118A         
  3698                           	line	1181
  3699                           	
  3700  130D                     l3482:	
  3701                           ;PR29.c: 1181: receive_reply();
  3702  130D  160A  158A  2497   	fcall	_receive_reply
              160A  118A         
  3703                           	line	1182
  3704                           ;PR29.c: 1182: lcd_goto(0);
  3705  1312  3000               	movlw	(0)
  3706  1313  160A  158A  22DB   	fcall	_lcd_goto
              160A  118A         
  3707                           	line	1183
  3708                           	
  3709  1318                     l3484:	
  3710                           ;PR29.c: 1183: send_string("New Admin Needed");
  3711  1318  30DE               	movlw	low(STR_67|8000h)
  3712  1319  00F9               	movwf	(?_send_string)
  3713  131A  3091               	movlw	high(STR_67|8000h)
  3714  131B  00FA               	movwf	((?_send_string))+1
  3715  131C  160A  158A  23B2   	fcall	_send_string
              160A  118A         
  3716                           	line	1184
  3717                           	
  3718  1321                     l3486:	
  3719                           ;PR29.c: 1184: delay(200000);
  3720  1321  3000               	movlw	0
  3721  1322  00F3               	movwf	(?_delay+3)
  3722  1323  3003               	movlw	03h
  3723  1324  00F2               	movwf	(?_delay+2)
  3724  1325  300D               	movlw	0Dh
  3725  1326  00F1               	movwf	(?_delay+1)
  3726  1327  3040               	movlw	040h
  3727  1328  00F0               	movwf	(?_delay)
  3728                           
  3729  1329  160A  158A  2382   	fcall	_delay
              160A  118A         
  3730  132E  2B2F               	goto	l3488
  3731                           	line	1185
  3732                           ;PR29.c: 1185: do{
  3733                           	
  3734  132F                     l548:	
  3735                           	line	1186
  3736                           	
  3737  132F                     l3488:	
  3738                           ;PR29.c: 1186: lcd_goto(0);
  3739  132F  3000               	movlw	(0)
  3740  1330  160A  158A  22DB   	fcall	_lcd_goto
              160A  118A         
  3741                           	line	1187
  3742                           	
  3743  1335                     l3490:	
  3744                           ;PR29.c: 1187: send_string("New Admin       ");
  3745  1335  3068               	movlw	low(STR_68|8000h)
  3746  1336  00F9               	movwf	(?_send_string)
  3747  1337  3090               	movlw	high(STR_68|8000h)
  3748  1338  00FA               	movwf	((?_send_string))+1
  3749  1339  160A  158A  23B2   	fcall	_send_string
              160A  118A         
  3750                           	line	1188
  3751                           ;PR29.c: 1188: lcd_goto(20);
  3752  133E  3014               	movlw	(014h)
  3753  133F  160A  158A  22DB   	fcall	_lcd_goto
              160A  118A         
  3754                           	line	1189
  3755                           	
  3756  1344                     l3492:	
  3757                           ;PR29.c: 1189: send_string("Standby");
  3758  1344  308F               	movlw	low(STR_69|8000h)
  3759  1345  00F9               	movwf	(?_send_string)
  3760  1346  3092               	movlw	high(STR_69|8000h)
  3761  1347  00FA               	movwf	((?_send_string))+1
  3762  1348  160A  158A  23B2   	fcall	_send_string
              160A  118A         
  3763                           	line	1190
  3764                           	
  3765  134D                     l3494:	
  3766                           ;PR29.c: 1190: delay(200000);
  3767  134D  3000               	movlw	0
  3768  134E  00F3               	movwf	(?_delay+3)
  3769  134F  3003               	movlw	03h
  3770  1350  00F2               	movwf	(?_delay+2)
  3771  1351  300D               	movlw	0Dh
  3772  1352  00F1               	movwf	(?_delay+1)
  3773  1353  3040               	movlw	040h
  3774  1354  00F0               	movwf	(?_delay)
  3775                           
  3776  1355  160A  158A  2382   	fcall	_delay
              160A  118A         
  3777                           	line	1191
  3778                           ;PR29.c: 1191: AddNew(0xff);
  3779  135A  30FF               	movlw	(0FFh)
  3780  135B  120A  118A  200F   	fcall	_AddNew
              160A  118A         
  3781                           	line	1192
  3782                           	
  3783  1360                     l3496:	
  3784                           ;PR29.c: 1192: } while(error==1) ;
  3785  1360  1283               	bcf	status, 5	;RP0=0, select bank0
  3786  1361  1303               	bcf	status, 6	;RP1=0, select bank0
  3787  1362  19D9               	btfsc	(_error/8),(_error)&7
  3788  1363  2B65               	goto	u2791
  3789  1364  2B66               	goto	u2790
  3790  1365                     u2791:
  3791  1365  2B2F               	goto	l3488
  3792  1366                     u2790:
  3793  1366  2B67               	goto	l550
  3794                           	
  3795  1367                     l549:	
  3796                           	line	1193
  3797                           	
  3798  1367                     l550:	
  3799  1367  0008               	return
  3800                           	opt stack 0
  3801                           GLOBAL	__end_of_ResetAdmin
  3802  1368                     	__end_of_ResetAdmin:
  3803                           	signat	_ResetAdmin,88
  3804                           	global	_receive_reply_nodisplay
  3805                           
  3806 ;; *************** function _receive_reply_nodisplay *****************
  3807 ;; Defined at:
  3808 ;;		line 741 in file "PR29.c"
  3809 ;; Parameters:    Size  Location     Type
  3810 ;;		None
  3811 ;; Auto vars:     Size  Location     Type
  3812 ;;  i               1    3[COMMON] unsigned char 
  3813 ;; Return value:  Size  Location     Type
  3814 ;;		None               void
  3815 ;; Registers used:
  3816 ;;		wreg, fsr0l, fsr0h, status,2, status,0, pclath, cstack
  3817 ;; Tracked objects:
  3818 ;;		On entry : 0/0
  3819 ;;		On exit  : 0/0
  3820 ;;		Unchanged: 0/0
  3821 ;; Data sizes:     COMMON   BANK0   BANK1   BANK3   BANK2
  3822 ;;      Params:         0       0       0       0       0
  3823 ;;      Locals:         1       0       0       0       0
  3824 ;;      Temps:          1       0       0       0       0
  3825 ;;      Totals:         2       0       0       0       0
  3826 ;;Total ram usage:        2 bytes
  3827 ;; Hardware stack levels used:    1
  3828 ;; Hardware stack levels required when called:    1
  3829 ;; This function calls:
  3830 ;;		_uart_receive
  3831 ;; This function is called by:
  3832 ;;		_main
  3833 ;; This function uses a non-reentrant model
  3834 ;;
  3835                           psect	text532,local,class=CODE,delta=2,merge=1
  3836                           global __ptext532
  3837  1B17                     __ptext532:
  3838                           psect	text532
  3839                           	file	"PR29.c"
  3840                           	line	741
  3841                           	global	__size_of_receive_reply_nodisplay
  3842  0021                     	__size_of_receive_reply_nodisplay	equ	__end_of_receive_reply_nodisplay-_receive_reply_n
                                 odisplay
  3843                           	
  3844  1B17                     _receive_reply_nodisplay:	
  3845                           	opt	stack 6
  3846                           ; Regs used in _receive_reply_nodisplay: [wreg-fsr0h+status,2+status,0+pclath+cstack]
  3847                           	line	743
  3848                           	
  3849  1B17                     l2632:	
  3850                           ;PR29.c: 742: unsigned char i;
  3851                           ;PR29.c: 743: for(i=0;i<8;i++)
  3852  1B17  01F3               	clrf	(receive_reply_nodisplay@i)
  3853                           	
  3854  1B18                     l2634:	
  3855  1B18  3008               	movlw	(08h)
  3856  1B19  0273               	subwf	(receive_reply_nodisplay@i),w
  3857  1B1A  1C03               	skipc
  3858  1B1B  2B1D               	goto	u1961
  3859  1B1C  2B1E               	goto	u1960
  3860  1B1D                     u1961:
  3861  1B1D  2B20               	goto	l2638
  3862  1B1E                     u1960:
  3863  1B1E  2B37               	goto	l397
  3864                           	
  3865  1B1F                     l2636:	
  3866  1B1F  2B37               	goto	l397
  3867                           	line	744
  3868                           	
  3869  1B20                     l395:	
  3870                           	
  3871  1B20                     l2638:	
  3872                           ;PR29.c: 744: array_resp[i]=uart_receive();
  3873  1B20  160A  158A  227A   	fcall	_uart_receive
              160A  158A         
  3874  1B25  00F2               	movwf	(??_receive_reply_nodisplay+0)+0
  3875  1B26  0873               	movf	(receive_reply_nodisplay@i),w
  3876  1B27  3E4E               	addlw	_array_resp&0ffh
  3877  1B28  0084               	movwf	fsr0
  3878  1B29  0872               	movf	(??_receive_reply_nodisplay+0)+0,w
  3879  1B2A  1383               	bcf	status, 7	;select IRP bank0
  3880  1B2B  0080               	movwf	indf
  3881                           	line	743
  3882                           	
  3883  1B2C                     l2640:	
  3884  1B2C  3001               	movlw	(01h)
  3885  1B2D  00F2               	movwf	(??_receive_reply_nodisplay+0)+0
  3886  1B2E  0872               	movf	(??_receive_reply_nodisplay+0)+0,w
  3887  1B2F  07F3               	addwf	(receive_reply_nodisplay@i),f
  3888                           	
  3889  1B30                     l2642:	
  3890  1B30  3008               	movlw	(08h)
  3891  1B31  0273               	subwf	(receive_reply_nodisplay@i),w
  3892  1B32  1C03               	skipc
  3893  1B33  2B35               	goto	u1971
  3894  1B34  2B36               	goto	u1970
  3895  1B35                     u1971:
  3896  1B35  2B20               	goto	l2638
  3897  1B36                     u1970:
  3898  1B36  2B37               	goto	l397
  3899                           	
  3900  1B37                     l396:	
  3901                           	line	745
  3902                           	
  3903  1B37                     l397:	
  3904  1B37  0008               	return
  3905                           	opt stack 0
  3906                           GLOBAL	__end_of_receive_reply_nodisplay
  3907  1B38                     	__end_of_receive_reply_nodisplay:
  3908                           	signat	_receive_reply_nodisplay,88
  3909                           	global	_uart_init
  3910                           
  3911 ;; *************** function _uart_init *****************
  3912 ;; Defined at:
  3913 ;;		line 39 in file "uart_io.c"
  3914 ;; Parameters:    Size  Location     Type
  3915 ;;  channel         1    wreg     unsigned char 
  3916 ;; Auto vars:     Size  Location     Type
  3917 ;;  channel         1    0[COMMON] unsigned char 
  3918 ;; Return value:  Size  Location     Type
  3919 ;;		None               void
  3920 ;; Registers used:
  3921 ;;		wreg, fsr0l, fsr0h, status,2, status,0
  3922 ;; Tracked objects:
  3923 ;;		On entry : 0/0
  3924 ;;		On exit  : 0/0
  3925 ;;		Unchanged: 0/0
  3926 ;; Data sizes:     COMMON   BANK0   BANK1   BANK3   BANK2
  3927 ;;      Params:         0       0       0       0       0
  3928 ;;      Locals:         1       0       0       0       0
  3929 ;;      Temps:          0       0       0       0       0
  3930 ;;      Totals:         1       0       0       0       0
  3931 ;;Total ram usage:        1 bytes
  3932 ;; Hardware stack levels used:    1
  3933 ;; This function calls:
  3934 ;;		Nothing
  3935 ;; This function is called by:
  3936 ;;		_main
  3937 ;; This function uses a non-reentrant model
  3938 ;;
  3939                           psect	text533,local,class=CODE,delta=2,merge=1
  3940                           global __ptext533
  3941  1AC5                     __ptext533:
  3942                           psect	text533
  3943                           	file	"uart_io.c"
  3944                           	line	39
  3945                           	global	__size_of_uart_init
  3946  0016                     	__size_of_uart_init	equ	__end_of_uart_init-_uart_init
  3947                           	
  3948  1AC5                     _uart_init:	
  3949                           	opt	stack 7
  3950                           ; Regs used in _uart_init: [wreg-fsr0h+status,2+status,0]
  3951                           ;uart_init@channel stored from wreg
  3952  1AC5  00F0               	movwf	(uart_init@channel)
  3953                           	line	40
  3954                           	
  3955  1AC6                     l2554:	
  3956                           ;uart_io.c: 40: switch(channel)
  3957  1AC6  2AD5               	goto	l2558
  3958                           	line	42
  3959                           ;uart_io.c: 41: {
  3960                           ;uart_io.c: 42: case 2:
  3961                           	
  3962  1AC7                     l566:	
  3963                           	line	43
  3964                           ;uart_io.c: 43: RC0=1;
  3965  1AC7  1283               	bcf	status, 5	;RP0=0, select bank0
  3966  1AC8  1303               	bcf	status, 6	;RP1=0, select bank0
  3967  1AC9  1407               	bsf	(56/8),(56)&7	;volatile
  3968                           	line	44
  3969                           ;uart_io.c: 44: TRISC0=0;
  3970  1ACA  1683               	bsf	status, 5	;RP0=1, select bank1
  3971  1ACB  1303               	bcf	status, 6	;RP1=0, select bank1
  3972  1ACC  1007               	bcf	(1080/8)^080h,(1080)&7	;volatile
  3973                           	line	45
  3974                           ;uart_io.c: 45: RC1=1;
  3975  1ACD  1283               	bcf	status, 5	;RP0=0, select bank0
  3976  1ACE  1303               	bcf	status, 6	;RP1=0, select bank0
  3977  1ACF  1487               	bsf	(57/8),(57)&7	;volatile
  3978                           	line	46
  3979                           ;uart_io.c: 46: TRISC1=1;
  3980  1AD0  1683               	bsf	status, 5	;RP0=1, select bank1
  3981  1AD1  1303               	bcf	status, 6	;RP1=0, select bank1
  3982  1AD2  1487               	bsf	(1081/8)^080h,(1081)&7	;volatile
  3983                           	line	47
  3984                           ;uart_io.c: 47: break;
  3985  1AD3  2ADA               	goto	l568
  3986                           	line	48
  3987                           	
  3988  1AD4                     l2556:	
  3989                           ;uart_io.c: 48: }
  3990  1AD4  2ADA               	goto	l568
  3991                           	line	40
  3992                           	
  3993  1AD5                     l565:	
  3994                           	
  3995  1AD5                     l2558:	
  3996  1AD5  0870               	movf	(uart_init@channel),w
  3997                           	; Switch size 1, requested type "space"
  3998                           ; Number of cases is 1, Range of values is 2 to 2
  3999                           ; switch strategies available:
  4000                           ; Name         Instructions Cycles
  4001                           ; simple_byte            4     3 (average)
  4002                           ; direct_byte           14    11 (fixed)
  4003                           ; jumptable            263     9 (fixed)
  4004                           ;	Chosen strategy is simple_byte
  4005                           
  4006                           	opt asmopt_off
  4007  1AD6  3A02               	xorlw	2^0	; case 2
  4008  1AD7  1903               	skipnz
  4009  1AD8  2AC7               	goto	l566
  4010  1AD9  2ADA               	goto	l568
  4011                           	opt asmopt_on
  4012                           
  4013                           	line	48
  4014                           	
  4015  1ADA                     l567:	
  4016                           	line	49
  4017                           	
  4018  1ADA                     l568:	
  4019  1ADA  0008               	return
  4020                           	opt stack 0
  4021                           GLOBAL	__end_of_uart_init
  4022  1ADB                     	__end_of_uart_init:
  4023                           	signat	_uart_init,4216
  4024                           	global	_init_attendance
  4025                           
  4026 ;; *************** function _init_attendance *****************
  4027 ;; Defined at:
  4028 ;;		line 877 in file "PR29.c"
  4029 ;; Parameters:    Size  Location     Type
  4030 ;;		None
  4031 ;; Auto vars:     Size  Location     Type
  4032 ;;		None
  4033 ;; Return value:  Size  Location     Type
  4034 ;;		None               void
  4035 ;; Registers used:
  4036 ;;		wreg, status,2, status,0, pclath, cstack
  4037 ;; Tracked objects:
  4038 ;;		On entry : 0/0
  4039 ;;		On exit  : 0/0
  4040 ;;		Unchanged: 0/0
  4041 ;; Data sizes:     COMMON   BANK0   BANK1   BANK3   BANK2
  4042 ;;      Params:         0       0       0       0       0
  4043 ;;      Locals:         0       0       0       0       0
  4044 ;;      Temps:          1       0       0       0       0
  4045 ;;      Totals:         1       0       0       0       0
  4046 ;;Total ram usage:        1 bytes
  4047 ;; Hardware stack levels used:    1
  4048 ;; Hardware stack levels required when called:    1
  4049 ;; This function calls:
  4050 ;;		_store_eeprom
  4051 ;; This function is called by:
  4052 ;;		_main
  4053 ;; This function uses a non-reentrant model
  4054 ;;
  4055                           psect	text534,local,class=CODE,delta=2,merge=1
  4056                           global __ptext534
  4057  1D23                     __ptext534:
  4058                           psect	text534
  4059                           	file	"PR29.c"
  4060                           	line	877
  4061                           	global	__size_of_init_attendance
  4062  0111                     	__size_of_init_attendance	equ	__end_of_init_attendance-_init_attendance
  4063                           	
  4064  1D23                     _init_attendance:	
  4065                           	opt	stack 6
  4066                           ; Regs used in _init_attendance: [wreg+status,2+status,0+pclath+cstack]
  4067                           	line	878
  4068                           	
  4069  1D23                     l2644:	
  4070                           ;PR29.c: 878: day_location=0x00;
  4071  1D23  1283               	bcf	status, 5	;RP0=0, select bank0
  4072  1D24  1303               	bcf	status, 6	;RP1=0, select bank0
  4073  1D25  01D7               	clrf	(_day_location)
  4074                           	line	879
  4075                           	
  4076  1D26                     l2646:	
  4077                           ;PR29.c: 879: store_eeprom('D',day_location);
  4078  1D26  0857               	movf	(_day_location),w
  4079  1D27  00F3               	movwf	(??_init_attendance+0)+0
  4080  1D28  0873               	movf	(??_init_attendance+0)+0,w
  4081  1D29  00F0               	movwf	(?_store_eeprom)
  4082  1D2A  3044               	movlw	(044h)
  4083  1D2B  160A  158A  23E6   	fcall	_store_eeprom
              160A  158A         
  4084                           	line	880
  4085                           ;PR29.c: 880: store_eeprom('A',day_location+1);
  4086  1D30  1283               	bcf	status, 5	;RP0=0, select bank0
  4087  1D31  1303               	bcf	status, 6	;RP1=0, select bank0
  4088  1D32  0857               	movf	(_day_location),w
  4089  1D33  3E01               	addlw	01h
  4090  1D34  00F3               	movwf	(??_init_attendance+0)+0
  4091  1D35  0873               	movf	(??_init_attendance+0)+0,w
  4092  1D36  00F0               	movwf	(?_store_eeprom)
  4093  1D37  3041               	movlw	(041h)
  4094  1D38  160A  158A  23E6   	fcall	_store_eeprom
              160A  158A         
  4095                           	line	881
  4096                           ;PR29.c: 881: store_eeprom('Y',day_location+2);
  4097  1D3D  1283               	bcf	status, 5	;RP0=0, select bank0
  4098  1D3E  1303               	bcf	status, 6	;RP1=0, select bank0
  4099  1D3F  0857               	movf	(_day_location),w
  4100  1D40  3E02               	addlw	02h
  4101  1D41  00F3               	movwf	(??_init_attendance+0)+0
  4102  1D42  0873               	movf	(??_init_attendance+0)+0,w
  4103  1D43  00F0               	movwf	(?_store_eeprom)
  4104  1D44  3059               	movlw	(059h)
  4105  1D45  160A  158A  23E6   	fcall	_store_eeprom
              160A  158A         
  4106                           	line	882
  4107                           ;PR29.c: 882: store_eeprom('1',day_location+3);
  4108  1D4A  1283               	bcf	status, 5	;RP0=0, select bank0
  4109  1D4B  1303               	bcf	status, 6	;RP1=0, select bank0
  4110  1D4C  0857               	movf	(_day_location),w
  4111  1D4D  3E03               	addlw	03h
  4112  1D4E  00F3               	movwf	(??_init_attendance+0)+0
  4113  1D4F  0873               	movf	(??_init_attendance+0)+0,w
  4114  1D50  00F0               	movwf	(?_store_eeprom)
  4115  1D51  3031               	movlw	(031h)
  4116  1D52  160A  158A  23E6   	fcall	_store_eeprom
              160A  158A         
  4117                           	line	884
  4118                           	
  4119  1D57                     l2648:	
  4120                           ;PR29.c: 884: day_location=0x10;
  4121  1D57  3010               	movlw	(010h)
  4122  1D58  00F3               	movwf	(??_init_attendance+0)+0
  4123  1D59  0873               	movf	(??_init_attendance+0)+0,w
  4124  1D5A  1283               	bcf	status, 5	;RP0=0, select bank0
  4125  1D5B  1303               	bcf	status, 6	;RP1=0, select bank0
  4126  1D5C  00D7               	movwf	(_day_location)
  4127                           	line	885
  4128                           	
  4129  1D5D                     l2650:	
  4130                           ;PR29.c: 885: store_eeprom('D',day_location);
  4131  1D5D  0857               	movf	(_day_location),w
  4132  1D5E  00F3               	movwf	(??_init_attendance+0)+0
  4133  1D5F  0873               	movf	(??_init_attendance+0)+0,w
  4134  1D60  00F0               	movwf	(?_store_eeprom)
  4135  1D61  3044               	movlw	(044h)
  4136  1D62  160A  158A  23E6   	fcall	_store_eeprom
              160A  158A         
  4137                           	line	886
  4138                           	
  4139  1D67                     l2652:	
  4140                           ;PR29.c: 886: store_eeprom('A',day_location+1);
  4141  1D67  1283               	bcf	status, 5	;RP0=0, select bank0
  4142  1D68  1303               	bcf	status, 6	;RP1=0, select bank0
  4143  1D69  0857               	movf	(_day_location),w
  4144  1D6A  3E01               	addlw	01h
  4145  1D6B  00F3               	movwf	(??_init_attendance+0)+0
  4146  1D6C  0873               	movf	(??_init_attendance+0)+0,w
  4147  1D6D  00F0               	movwf	(?_store_eeprom)
  4148  1D6E  3041               	movlw	(041h)
  4149  1D6F  160A  158A  23E6   	fcall	_store_eeprom
              160A  158A         
  4150                           	line	887
  4151                           	
  4152  1D74                     l2654:	
  4153                           ;PR29.c: 887: store_eeprom('Y',day_location+2);
  4154  1D74  1283               	bcf	status, 5	;RP0=0, select bank0
  4155  1D75  1303               	bcf	status, 6	;RP1=0, select bank0
  4156  1D76  0857               	movf	(_day_location),w
  4157  1D77  3E02               	addlw	02h
  4158  1D78  00F3               	movwf	(??_init_attendance+0)+0
  4159  1D79  0873               	movf	(??_init_attendance+0)+0,w
  4160  1D7A  00F0               	movwf	(?_store_eeprom)
  4161  1D7B  3059               	movlw	(059h)
  4162  1D7C  160A  158A  23E6   	fcall	_store_eeprom
              160A  158A         
  4163                           	line	888
  4164                           	
  4165  1D81                     l2656:	
  4166                           ;PR29.c: 888: store_eeprom('2',day_location+3);
  4167  1D81  1283               	bcf	status, 5	;RP0=0, select bank0
  4168  1D82  1303               	bcf	status, 6	;RP1=0, select bank0
  4169  1D83  0857               	movf	(_day_location),w
  4170  1D84  3E03               	addlw	03h
  4171  1D85  00F3               	movwf	(??_init_attendance+0)+0
  4172  1D86  0873               	movf	(??_init_attendance+0)+0,w
  4173  1D87  00F0               	movwf	(?_store_eeprom)
  4174  1D88  3032               	movlw	(032h)
  4175  1D89  160A  158A  23E6   	fcall	_store_eeprom
              160A  158A         
  4176                           	line	890
  4177                           	
  4178  1D8E                     l2658:	
  4179                           ;PR29.c: 890: day_location=0x20;
  4180  1D8E  3020               	movlw	(020h)
  4181  1D8F  00F3               	movwf	(??_init_attendance+0)+0
  4182  1D90  0873               	movf	(??_init_attendance+0)+0,w
  4183  1D91  1283               	bcf	status, 5	;RP0=0, select bank0
  4184  1D92  1303               	bcf	status, 6	;RP1=0, select bank0
  4185  1D93  00D7               	movwf	(_day_location)
  4186                           	line	891
  4187                           ;PR29.c: 891: store_eeprom('D',day_location);
  4188  1D94  0857               	movf	(_day_location),w
  4189  1D95  00F3               	movwf	(??_init_attendance+0)+0
  4190  1D96  0873               	movf	(??_init_attendance+0)+0,w
  4191  1D97  00F0               	movwf	(?_store_eeprom)
  4192  1D98  3044               	movlw	(044h)
  4193  1D99  160A  158A  23E6   	fcall	_store_eeprom
              160A  158A         
  4194                           	line	892
  4195                           ;PR29.c: 892: store_eeprom('A',day_location+1);
  4196  1D9E  1283               	bcf	status, 5	;RP0=0, select bank0
  4197  1D9F  1303               	bcf	status, 6	;RP1=0, select bank0
  4198  1DA0  0857               	movf	(_day_location),w
  4199  1DA1  3E01               	addlw	01h
  4200  1DA2  00F3               	movwf	(??_init_attendance+0)+0
  4201  1DA3  0873               	movf	(??_init_attendance+0)+0,w
  4202  1DA4  00F0               	movwf	(?_store_eeprom)
  4203  1DA5  3041               	movlw	(041h)
  4204  1DA6  160A  158A  23E6   	fcall	_store_eeprom
              160A  158A         
  4205                           	line	893
  4206                           ;PR29.c: 893: store_eeprom('Y',day_location+2);
  4207  1DAB  1283               	bcf	status, 5	;RP0=0, select bank0
  4208  1DAC  1303               	bcf	status, 6	;RP1=0, select bank0
  4209  1DAD  0857               	movf	(_day_location),w
  4210  1DAE  3E02               	addlw	02h
  4211  1DAF  00F3               	movwf	(??_init_attendance+0)+0
  4212  1DB0  0873               	movf	(??_init_attendance+0)+0,w
  4213  1DB1  00F0               	movwf	(?_store_eeprom)
  4214  1DB2  3059               	movlw	(059h)
  4215  1DB3  160A  158A  23E6   	fcall	_store_eeprom
              160A  158A         
  4216                           	line	894
  4217                           ;PR29.c: 894: store_eeprom('3',day_location+3);
  4218  1DB8  1283               	bcf	status, 5	;RP0=0, select bank0
  4219  1DB9  1303               	bcf	status, 6	;RP1=0, select bank0
  4220  1DBA  0857               	movf	(_day_location),w
  4221  1DBB  3E03               	addlw	03h
  4222  1DBC  00F3               	movwf	(??_init_attendance+0)+0
  4223  1DBD  0873               	movf	(??_init_attendance+0)+0,w
  4224  1DBE  00F0               	movwf	(?_store_eeprom)
  4225  1DBF  3033               	movlw	(033h)
  4226  1DC0  160A  158A  23E6   	fcall	_store_eeprom
              160A  158A         
  4227                           	line	896
  4228                           	
  4229  1DC5                     l2660:	
  4230                           ;PR29.c: 896: day_location=0x30;
  4231  1DC5  3030               	movlw	(030h)
  4232  1DC6  00F3               	movwf	(??_init_attendance+0)+0
  4233  1DC7  0873               	movf	(??_init_attendance+0)+0,w
  4234  1DC8  1283               	bcf	status, 5	;RP0=0, select bank0
  4235  1DC9  1303               	bcf	status, 6	;RP1=0, select bank0
  4236  1DCA  00D7               	movwf	(_day_location)
  4237                           	line	897
  4238                           	
  4239  1DCB                     l2662:	
  4240                           ;PR29.c: 897: store_eeprom('D',day_location);
  4241  1DCB  0857               	movf	(_day_location),w
  4242  1DCC  00F3               	movwf	(??_init_attendance+0)+0
  4243  1DCD  0873               	movf	(??_init_attendance+0)+0,w
  4244  1DCE  00F0               	movwf	(?_store_eeprom)
  4245  1DCF  3044               	movlw	(044h)
  4246  1DD0  160A  158A  23E6   	fcall	_store_eeprom
              160A  158A         
  4247                           	line	898
  4248                           	
  4249  1DD5                     l2664:	
  4250                           ;PR29.c: 898: store_eeprom('A',day_location+1);
  4251  1DD5  1283               	bcf	status, 5	;RP0=0, select bank0
  4252  1DD6  1303               	bcf	status, 6	;RP1=0, select bank0
  4253  1DD7  0857               	movf	(_day_location),w
  4254  1DD8  3E01               	addlw	01h
  4255  1DD9  00F3               	movwf	(??_init_attendance+0)+0
  4256  1DDA  0873               	movf	(??_init_attendance+0)+0,w
  4257  1DDB  00F0               	movwf	(?_store_eeprom)
  4258  1DDC  3041               	movlw	(041h)
  4259  1DDD  160A  158A  23E6   	fcall	_store_eeprom
              160A  158A         
  4260                           	line	899
  4261                           	
  4262  1DE2                     l2666:	
  4263                           ;PR29.c: 899: store_eeprom('Y',day_location+2);
  4264  1DE2  1283               	bcf	status, 5	;RP0=0, select bank0
  4265  1DE3  1303               	bcf	status, 6	;RP1=0, select bank0
  4266  1DE4  0857               	movf	(_day_location),w
  4267  1DE5  3E02               	addlw	02h
  4268  1DE6  00F3               	movwf	(??_init_attendance+0)+0
  4269  1DE7  0873               	movf	(??_init_attendance+0)+0,w
  4270  1DE8  00F0               	movwf	(?_store_eeprom)
  4271  1DE9  3059               	movlw	(059h)
  4272  1DEA  160A  158A  23E6   	fcall	_store_eeprom
              160A  158A         
  4273                           	line	900
  4274                           	
  4275  1DEF                     l2668:	
  4276                           ;PR29.c: 900: store_eeprom('4',day_location+3);
  4277  1DEF  1283               	bcf	status, 5	;RP0=0, select bank0
  4278  1DF0  1303               	bcf	status, 6	;RP1=0, select bank0
  4279  1DF1  0857               	movf	(_day_location),w
  4280  1DF2  3E03               	addlw	03h
  4281  1DF3  00F3               	movwf	(??_init_attendance+0)+0
  4282  1DF4  0873               	movf	(??_init_attendance+0)+0,w
  4283  1DF5  00F0               	movwf	(?_store_eeprom)
  4284  1DF6  3034               	movlw	(034h)
  4285  1DF7  160A  158A  23E6   	fcall	_store_eeprom
              160A  158A         
  4286                           	line	902
  4287                           	
  4288  1DFC                     l2670:	
  4289                           ;PR29.c: 902: day_location=0x40;
  4290  1DFC  3040               	movlw	(040h)
  4291  1DFD  00F3               	movwf	(??_init_attendance+0)+0
  4292  1DFE  0873               	movf	(??_init_attendance+0)+0,w
  4293  1DFF  1283               	bcf	status, 5	;RP0=0, select bank0
  4294  1E00  1303               	bcf	status, 6	;RP1=0, select bank0
  4295  1E01  00D7               	movwf	(_day_location)
  4296                           	line	903
  4297                           ;PR29.c: 903: store_eeprom('D',day_location);
  4298  1E02  0857               	movf	(_day_location),w
  4299  1E03  00F3               	movwf	(??_init_attendance+0)+0
  4300  1E04  0873               	movf	(??_init_attendance+0)+0,w
  4301  1E05  00F0               	movwf	(?_store_eeprom)
  4302  1E06  3044               	movlw	(044h)
  4303  1E07  160A  158A  23E6   	fcall	_store_eeprom
              160A  158A         
  4304                           	line	904
  4305                           ;PR29.c: 904: store_eeprom('A',day_location+1);
  4306  1E0C  1283               	bcf	status, 5	;RP0=0, select bank0
  4307  1E0D  1303               	bcf	status, 6	;RP1=0, select bank0
  4308  1E0E  0857               	movf	(_day_location),w
  4309  1E0F  3E01               	addlw	01h
  4310  1E10  00F3               	movwf	(??_init_attendance+0)+0
  4311  1E11  0873               	movf	(??_init_attendance+0)+0,w
  4312  1E12  00F0               	movwf	(?_store_eeprom)
  4313  1E13  3041               	movlw	(041h)
  4314  1E14  160A  158A  23E6   	fcall	_store_eeprom
              160A  158A         
  4315                           	line	905
  4316                           ;PR29.c: 905: store_eeprom('Y',day_location+2);
  4317  1E19  1283               	bcf	status, 5	;RP0=0, select bank0
  4318  1E1A  1303               	bcf	status, 6	;RP1=0, select bank0
  4319  1E1B  0857               	movf	(_day_location),w
  4320  1E1C  3E02               	addlw	02h
  4321  1E1D  00F3               	movwf	(??_init_attendance+0)+0
  4322  1E1E  0873               	movf	(??_init_attendance+0)+0,w
  4323  1E1F  00F0               	movwf	(?_store_eeprom)
  4324  1E20  3059               	movlw	(059h)
  4325  1E21  160A  158A  23E6   	fcall	_store_eeprom
              160A  158A         
  4326                           	line	906
  4327                           ;PR29.c: 906: store_eeprom('5',day_location+3);
  4328  1E26  1283               	bcf	status, 5	;RP0=0, select bank0
  4329  1E27  1303               	bcf	status, 6	;RP1=0, select bank0
  4330  1E28  0857               	movf	(_day_location),w
  4331  1E29  3E03               	addlw	03h
  4332  1E2A  00F3               	movwf	(??_init_attendance+0)+0
  4333  1E2B  0873               	movf	(??_init_attendance+0)+0,w
  4334  1E2C  00F0               	movwf	(?_store_eeprom)
  4335  1E2D  3035               	movlw	(035h)
  4336  1E2E  160A  158A  23E6   	fcall	_store_eeprom
              160A  158A         
  4337                           	line	908
  4338                           	
  4339  1E33                     l447:	
  4340  1E33  0008               	return
  4341                           	opt stack 0
  4342                           GLOBAL	__end_of_init_attendance
  4343  1E34                     	__end_of_init_attendance:
  4344                           	signat	_init_attendance,88
  4345                           	global	_mode
  4346                           
  4347 ;; *************** function _mode *****************
  4348 ;; Defined at:
  4349 ;;		line 359 in file "PR29.c"
  4350 ;; Parameters:    Size  Location     Type
  4351 ;;  data            1    wreg     unsigned char 
  4352 ;; Auto vars:     Size  Location     Type
  4353 ;;  data            1   44[BANK0 ] unsigned char 
  4354 ;; Return value:  Size  Location     Type
  4355 ;;		None               void
  4356 ;; Registers used:
  4357 ;;		wreg, fsr0l, fsr0h, status,2, status,0, btemp+1, pclath, cstack
  4358 ;; Tracked objects:
  4359 ;;		On entry : 0/0
  4360 ;;		On exit  : 0/0
  4361 ;;		Unchanged: 0/0
  4362 ;; Data sizes:     COMMON   BANK0   BANK1   BANK3   BANK2
  4363 ;;      Params:         0       0       0       0       0
  4364 ;;      Locals:         0       1       0       0       0
  4365 ;;      Temps:          0       2       0       0       0
  4366 ;;      Totals:         0       3       0       0       0
  4367 ;;Total ram usage:        3 bytes
  4368 ;; Hardware stack levels used:    1
  4369 ;; Hardware stack levels required when called:    6
  4370 ;; This function calls:
  4371 ;;		_lcd_clr
  4372 ;;		_store_eeprom
  4373 ;;		_lcd_goto
  4374 ;;		_send_string
  4375 ;;		_send_char
  4376 ;;		_delay
  4377 ;;		_AddNew
  4378 ;;		_send_cmd
  4379 ;;		_receive_reply
  4380 ;;		_CheckAdmin
  4381 ;;		_view_attendance
  4382 ;;		_clear_attendance
  4383 ;;		_upload_GUI
  4384 ;;		_upload_HT
  4385 ;; This function is called by:
  4386 ;;		_main
  4387 ;; This function uses a non-reentrant model
  4388 ;;
  4389                           psect	text535,local,class=CODE,delta=2,merge=1
  4390                           global __ptext535
  4391  0329                     __ptext535:
  4392                           psect	text535
  4393                           	file	"PR29.c"
  4394                           	line	359
  4395                           	global	__size_of_mode
  4396  04D7                     	__size_of_mode	equ	__end_of_mode-_mode
  4397                           	
  4398  0329                     _mode:	
  4399                           	opt	stack 1
  4400                           ; Regs used in _mode: [wreg-fsr0h+status,2+status,0+btemp+1+pclath+cstack]
  4401                           ;mode@data stored from wreg
  4402                           	line	361
  4403  0329  1283               	bcf	status, 5	;RP0=0, select bank0
  4404  032A  1303               	bcf	status, 6	;RP1=0, select bank0
  4405  032B  00CC               	movwf	(mode@data)
  4406                           	
  4407  032C                     l3498:	
  4408                           ;PR29.c: 361: if (data==1)
  4409  032C  084C               	movf	(mode@data),w
  4410  032D  3A01               	xorlw	01h
  4411  032E  1D03               	skipz
  4412  032F  2B31               	goto	u2801
  4413  0330  2B32               	goto	u2800
  4414  0331                     u2801:
  4415  0331  2C61               	goto	l3570
  4416  0332                     u2800:
  4417  0332  2C59               	goto	l3568
  4418                           	line	364
  4419                           	
  4420  0333                     l3500:	
  4421                           ;PR29.c: 362: {
  4422                           ;PR29.c: 364: while(!day_enter)
  4423  0333  2C59               	goto	l3568
  4424                           	
  4425  0334                     l266:	
  4426                           	line	366
  4427                           ;PR29.c: 365: {
  4428                           ;PR29.c: 366: if(!RA2)
  4429  0334  1905               	btfsc	(42/8),(42)&7	;volatile
  4430  0335  2B37               	goto	u2811
  4431  0336  2B38               	goto	u2810
  4432  0337                     u2811:
  4433  0337  2B4F               	goto	l267
  4434  0338                     u2810:
  4435  0338  2B3A               	goto	l268
  4436                           	line	368
  4437                           	
  4438  0339                     l3502:	
  4439                           ;PR29.c: 367: {
  4440                           ;PR29.c: 368: while(!RA2);
  4441  0339  2B3A               	goto	l268
  4442                           	
  4443  033A                     l269:	
  4444                           	
  4445  033A                     l268:	
  4446  033A  1D05               	btfss	(42/8),(42)&7	;volatile
  4447  033B  2B3D               	goto	u2821
  4448  033C  2B3E               	goto	u2820
  4449  033D                     u2821:
  4450  033D  2B3A               	goto	l268
  4451  033E                     u2820:
  4452  033E  2B3F               	goto	l3504
  4453                           	
  4454  033F                     l270:	
  4455                           	line	369
  4456                           	
  4457  033F                     l3504:	
  4458                           ;PR29.c: 369: if (day_count<5)
  4459  033F  3005               	movlw	(05h)
  4460  0340  025B               	subwf	(_day_count),w
  4461  0341  1803               	skipnc
  4462  0342  2B44               	goto	u2831
  4463  0343  2B45               	goto	u2830
  4464  0344                     u2831:
  4465  0344  2B4A               	goto	l3508
  4466  0345                     u2830:
  4467                           	line	370
  4468                           	
  4469  0345                     l3506:	
  4470                           ;PR29.c: 370: day_count++;
  4471  0345  3001               	movlw	(01h)
  4472  0346  00CA               	movwf	(??_mode+0)+0
  4473  0347  084A               	movf	(??_mode+0)+0,w
  4474  0348  07DB               	addwf	(_day_count),f
  4475  0349  2C1C               	goto	l3556
  4476                           	line	371
  4477                           	
  4478  034A                     l271:	
  4479                           	line	372
  4480                           	
  4481  034A                     l3508:	
  4482                           ;PR29.c: 371: else
  4483                           ;PR29.c: 372: day_count=1;
  4484  034A  01DB               	clrf	(_day_count)
  4485  034B  1403               	bsf	status,0
  4486  034C  0DDB               	rlf	(_day_count),f
  4487  034D  2C1C               	goto	l3556
  4488                           	
  4489  034E                     l272:	
  4490                           	line	373
  4491                           ;PR29.c: 373: }
  4492  034E  2C1C               	goto	l3556
  4493                           	line	374
  4494                           	
  4495  034F                     l267:	
  4496                           ;PR29.c: 374: else if(!RA3)
  4497  034F  1985               	btfsc	(43/8),(43)&7	;volatile
  4498  0350  2B52               	goto	u2841
  4499  0351  2B53               	goto	u2840
  4500  0352                     u2841:
  4501  0352  2B69               	goto	l274
  4502  0353                     u2840:
  4503  0353  2B55               	goto	l275
  4504                           	line	376
  4505                           	
  4506  0354                     l3510:	
  4507                           ;PR29.c: 375: {
  4508                           ;PR29.c: 376: while(!RA3);
  4509  0354  2B55               	goto	l275
  4510                           	
  4511  0355                     l276:	
  4512                           	
  4513  0355                     l275:	
  4514  0355  1D85               	btfss	(43/8),(43)&7	;volatile
  4515  0356  2B58               	goto	u2851
  4516  0357  2B59               	goto	u2850
  4517  0358                     u2851:
  4518  0358  2B55               	goto	l275
  4519  0359                     u2850:
  4520  0359  2B5A               	goto	l3512
  4521                           	
  4522  035A                     l277:	
  4523                           	line	377
  4524                           	
  4525  035A                     l3512:	
  4526                           ;PR29.c: 377: if (day_count>1)
  4527  035A  3002               	movlw	(02h)
  4528  035B  025B               	subwf	(_day_count),w
  4529  035C  1C03               	skipc
  4530  035D  2B5F               	goto	u2861
  4531  035E  2B60               	goto	u2860
  4532  035F                     u2861:
  4533  035F  2B63               	goto	l3516
  4534  0360                     u2860:
  4535                           	line	378
  4536                           	
  4537  0360                     l3514:	
  4538                           ;PR29.c: 378: day_count--;
  4539  0360  3001               	movlw	low(01h)
  4540  0361  02DB               	subwf	(_day_count),f
  4541  0362  2C1C               	goto	l3556
  4542                           	line	379
  4543                           	
  4544  0363                     l278:	
  4545                           	line	380
  4546                           	
  4547  0363                     l3516:	
  4548                           ;PR29.c: 379: else
  4549                           ;PR29.c: 380: day_count=5;
  4550  0363  3005               	movlw	(05h)
  4551  0364  00CA               	movwf	(??_mode+0)+0
  4552  0365  084A               	movf	(??_mode+0)+0,w
  4553  0366  00DB               	movwf	(_day_count)
  4554  0367  2C1C               	goto	l3556
  4555                           	
  4556  0368                     l279:	
  4557                           	line	381
  4558                           ;PR29.c: 381: }
  4559  0368  2C1C               	goto	l3556
  4560                           	line	382
  4561                           	
  4562  0369                     l274:	
  4563                           ;PR29.c: 382: else if(!RA4)
  4564  0369  1A05               	btfsc	(44/8),(44)&7	;volatile
  4565  036A  2B6C               	goto	u2871
  4566  036B  2B6D               	goto	u2870
  4567  036C                     u2871:
  4568  036C  2C1C               	goto	l3556
  4569  036D                     u2870:
  4570                           	line	384
  4571                           	
  4572  036D                     l3518:	
  4573                           ;PR29.c: 383: {
  4574                           ;PR29.c: 384: lcd_clr();
  4575  036D  160A  158A  229C   	fcall	_lcd_clr
              120A  118A         
  4576                           	line	385
  4577                           	
  4578  0372                     l3520:	
  4579                           ;PR29.c: 385: RA1=1;
  4580  0372  1283               	bcf	status, 5	;RP0=0, select bank0
  4581  0373  1303               	bcf	status, 6	;RP1=0, select bank0
  4582  0374  1485               	bsf	(41/8),(41)&7	;volatile
  4583                           	line	386
  4584                           ;PR29.c: 386: while(!RA4);
  4585  0375  2B76               	goto	l282
  4586                           	
  4587  0376                     l283:	
  4588                           	
  4589  0376                     l282:	
  4590  0376  1E05               	btfss	(44/8),(44)&7	;volatile
  4591  0377  2B79               	goto	u2881
  4592  0378  2B7A               	goto	u2880
  4593  0379                     u2881:
  4594  0379  2B76               	goto	l282
  4595  037A                     u2880:
  4596  037A  2B7B               	goto	l3522
  4597                           	
  4598  037B                     l284:	
  4599                           	line	387
  4600                           	
  4601  037B                     l3522:	
  4602                           ;PR29.c: 387: if(day_count==1)
  4603  037B  085B               	movf	(_day_count),w
  4604  037C  3A01               	xorlw	01h
  4605  037D  1D03               	skipz
  4606  037E  2B80               	goto	u2891
  4607  037F  2B81               	goto	u2890
  4608  0380                     u2891:
  4609  0380  2B8C               	goto	l3526
  4610  0381                     u2890:
  4611                           	line	388
  4612                           	
  4613  0381                     l3524:	
  4614                           ;PR29.c: 388: { store_eeprom(day_count,0xff);
  4615  0381  30FF               	movlw	(0FFh)
  4616  0382  00CA               	movwf	(??_mode+0)+0
  4617  0383  084A               	movf	(??_mode+0)+0,w
  4618  0384  00F0               	movwf	(?_store_eeprom)
  4619  0385  085B               	movf	(_day_count),w
  4620  0386  160A  158A  23E6   	fcall	_store_eeprom
              120A  118A         
  4621                           	line	390
  4622                           ;PR29.c: 390: }
  4623  038B  2BDB               	goto	l286
  4624                           	line	391
  4625                           	
  4626  038C                     l285:	
  4627                           	
  4628  038C                     l3526:	
  4629                           ;PR29.c: 391: else if (day_count==2)
  4630  038C  1283               	bcf	status, 5	;RP0=0, select bank0
  4631  038D  1303               	bcf	status, 6	;RP1=0, select bank0
  4632  038E  085B               	movf	(_day_count),w
  4633  038F  3A02               	xorlw	02h
  4634  0390  1D03               	skipz
  4635  0391  2B93               	goto	u2901
  4636  0392  2B94               	goto	u2900
  4637  0393                     u2901:
  4638  0393  2B9F               	goto	l3530
  4639  0394                     u2900:
  4640                           	line	392
  4641                           	
  4642  0394                     l3528:	
  4643                           ;PR29.c: 392: { store_eeprom(day_count,0xff);
  4644  0394  30FF               	movlw	(0FFh)
  4645  0395  00CA               	movwf	(??_mode+0)+0
  4646  0396  084A               	movf	(??_mode+0)+0,w
  4647  0397  00F0               	movwf	(?_store_eeprom)
  4648  0398  085B               	movf	(_day_count),w
  4649  0399  160A  158A  23E6   	fcall	_store_eeprom
              120A  118A         
  4650                           	line	394
  4651                           ;PR29.c: 394: }
  4652  039E  2BDB               	goto	l286
  4653                           	line	395
  4654                           	
  4655  039F                     l287:	
  4656                           	
  4657  039F                     l3530:	
  4658                           ;PR29.c: 395: else if (day_count==3)
  4659  039F  1283               	bcf	status, 5	;RP0=0, select bank0
  4660  03A0  1303               	bcf	status, 6	;RP1=0, select bank0
  4661  03A1  085B               	movf	(_day_count),w
  4662  03A2  3A03               	xorlw	03h
  4663  03A3  1D03               	skipz
  4664  03A4  2BA6               	goto	u2911
  4665  03A5  2BA7               	goto	u2910
  4666  03A6                     u2911:
  4667  03A6  2BB2               	goto	l3534
  4668  03A7                     u2910:
  4669                           	line	396
  4670                           	
  4671  03A7                     l3532:	
  4672                           ;PR29.c: 396: { store_eeprom(day_count,0xff);
  4673  03A7  30FF               	movlw	(0FFh)
  4674  03A8  00CA               	movwf	(??_mode+0)+0
  4675  03A9  084A               	movf	(??_mode+0)+0,w
  4676  03AA  00F0               	movwf	(?_store_eeprom)
  4677  03AB  085B               	movf	(_day_count),w
  4678  03AC  160A  158A  23E6   	fcall	_store_eeprom
              120A  118A         
  4679                           	line	398
  4680                           ;PR29.c: 398: }
  4681  03B1  2BDB               	goto	l286
  4682                           	line	399
  4683                           	
  4684  03B2                     l289:	
  4685                           	
  4686  03B2                     l3534:	
  4687                           ;PR29.c: 399: else if (day_count==4)
  4688  03B2  1283               	bcf	status, 5	;RP0=0, select bank0
  4689  03B3  1303               	bcf	status, 6	;RP1=0, select bank0
  4690  03B4  085B               	movf	(_day_count),w
  4691  03B5  3A04               	xorlw	04h
  4692  03B6  1D03               	skipz
  4693  03B7  2BB9               	goto	u2921
  4694  03B8  2BBA               	goto	u2920
  4695  03B9                     u2921:
  4696  03B9  2BC5               	goto	l3538
  4697  03BA                     u2920:
  4698                           	line	400
  4699                           	
  4700  03BA                     l3536:	
  4701                           ;PR29.c: 400: { store_eeprom(day_count,0xff);
  4702  03BA  30FF               	movlw	(0FFh)
  4703  03BB  00CA               	movwf	(??_mode+0)+0
  4704  03BC  084A               	movf	(??_mode+0)+0,w
  4705  03BD  00F0               	movwf	(?_store_eeprom)
  4706  03BE  085B               	movf	(_day_count),w
  4707  03BF  160A  158A  23E6   	fcall	_store_eeprom
              120A  118A         
  4708                           	line	402
  4709                           ;PR29.c: 402: }
  4710  03C4  2BDB               	goto	l286
  4711                           	line	403
  4712                           	
  4713  03C5                     l291:	
  4714                           	
  4715  03C5                     l3538:	
  4716                           ;PR29.c: 403: else if (day_count==5)
  4717  03C5  1283               	bcf	status, 5	;RP0=0, select bank0
  4718  03C6  1303               	bcf	status, 6	;RP1=0, select bank0
  4719  03C7  085B               	movf	(_day_count),w
  4720  03C8  3A05               	xorlw	05h
  4721  03C9  1D03               	skipz
  4722  03CA  2BCC               	goto	u2931
  4723  03CB  2BCD               	goto	u2930
  4724  03CC                     u2931:
  4725  03CC  2BDB               	goto	l286
  4726  03CD                     u2930:
  4727                           	line	404
  4728                           	
  4729  03CD                     l3540:	
  4730                           ;PR29.c: 404: { store_eeprom(day_count,0xff);
  4731  03CD  30FF               	movlw	(0FFh)
  4732  03CE  00CA               	movwf	(??_mode+0)+0
  4733  03CF  084A               	movf	(??_mode+0)+0,w
  4734  03D0  00F0               	movwf	(?_store_eeprom)
  4735  03D1  085B               	movf	(_day_count),w
  4736  03D2  160A  158A  23E6   	fcall	_store_eeprom
              120A  118A         
  4737  03D7  2BDB               	goto	l286
  4738                           	line	406
  4739                           	
  4740  03D8                     l293:	
  4741  03D8  2BDB               	goto	l286
  4742                           	line	407
  4743                           	
  4744  03D9                     l292:	
  4745  03D9  2BDB               	goto	l286
  4746                           	
  4747  03DA                     l290:	
  4748  03DA  2BDB               	goto	l286
  4749                           	
  4750  03DB                     l288:	
  4751                           	
  4752  03DB                     l286:	
  4753                           ;PR29.c: 406: }
  4754                           ;PR29.c: 407: lcd_goto(0);
  4755  03DB  3000               	movlw	(0)
  4756  03DC  160A  158A  22DB   	fcall	_lcd_goto
              120A  118A         
  4757                           	line	408
  4758                           	
  4759  03E1                     l3542:	
  4760                           ;PR29.c: 408: send_string("Day ");
  4761  03E1  3019               	movlw	low(STR_19|8000h)
  4762  03E2  00F9               	movwf	(?_send_string)
  4763  03E3  3092               	movlw	high(STR_19|8000h)
  4764  03E4  00FA               	movwf	((?_send_string))+1
  4765  03E5  160A  158A  23B2   	fcall	_send_string
              120A  118A         
  4766                           	line	409
  4767                           	
  4768  03EA                     l3544:	
  4769                           ;PR29.c: 409: lcd_goto(4);
  4770  03EA  3004               	movlw	(04h)
  4771  03EB  160A  158A  22DB   	fcall	_lcd_goto
              120A  118A         
  4772                           	line	410
  4773                           	
  4774  03F0                     l3546:	
  4775                           ;PR29.c: 410: send_char(0x30 + day_count);
  4776  03F0  1283               	bcf	status, 5	;RP0=0, select bank0
  4777  03F1  1303               	bcf	status, 6	;RP1=0, select bank0
  4778  03F2  085B               	movf	(_day_count),w
  4779  03F3  3E30               	addlw	030h
  4780  03F4  160A  158A  2338   	fcall	_send_char
              120A  118A         
  4781                           	line	411
  4782                           	
  4783  03F9                     l3548:	
  4784                           ;PR29.c: 411: lcd_goto(20);
  4785  03F9  3014               	movlw	(014h)
  4786  03FA  160A  158A  22DB   	fcall	_lcd_goto
              120A  118A         
  4787                           	line	412
  4788                           ;PR29.c: 412: send_string("Selected");
  4789  03FF  3076               	movlw	low(STR_20|8000h)
  4790  0400  00F9               	movwf	(?_send_string)
  4791  0401  3092               	movlw	high(STR_20|8000h)
  4792  0402  00FA               	movwf	((?_send_string))+1
  4793  0403  160A  158A  23B2   	fcall	_send_string
              120A  118A         
  4794                           	line	413
  4795                           	
  4796  0408                     l3550:	
  4797                           ;PR29.c: 413: delay(200000);
  4798  0408  3000               	movlw	0
  4799  0409  00F3               	movwf	(?_delay+3)
  4800  040A  3003               	movlw	03h
  4801  040B  00F2               	movwf	(?_delay+2)
  4802  040C  300D               	movlw	0Dh
  4803  040D  00F1               	movwf	(?_delay+1)
  4804  040E  3040               	movlw	040h
  4805  040F  00F0               	movwf	(?_delay)
  4806                           
  4807  0410  160A  158A  2382   	fcall	_delay
              120A  118A         
  4808                           	line	414
  4809                           	
  4810  0415                     l3552:	
  4811                           ;PR29.c: 414: RA1=0;
  4812  0415  1283               	bcf	status, 5	;RP0=0, select bank0
  4813  0416  1303               	bcf	status, 6	;RP1=0, select bank0
  4814  0417  1085               	bcf	(41/8),(41)&7	;volatile
  4815                           	line	415
  4816                           	
  4817  0418                     l3554:	
  4818                           ;PR29.c: 415: day_enter=1;
  4819  0418  1559               	bsf	(_day_enter/8),(_day_enter)&7
  4820  0419  2C1C               	goto	l3556
  4821                           	line	416
  4822                           	
  4823  041A                     l281:	
  4824  041A  2C1C               	goto	l3556
  4825                           	line	417
  4826                           	
  4827  041B                     l280:	
  4828  041B  2C1C               	goto	l3556
  4829                           	
  4830  041C                     l273:	
  4831                           	
  4832  041C                     l3556:	
  4833                           ;PR29.c: 416: }
  4834                           ;PR29.c: 417: lcd_goto(0);
  4835  041C  3000               	movlw	(0)
  4836  041D  160A  158A  22DB   	fcall	_lcd_goto
              120A  118A         
  4837                           	line	418
  4838                           ;PR29.c: 418: send_string("Today is Day ");
  4839  0422  3010               	movlw	low(STR_21|8000h)
  4840  0423  00F9               	movwf	(?_send_string)
  4841  0424  3092               	movlw	high(STR_21|8000h)
  4842  0425  00FA               	movwf	((?_send_string))+1
  4843  0426  160A  158A  23B2   	fcall	_send_string
              120A  118A         
  4844                           	line	419
  4845                           	
  4846  042B                     l3558:	
  4847                           ;PR29.c: 419: lcd_goto(13);
  4848  042B  300D               	movlw	(0Dh)
  4849  042C  160A  158A  22DB   	fcall	_lcd_goto
              120A  118A         
  4850                           	line	420
  4851                           	
  4852  0431                     l3560:	
  4853                           ;PR29.c: 420: send_char(0x30+day_count);
  4854  0431  1283               	bcf	status, 5	;RP0=0, select bank0
  4855  0432  1303               	bcf	status, 6	;RP1=0, select bank0
  4856  0433  085B               	movf	(_day_count),w
  4857  0434  3E30               	addlw	030h
  4858  0435  160A  158A  2338   	fcall	_send_char
              120A  118A         
  4859                           	line	421
  4860                           	
  4861  043A                     l3562:	
  4862                           ;PR29.c: 421: lcd_goto(14);
  4863  043A  300E               	movlw	(0Eh)
  4864  043B  160A  158A  22DB   	fcall	_lcd_goto
              120A  118A         
  4865                           	line	422
  4866                           	
  4867  0440                     l3564:	
  4868                           ;PR29.c: 422: send_string("/5");
  4869  0440  30B1               	movlw	low(STR_22|8000h)
  4870  0441  00F9               	movwf	(?_send_string)
  4871  0442  3092               	movlw	high(STR_22|8000h)
  4872  0443  00FA               	movwf	((?_send_string))+1
  4873  0444  160A  158A  23B2   	fcall	_send_string
              120A  118A         
  4874                           	line	423
  4875                           ;PR29.c: 423: lcd_goto(20);
  4876  0449  3014               	movlw	(014h)
  4877  044A  160A  158A  22DB   	fcall	_lcd_goto
              120A  118A         
  4878                           	line	424
  4879                           	
  4880  044F                     l3566:	
  4881                           ;PR29.c: 424: send_string("Press 3 to set  ");
  4882  044F  3034               	movlw	low(STR_23|8000h)
  4883  0450  00F9               	movwf	(?_send_string)
  4884  0451  3091               	movlw	high(STR_23|8000h)
  4885  0452  00FA               	movwf	((?_send_string))+1
  4886  0453  160A  158A  23B2   	fcall	_send_string
              120A  118A         
  4887  0458  2C59               	goto	l3568
  4888                           	line	425
  4889                           	
  4890  0459                     l265:	
  4891                           	line	364
  4892                           	
  4893  0459                     l3568:	
  4894  0459  1283               	bcf	status, 5	;RP0=0, select bank0
  4895  045A  1303               	bcf	status, 6	;RP1=0, select bank0
  4896  045B  1D59               	btfss	(_day_enter/8),(_day_enter)&7
  4897  045C  2C5E               	goto	u2941
  4898  045D  2C5F               	goto	u2940
  4899  045E                     u2941:
  4900  045E  2B34               	goto	l266
  4901  045F                     u2940:
  4902                           	
  4903  045F                     l294:	
  4904                           	line	426
  4905                           ;PR29.c: 425: }
  4906                           ;PR29.c: 426: day_enter=0;
  4907  045F  1159               	bcf	(_day_enter/8),(_day_enter)&7
  4908                           	line	427
  4909                           ;PR29.c: 427: }
  4910  0460  2FFA               	goto	l295
  4911                           	line	428
  4912                           	
  4913  0461                     l264:	
  4914                           	
  4915  0461                     l3570:	
  4916                           ;PR29.c: 428: else if (data==2)
  4917  0461  084C               	movf	(mode@data),w
  4918  0462  3A02               	xorlw	02h
  4919  0463  1D03               	skipz
  4920  0464  2C66               	goto	u2951
  4921  0465  2C67               	goto	u2950
  4922  0466                     u2951:
  4923  0466  2CF6               	goto	l3608
  4924  0467                     u2950:
  4925                           	line	430
  4926                           	
  4927  0467                     l3572:	
  4928                           ;PR29.c: 429: {
  4929                           ;PR29.c: 430: delay(10000);
  4930  0467  3000               	movlw	0
  4931  0468  00F3               	movwf	(?_delay+3)
  4932  0469  3000               	movlw	0
  4933  046A  00F2               	movwf	(?_delay+2)
  4934  046B  3027               	movlw	027h
  4935  046C  00F1               	movwf	(?_delay+1)
  4936  046D  3010               	movlw	010h
  4937  046E  00F0               	movwf	(?_delay)
  4938                           
  4939  046F  160A  158A  2382   	fcall	_delay
              120A  118A         
  4940                           	line	432
  4941                           ;PR29.c: 432: while(location_enter==0)
  4942  0474  2CEE               	goto	l3606
  4943                           	
  4944  0475                     l298:	
  4945                           	line	434
  4946                           	
  4947  0475                     l3574:	
  4948                           ;PR29.c: 433: {
  4949                           ;PR29.c: 434: lcd_goto(0);
  4950  0475  3000               	movlw	(0)
  4951  0476  160A  158A  22DB   	fcall	_lcd_goto
              120A  118A         
  4952                           	line	435
  4953                           	
  4954  047B                     l3576:	
  4955                           ;PR29.c: 435: send_string("Choose User     ");
  4956  047B  30AC               	movlw	low(STR_24|8000h)
  4957  047C  00F9               	movwf	(?_send_string)
  4958  047D  3090               	movlw	high(STR_24|8000h)
  4959  047E  00FA               	movwf	((?_send_string))+1
  4960  047F  160A  158A  23B2   	fcall	_send_string
              120A  118A         
  4961                           	line	436
  4962                           	
  4963  0484                     l3578:	
  4964                           ;PR29.c: 436: lcd_goto(20);
  4965  0484  3014               	movlw	(014h)
  4966  0485  160A  158A  22DB   	fcall	_lcd_goto
              120A  118A         
  4967                           	line	437
  4968                           ;PR29.c: 437: send_string("User ");
  4969  048A  304D               	movlw	low(STR_25|8000h)
  4970  048B  00F9               	movwf	(?_send_string)
  4971  048C  3092               	movlw	high(STR_25|8000h)
  4972  048D  00FA               	movwf	((?_send_string))+1
  4973  048E  160A  158A  23B2   	fcall	_send_string
              120A  118A         
  4974                           	line	438
  4975                           	
  4976  0493                     l3580:	
  4977                           ;PR29.c: 438: lcd_goto(25);
  4978  0493  3019               	movlw	(019h)
  4979  0494  160A  158A  22DB   	fcall	_lcd_goto
              120A  118A         
  4980                           	line	439
  4981                           	
  4982  0499                     l3582:	
  4983                           ;PR29.c: 439: send_char(0x30 + location);
  4984  0499  1283               	bcf	status, 5	;RP0=0, select bank0
  4985  049A  1303               	bcf	status, 6	;RP1=0, select bank0
  4986  049B  085C               	movf	(_location),w
  4987  049C  3E30               	addlw	030h
  4988  049D  160A  158A  2338   	fcall	_send_char
              120A  118A         
  4989                           	line	440
  4990                           	
  4991  04A2                     l3584:	
  4992                           ;PR29.c: 440: if(!RA2)
  4993  04A2  1283               	bcf	status, 5	;RP0=0, select bank0
  4994  04A3  1303               	bcf	status, 6	;RP1=0, select bank0
  4995  04A4  1905               	btfsc	(42/8),(42)&7	;volatile
  4996  04A5  2CA7               	goto	u2961
  4997  04A6  2CA8               	goto	u2960
  4998  04A7                     u2961:
  4999  04A7  2CBF               	goto	l299
  5000  04A8                     u2960:
  5001  04A8  2CAA               	goto	l300
  5002                           	line	442
  5003                           	
  5004  04A9                     l3586:	
  5005                           ;PR29.c: 441: {
  5006                           ;PR29.c: 442: while(!RA2);
  5007  04A9  2CAA               	goto	l300
  5008                           	
  5009  04AA                     l301:	
  5010                           	
  5011  04AA                     l300:	
  5012  04AA  1D05               	btfss	(42/8),(42)&7	;volatile
  5013  04AB  2CAD               	goto	u2971
  5014  04AC  2CAE               	goto	u2970
  5015  04AD                     u2971:
  5016  04AD  2CAA               	goto	l300
  5017  04AE                     u2970:
  5018  04AE  2CAF               	goto	l3588
  5019                           	
  5020  04AF                     l302:	
  5021                           	line	443
  5022                           	
  5023  04AF                     l3588:	
  5024                           ;PR29.c: 443: if (location<5)
  5025  04AF  3005               	movlw	(05h)
  5026  04B0  025C               	subwf	(_location),w
  5027  04B1  1803               	skipnc
  5028  04B2  2CB4               	goto	u2981
  5029  04B3  2CB5               	goto	u2980
  5030  04B4                     u2981:
  5031  04B4  2CBA               	goto	l3592
  5032  04B5                     u2980:
  5033                           	line	444
  5034                           	
  5035  04B5                     l3590:	
  5036                           ;PR29.c: 444: location++;
  5037  04B5  3001               	movlw	(01h)
  5038  04B6  00CA               	movwf	(??_mode+0)+0
  5039  04B7  084A               	movf	(??_mode+0)+0,w
  5040  04B8  07DC               	addwf	(_location),f
  5041  04B9  2CEE               	goto	l3606
  5042                           	line	445
  5043                           	
  5044  04BA                     l303:	
  5045                           	line	446
  5046                           	
  5047  04BA                     l3592:	
  5048                           ;PR29.c: 445: else
  5049                           ;PR29.c: 446: location=1;
  5050  04BA  01DC               	clrf	(_location)
  5051  04BB  1403               	bsf	status,0
  5052  04BC  0DDC               	rlf	(_location),f
  5053  04BD  2CEE               	goto	l3606
  5054                           	
  5055  04BE                     l304:	
  5056                           	line	447
  5057                           ;PR29.c: 447: }
  5058  04BE  2CEE               	goto	l3606
  5059                           	line	448
  5060                           	
  5061  04BF                     l299:	
  5062                           ;PR29.c: 448: else if(!RA3)
  5063  04BF  1985               	btfsc	(43/8),(43)&7	;volatile
  5064  04C0  2CC2               	goto	u2991
  5065  04C1  2CC3               	goto	u2990
  5066  04C2                     u2991:
  5067  04C2  2CD9               	goto	l306
  5068  04C3                     u2990:
  5069  04C3  2CC5               	goto	l307
  5070                           	line	450
  5071                           	
  5072  04C4                     l3594:	
  5073                           ;PR29.c: 449: {
  5074                           ;PR29.c: 450: while(!RA3);
  5075  04C4  2CC5               	goto	l307
  5076                           	
  5077  04C5                     l308:	
  5078                           	
  5079  04C5                     l307:	
  5080  04C5  1D85               	btfss	(43/8),(43)&7	;volatile
  5081  04C6  2CC8               	goto	u3001
  5082  04C7  2CC9               	goto	u3000
  5083  04C8                     u3001:
  5084  04C8  2CC5               	goto	l307
  5085  04C9                     u3000:
  5086  04C9  2CCA               	goto	l3596
  5087                           	
  5088  04CA                     l309:	
  5089                           	line	451
  5090                           	
  5091  04CA                     l3596:	
  5092                           ;PR29.c: 451: if (location>1)
  5093  04CA  3002               	movlw	(02h)
  5094  04CB  025C               	subwf	(_location),w
  5095  04CC  1C03               	skipc
  5096  04CD  2CCF               	goto	u3011
  5097  04CE  2CD0               	goto	u3010
  5098  04CF                     u3011:
  5099  04CF  2CD3               	goto	l3600
  5100  04D0                     u3010:
  5101                           	line	452
  5102                           	
  5103  04D0                     l3598:	
  5104                           ;PR29.c: 452: location--;
  5105  04D0  3001               	movlw	low(01h)
  5106  04D1  02DC               	subwf	(_location),f
  5107  04D2  2CEE               	goto	l3606
  5108                           	line	453
  5109                           	
  5110  04D3                     l310:	
  5111                           	line	454
  5112                           	
  5113  04D3                     l3600:	
  5114                           ;PR29.c: 453: else
  5115                           ;PR29.c: 454: location=5;
  5116  04D3  3005               	movlw	(05h)
  5117  04D4  00CA               	movwf	(??_mode+0)+0
  5118  04D5  084A               	movf	(??_mode+0)+0,w
  5119  04D6  00DC               	movwf	(_location)
  5120  04D7  2CEE               	goto	l3606
  5121                           	
  5122  04D8                     l311:	
  5123                           	line	455
  5124                           ;PR29.c: 455: }
  5125  04D8  2CEE               	goto	l3606
  5126                           	line	456
  5127                           	
  5128  04D9                     l306:	
  5129                           ;PR29.c: 456: else if(!RA4)
  5130  04D9  1A05               	btfsc	(44/8),(44)&7	;volatile
  5131  04DA  2CDC               	goto	u3021
  5132  04DB  2CDD               	goto	u3020
  5133  04DC                     u3021:
  5134  04DC  2CEE               	goto	l3606
  5135  04DD                     u3020:
  5136  04DD  2CDF               	goto	l314
  5137                           	line	458
  5138                           	
  5139  04DE                     l3602:	
  5140                           ;PR29.c: 457: {
  5141                           ;PR29.c: 458: while(!RA4);
  5142  04DE  2CDF               	goto	l314
  5143                           	
  5144  04DF                     l315:	
  5145                           	
  5146  04DF                     l314:	
  5147  04DF  1E05               	btfss	(44/8),(44)&7	;volatile
  5148  04E0  2CE2               	goto	u3031
  5149  04E1  2CE3               	goto	u3030
  5150  04E2                     u3031:
  5151  04E2  2CDF               	goto	l314
  5152  04E3                     u3030:
  5153  04E3  2CE4               	goto	l3604
  5154                           	
  5155  04E4                     l316:	
  5156                           	line	459
  5157                           	
  5158  04E4                     l3604:	
  5159                           ;PR29.c: 459: AddNew(location);
  5160  04E4  085C               	movf	(_location),w
  5161  04E5  120A  118A  200F   	fcall	_AddNew
              120A  118A         
  5162  04EA  2CEE               	goto	l3606
  5163                           	line	460
  5164                           	
  5165  04EB                     l313:	
  5166  04EB  2CEE               	goto	l3606
  5167                           	line	461
  5168                           	
  5169  04EC                     l312:	
  5170  04EC  2CEE               	goto	l3606
  5171                           	
  5172  04ED                     l305:	
  5173  04ED  2CEE               	goto	l3606
  5174                           	
  5175  04EE                     l297:	
  5176                           	line	432
  5177                           	
  5178  04EE                     l3606:	
  5179  04EE  1283               	bcf	status, 5	;RP0=0, select bank0
  5180  04EF  1303               	bcf	status, 6	;RP1=0, select bank0
  5181  04F0  1ED9               	btfss	(_location_enter/8),(_location_enter)&7
  5182  04F1  2CF3               	goto	u3041
  5183  04F2  2CF4               	goto	u3040
  5184  04F3                     u3041:
  5185  04F3  2C75               	goto	l3574
  5186  04F4                     u3040:
  5187  04F4  2FFA               	goto	l295
  5188                           	
  5189  04F5                     l317:	
  5190                           	line	462
  5191                           ;PR29.c: 460: }
  5192                           ;PR29.c: 461: }
  5193                           ;PR29.c: 462: }
  5194  04F5  2FFA               	goto	l295
  5195                           	line	463
  5196                           	
  5197  04F6                     l296:	
  5198                           	
  5199  04F6                     l3608:	
  5200                           ;PR29.c: 463: else if (data==3)
  5201  04F6  084C               	movf	(mode@data),w
  5202  04F7  3A03               	xorlw	03h
  5203  04F8  1D03               	skipz
  5204  04F9  2CFB               	goto	u3051
  5205  04FA  2CFC               	goto	u3050
  5206  04FB                     u3051:
  5207  04FB  2DA9               	goto	l3650
  5208  04FC                     u3050:
  5209                           	line	465
  5210                           	
  5211  04FC                     l3610:	
  5212                           ;PR29.c: 464: {
  5213                           ;PR29.c: 465: delay(10000);
  5214  04FC  3000               	movlw	0
  5215  04FD  00F3               	movwf	(?_delay+3)
  5216  04FE  3000               	movlw	0
  5217  04FF  00F2               	movwf	(?_delay+2)
  5218  0500  3027               	movlw	027h
  5219  0501  00F1               	movwf	(?_delay+1)
  5220  0502  3010               	movlw	010h
  5221  0503  00F0               	movwf	(?_delay)
  5222                           
  5223  0504  160A  158A  2382   	fcall	_delay
              120A  118A         
  5224                           	line	467
  5225                           ;PR29.c: 467: while(location_enter==0)
  5226  0509  2DA1               	goto	l3648
  5227                           	
  5228  050A                     l321:	
  5229                           	line	469
  5230                           	
  5231  050A                     l3612:	
  5232                           ;PR29.c: 468: {
  5233                           ;PR29.c: 469: lcd_goto(0);
  5234  050A  3000               	movlw	(0)
  5235  050B  160A  158A  22DB   	fcall	_lcd_goto
              120A  118A         
  5236                           	line	470
  5237                           	
  5238  0510                     l3614:	
  5239                           ;PR29.c: 470: send_string("Choose User     ");
  5240  0510  30AC               	movlw	low(STR_26|8000h)
  5241  0511  00F9               	movwf	(?_send_string)
  5242  0512  3090               	movlw	high(STR_26|8000h)
  5243  0513  00FA               	movwf	((?_send_string))+1
  5244  0514  160A  158A  23B2   	fcall	_send_string
              120A  118A         
  5245                           	line	471
  5246                           	
  5247  0519                     l3616:	
  5248                           ;PR29.c: 471: lcd_goto(20);
  5249  0519  3014               	movlw	(014h)
  5250  051A  160A  158A  22DB   	fcall	_lcd_goto
              120A  118A         
  5251                           	line	472
  5252                           ;PR29.c: 472: send_string("User ");
  5253  051F  304D               	movlw	low(STR_27|8000h)
  5254  0520  00F9               	movwf	(?_send_string)
  5255  0521  3092               	movlw	high(STR_27|8000h)
  5256  0522  00FA               	movwf	((?_send_string))+1
  5257  0523  160A  158A  23B2   	fcall	_send_string
              120A  118A         
  5258                           	line	473
  5259                           	
  5260  0528                     l3618:	
  5261                           ;PR29.c: 473: lcd_goto(25);
  5262  0528  3019               	movlw	(019h)
  5263  0529  160A  158A  22DB   	fcall	_lcd_goto
              120A  118A         
  5264                           	line	474
  5265                           	
  5266  052E                     l3620:	
  5267                           ;PR29.c: 474: send_char(0x30 + location);
  5268  052E  1283               	bcf	status, 5	;RP0=0, select bank0
  5269  052F  1303               	bcf	status, 6	;RP1=0, select bank0
  5270  0530  085C               	movf	(_location),w
  5271  0531  3E30               	addlw	030h
  5272  0532  160A  158A  2338   	fcall	_send_char
              120A  118A         
  5273                           	line	475
  5274                           	
  5275  0537                     l3622:	
  5276                           ;PR29.c: 475: if(!RA2)
  5277  0537  1283               	bcf	status, 5	;RP0=0, select bank0
  5278  0538  1303               	bcf	status, 6	;RP1=0, select bank0
  5279  0539  1905               	btfsc	(42/8),(42)&7	;volatile
  5280  053A  2D3C               	goto	u3061
  5281  053B  2D3D               	goto	u3060
  5282  053C                     u3061:
  5283  053C  2D54               	goto	l322
  5284  053D                     u3060:
  5285  053D  2D3F               	goto	l323
  5286                           	line	477
  5287                           	
  5288  053E                     l3624:	
  5289                           ;PR29.c: 476: {
  5290                           ;PR29.c: 477: while(!RA2);
  5291  053E  2D3F               	goto	l323
  5292                           	
  5293  053F                     l324:	
  5294                           	
  5295  053F                     l323:	
  5296  053F  1D05               	btfss	(42/8),(42)&7	;volatile
  5297  0540  2D42               	goto	u3071
  5298  0541  2D43               	goto	u3070
  5299  0542                     u3071:
  5300  0542  2D3F               	goto	l323
  5301  0543                     u3070:
  5302  0543  2D44               	goto	l3626
  5303                           	
  5304  0544                     l325:	
  5305                           	line	478
  5306                           	
  5307  0544                     l3626:	
  5308                           ;PR29.c: 478: if (location<5)
  5309  0544  3005               	movlw	(05h)
  5310  0545  025C               	subwf	(_location),w
  5311  0546  1803               	skipnc
  5312  0547  2D49               	goto	u3081
  5313  0548  2D4A               	goto	u3080
  5314  0549                     u3081:
  5315  0549  2D4F               	goto	l3630
  5316  054A                     u3080:
  5317                           	line	479
  5318                           	
  5319  054A                     l3628:	
  5320                           ;PR29.c: 479: location++;
  5321  054A  3001               	movlw	(01h)
  5322  054B  00CA               	movwf	(??_mode+0)+0
  5323  054C  084A               	movf	(??_mode+0)+0,w
  5324  054D  07DC               	addwf	(_location),f
  5325  054E  2DA1               	goto	l3648
  5326                           	line	480
  5327                           	
  5328  054F                     l326:	
  5329                           	line	481
  5330                           	
  5331  054F                     l3630:	
  5332                           ;PR29.c: 480: else
  5333                           ;PR29.c: 481: location=1;
  5334  054F  01DC               	clrf	(_location)
  5335  0550  1403               	bsf	status,0
  5336  0551  0DDC               	rlf	(_location),f
  5337  0552  2DA1               	goto	l3648
  5338                           	
  5339  0553                     l327:	
  5340                           	line	482
  5341                           ;PR29.c: 482: }
  5342  0553  2DA1               	goto	l3648
  5343                           	line	483
  5344                           	
  5345  0554                     l322:	
  5346                           ;PR29.c: 483: else if(!RA3)
  5347  0554  1985               	btfsc	(43/8),(43)&7	;volatile
  5348  0555  2D57               	goto	u3091
  5349  0556  2D58               	goto	u3090
  5350  0557                     u3091:
  5351  0557  2D6E               	goto	l329
  5352  0558                     u3090:
  5353  0558  2D5A               	goto	l330
  5354                           	line	485
  5355                           	
  5356  0559                     l3632:	
  5357                           ;PR29.c: 484: {
  5358                           ;PR29.c: 485: while(!RA3);
  5359  0559  2D5A               	goto	l330
  5360                           	
  5361  055A                     l331:	
  5362                           	
  5363  055A                     l330:	
  5364  055A  1D85               	btfss	(43/8),(43)&7	;volatile
  5365  055B  2D5D               	goto	u3101
  5366  055C  2D5E               	goto	u3100
  5367  055D                     u3101:
  5368  055D  2D5A               	goto	l330
  5369  055E                     u3100:
  5370  055E  2D5F               	goto	l3634
  5371                           	
  5372  055F                     l332:	
  5373                           	line	486
  5374                           	
  5375  055F                     l3634:	
  5376                           ;PR29.c: 486: if (location>1)
  5377  055F  3002               	movlw	(02h)
  5378  0560  025C               	subwf	(_location),w
  5379  0561  1C03               	skipc
  5380  0562  2D64               	goto	u3111
  5381  0563  2D65               	goto	u3110
  5382  0564                     u3111:
  5383  0564  2D68               	goto	l3638
  5384  0565                     u3110:
  5385                           	line	487
  5386                           	
  5387  0565                     l3636:	
  5388                           ;PR29.c: 487: location--;
  5389  0565  3001               	movlw	low(01h)
  5390  0566  02DC               	subwf	(_location),f
  5391  0567  2DA1               	goto	l3648
  5392                           	line	488
  5393                           	
  5394  0568                     l333:	
  5395                           	line	489
  5396                           	
  5397  0568                     l3638:	
  5398                           ;PR29.c: 488: else
  5399                           ;PR29.c: 489: location=5;
  5400  0568  3005               	movlw	(05h)
  5401  0569  00CA               	movwf	(??_mode+0)+0
  5402  056A  084A               	movf	(??_mode+0)+0,w
  5403  056B  00DC               	movwf	(_location)
  5404  056C  2DA1               	goto	l3648
  5405                           	
  5406  056D                     l334:	
  5407                           	line	490
  5408                           ;PR29.c: 490: }
  5409  056D  2DA1               	goto	l3648
  5410                           	line	491
  5411                           	
  5412  056E                     l329:	
  5413                           ;PR29.c: 491: else if(!RA4)
  5414  056E  1A05               	btfsc	(44/8),(44)&7	;volatile
  5415  056F  2D71               	goto	u3121
  5416  0570  2D72               	goto	u3120
  5417  0571                     u3121:
  5418  0571  2DA1               	goto	l3648
  5419  0572                     u3120:
  5420  0572  2D74               	goto	l337
  5421                           	line	493
  5422                           	
  5423  0573                     l3640:	
  5424                           ;PR29.c: 492: {
  5425                           ;PR29.c: 493: while(!RA4);
  5426  0573  2D74               	goto	l337
  5427                           	
  5428  0574                     l338:	
  5429                           	
  5430  0574                     l337:	
  5431  0574  1E05               	btfss	(44/8),(44)&7	;volatile
  5432  0575  2D77               	goto	u3131
  5433  0576  2D78               	goto	u3130
  5434  0577                     u3131:
  5435  0577  2D74               	goto	l337
  5436  0578                     u3130:
  5437  0578  2D79               	goto	l3642
  5438                           	
  5439  0579                     l339:	
  5440                           	line	494
  5441                           	
  5442  0579                     l3642:	
  5443                           ;PR29.c: 494: send_cmd(0x04,0x00,location,0x03);
  5444  0579  01F1               	clrf	(?_send_cmd)
  5445  057A  085C               	movf	(_location),w
  5446  057B  00CA               	movwf	(??_mode+0)+0
  5447  057C  084A               	movf	(??_mode+0)+0,w
  5448  057D  00F2               	movwf	0+(?_send_cmd)+01h
  5449  057E  3003               	movlw	(03h)
  5450  057F  00CB               	movwf	(??_mode+1)+0
  5451  0580  084B               	movf	(??_mode+1)+0,w
  5452  0581  00F3               	movwf	0+(?_send_cmd)+02h
  5453  0582  3004               	movlw	(04h)
  5454  0583  160A  158A  241F   	fcall	_send_cmd
              120A  118A         
  5455                           	line	495
  5456                           ;PR29.c: 495: delay(10);
  5457  0588  3000               	movlw	0
  5458  0589  00F3               	movwf	(?_delay+3)
  5459  058A  3000               	movlw	0
  5460  058B  00F2               	movwf	(?_delay+2)
  5461  058C  3000               	movlw	0
  5462  058D  00F1               	movwf	(?_delay+1)
  5463  058E  300A               	movlw	0Ah
  5464  058F  00F0               	movwf	(?_delay)
  5465                           
  5466  0590  160A  158A  2382   	fcall	_delay
              120A  118A         
  5467                           	line	496
  5468                           	
  5469  0595                     l3644:	
  5470                           ;PR29.c: 496: receive_reply();
  5471  0595  160A  158A  2497   	fcall	_receive_reply
              120A  118A         
  5472                           	line	497
  5473                           	
  5474  059A                     l3646:	
  5475                           ;PR29.c: 497: location_enter=1;
  5476  059A  1283               	bcf	status, 5	;RP0=0, select bank0
  5477  059B  1303               	bcf	status, 6	;RP1=0, select bank0
  5478  059C  16D9               	bsf	(_location_enter/8),(_location_enter)&7
  5479  059D  2DA1               	goto	l3648
  5480                           	line	498
  5481                           	
  5482  059E                     l336:	
  5483  059E  2DA1               	goto	l3648
  5484                           	line	499
  5485                           	
  5486  059F                     l335:	
  5487  059F  2DA1               	goto	l3648
  5488                           	
  5489  05A0                     l328:	
  5490  05A0  2DA1               	goto	l3648
  5491                           	
  5492  05A1                     l320:	
  5493                           	line	467
  5494                           	
  5495  05A1                     l3648:	
  5496  05A1  1283               	bcf	status, 5	;RP0=0, select bank0
  5497  05A2  1303               	bcf	status, 6	;RP1=0, select bank0
  5498  05A3  1ED9               	btfss	(_location_enter/8),(_location_enter)&7
  5499  05A4  2DA6               	goto	u3141
  5500  05A5  2DA7               	goto	u3140
  5501  05A6                     u3141:
  5502  05A6  2D0A               	goto	l3612
  5503  05A7                     u3140:
  5504  05A7  2FFA               	goto	l295
  5505                           	
  5506  05A8                     l340:	
  5507                           	line	500
  5508                           ;PR29.c: 498: }
  5509                           ;PR29.c: 499: }
  5510                           ;PR29.c: 500: }
  5511  05A8  2FFA               	goto	l295
  5512                           	line	501
  5513                           	
  5514  05A9                     l319:	
  5515                           	
  5516  05A9                     l3650:	
  5517                           ;PR29.c: 501: else if (data==4)
  5518  05A9  084C               	movf	(mode@data),w
  5519  05AA  3A04               	xorlw	04h
  5520  05AB  1D03               	skipz
  5521  05AC  2DAE               	goto	u3151
  5522  05AD  2DAF               	goto	u3150
  5523  05AE                     u3151:
  5524  05AE  2E2D               	goto	l3674
  5525  05AF                     u3150:
  5526                           	line	503
  5527                           	
  5528  05AF                     l3652:	
  5529                           ;PR29.c: 502: {
  5530                           ;PR29.c: 503: send_cmd(0x05,0x00,location,0x03);
  5531  05AF  01F1               	clrf	(?_send_cmd)
  5532  05B0  085C               	movf	(_location),w
  5533  05B1  00CA               	movwf	(??_mode+0)+0
  5534  05B2  084A               	movf	(??_mode+0)+0,w
  5535  05B3  00F2               	movwf	0+(?_send_cmd)+01h
  5536  05B4  3003               	movlw	(03h)
  5537  05B5  00CB               	movwf	(??_mode+1)+0
  5538  05B6  084B               	movf	(??_mode+1)+0,w
  5539  05B7  00F3               	movwf	0+(?_send_cmd)+02h
  5540  05B8  3005               	movlw	(05h)
  5541  05B9  160A  158A  241F   	fcall	_send_cmd
              120A  118A         
  5542                           	line	504
  5543                           ;PR29.c: 504: delay(10);
  5544  05BE  3000               	movlw	0
  5545  05BF  00F3               	movwf	(?_delay+3)
  5546  05C0  3000               	movlw	0
  5547  05C1  00F2               	movwf	(?_delay+2)
  5548  05C2  3000               	movlw	0
  5549  05C3  00F1               	movwf	(?_delay+1)
  5550  05C4  300A               	movlw	0Ah
  5551  05C5  00F0               	movwf	(?_delay)
  5552                           
  5553  05C6  160A  158A  2382   	fcall	_delay
              120A  118A         
  5554                           	line	505
  5555                           	
  5556  05CB                     l3654:	
  5557                           ;PR29.c: 505: receive_reply();
  5558  05CB  160A  158A  2497   	fcall	_receive_reply
              120A  118A         
  5559                           	line	506
  5560                           	
  5561  05D0                     l3656:	
  5562                           ;PR29.c: 506: if(error!=1)
  5563  05D0  1283               	bcf	status, 5	;RP0=0, select bank0
  5564  05D1  1303               	bcf	status, 6	;RP1=0, select bank0
  5565  05D2  19D9               	btfsc	(_error/8),(_error)&7
  5566  05D3  2DD5               	goto	u3161
  5567  05D4  2DD6               	goto	u3160
  5568  05D5                     u3161:
  5569  05D5  2FFA               	goto	l295
  5570  05D6                     u3160:
  5571  05D6  2DD7               	goto	l3658
  5572                           	line	509
  5573                           ;PR29.c: 507: {
  5574                           ;PR29.c: 509: do{
  5575                           	
  5576  05D7                     l344:	
  5577                           	line	510
  5578                           	
  5579  05D7                     l3658:	
  5580                           ;PR29.c: 510: lcd_goto(0);
  5581  05D7  3000               	movlw	(0)
  5582  05D8  160A  158A  22DB   	fcall	_lcd_goto
              120A  118A         
  5583                           	line	511
  5584                           	
  5585  05DD                     l3660:	
  5586                           ;PR29.c: 511: send_string("New Admin Needed");
  5587  05DD  30DE               	movlw	low(STR_28|8000h)
  5588  05DE  00F9               	movwf	(?_send_string)
  5589  05DF  3091               	movlw	high(STR_28|8000h)
  5590  05E0  00FA               	movwf	((?_send_string))+1
  5591  05E1  160A  158A  23B2   	fcall	_send_string
              120A  118A         
  5592                           	line	512
  5593                           	
  5594  05E6                     l3662:	
  5595                           ;PR29.c: 512: delay(200000);
  5596  05E6  3000               	movlw	0
  5597  05E7  00F3               	movwf	(?_delay+3)
  5598  05E8  3003               	movlw	03h
  5599  05E9  00F2               	movwf	(?_delay+2)
  5600  05EA  300D               	movlw	0Dh
  5601  05EB  00F1               	movwf	(?_delay+1)
  5602  05EC  3040               	movlw	040h
  5603  05ED  00F0               	movwf	(?_delay)
  5604                           
  5605  05EE  160A  158A  2382   	fcall	_delay
              120A  118A         
  5606                           	line	513
  5607                           	
  5608  05F3                     l3664:	
  5609                           ;PR29.c: 513: lcd_goto(0);
  5610  05F3  3000               	movlw	(0)
  5611  05F4  160A  158A  22DB   	fcall	_lcd_goto
              120A  118A         
  5612                           	line	514
  5613                           	
  5614  05F9                     l3666:	
  5615                           ;PR29.c: 514: send_string("New Admin       ");
  5616  05F9  3068               	movlw	low(STR_29|8000h)
  5617  05FA  00F9               	movwf	(?_send_string)
  5618  05FB  3090               	movlw	high(STR_29|8000h)
  5619  05FC  00FA               	movwf	((?_send_string))+1
  5620  05FD  160A  158A  23B2   	fcall	_send_string
              120A  118A         
  5621                           	line	515
  5622                           ;PR29.c: 515: lcd_goto(20);
  5623  0602  3014               	movlw	(014h)
  5624  0603  160A  158A  22DB   	fcall	_lcd_goto
              120A  118A         
  5625                           	line	516
  5626                           	
  5627  0608                     l3668:	
  5628                           ;PR29.c: 516: send_string("Standby         ");
  5629  0608  3057               	movlw	low(STR_30|8000h)
  5630  0609  00F9               	movwf	(?_send_string)
  5631  060A  3090               	movlw	high(STR_30|8000h)
  5632  060B  00FA               	movwf	((?_send_string))+1
  5633  060C  160A  158A  23B2   	fcall	_send_string
              120A  118A         
  5634                           	line	517
  5635                           	
  5636  0611                     l3670:	
  5637                           ;PR29.c: 517: delay(200000);
  5638  0611  3000               	movlw	0
  5639  0612  00F3               	movwf	(?_delay+3)
  5640  0613  3003               	movlw	03h
  5641  0614  00F2               	movwf	(?_delay+2)
  5642  0615  300D               	movlw	0Dh
  5643  0616  00F1               	movwf	(?_delay+1)
  5644  0617  3040               	movlw	040h
  5645  0618  00F0               	movwf	(?_delay)
  5646                           
  5647  0619  160A  158A  2382   	fcall	_delay
              120A  118A         
  5648                           	line	518
  5649                           ;PR29.c: 518: AddNew(0xFF);
  5650  061E  30FF               	movlw	(0FFh)
  5651  061F  120A  118A  200F   	fcall	_AddNew
              120A  118A         
  5652                           	line	519
  5653                           	
  5654  0624                     l3672:	
  5655                           ;PR29.c: 519: }while(error==1) ;
  5656  0624  1283               	bcf	status, 5	;RP0=0, select bank0
  5657  0625  1303               	bcf	status, 6	;RP1=0, select bank0
  5658  0626  19D9               	btfsc	(_error/8),(_error)&7
  5659  0627  2E29               	goto	u3171
  5660  0628  2E2A               	goto	u3170
  5661  0629                     u3171:
  5662  0629  2DD7               	goto	l3658
  5663  062A                     u3170:
  5664  062A  2FFA               	goto	l295
  5665                           	
  5666  062B                     l345:	
  5667  062B  2FFA               	goto	l295
  5668                           	line	520
  5669                           	
  5670  062C                     l343:	
  5671                           	line	523
  5672                           ;PR29.c: 520: }
  5673                           ;PR29.c: 523: }
  5674  062C  2FFA               	goto	l295
  5675                           	line	525
  5676                           	
  5677  062D                     l342:	
  5678                           	
  5679  062D                     l3674:	
  5680                           ;PR29.c: 525: else if(data==5)
  5681  062D  084C               	movf	(mode@data),w
  5682  062E  3A05               	xorlw	05h
  5683  062F  1D03               	skipz
  5684  0630  2E32               	goto	u3181
  5685  0631  2E33               	goto	u3180
  5686  0632                     u3181:
  5687  0632  2ED2               	goto	l3708
  5688  0633                     u3180:
  5689                           	line	527
  5690                           	
  5691  0633                     l3676:	
  5692                           ;PR29.c: 526: {
  5693                           ;PR29.c: 527: lcd_goto(0);
  5694  0633  3000               	movlw	(0)
  5695  0634  160A  158A  22DB   	fcall	_lcd_goto
              120A  118A         
  5696                           	line	528
  5697                           	
  5698  0639                     l3678:	
  5699                           ;PR29.c: 528: send_string("Verification of ");
  5700  0639  3078               	movlw	low(STR_31|8000h)
  5701  063A  00F9               	movwf	(?_send_string)
  5702  063B  3091               	movlw	high(STR_31|8000h)
  5703  063C  00FA               	movwf	((?_send_string))+1
  5704  063D  160A  158A  23B2   	fcall	_send_string
              120A  118A         
  5705                           	line	529
  5706                           	
  5707  0642                     l3680:	
  5708                           ;PR29.c: 529: lcd_goto(20);
  5709  0642  3014               	movlw	(014h)
  5710  0643  160A  158A  22DB   	fcall	_lcd_goto
              120A  118A         
  5711                           	line	530
  5712                           ;PR29.c: 530: send_string("Formal Admin    ") ;
  5713  0648  30DF               	movlw	low(STR_32|8000h)
  5714  0649  00F9               	movwf	(?_send_string)
  5715  064A  3090               	movlw	high(STR_32|8000h)
  5716  064B  00FA               	movwf	((?_send_string))+1
  5717  064C  160A  158A  23B2   	fcall	_send_string
              120A  118A         
  5718                           	line	531
  5719                           	
  5720  0651                     l3682:	
  5721                           ;PR29.c: 531: delay(200000);
  5722  0651  3000               	movlw	0
  5723  0652  00F3               	movwf	(?_delay+3)
  5724  0653  3003               	movlw	03h
  5725  0654  00F2               	movwf	(?_delay+2)
  5726  0655  300D               	movlw	0Dh
  5727  0656  00F1               	movwf	(?_delay+1)
  5728  0657  3040               	movlw	040h
  5729  0658  00F0               	movwf	(?_delay)
  5730                           
  5731  0659  160A  158A  2382   	fcall	_delay
              120A  118A         
  5732                           	line	532
  5733                           	
  5734  065E                     l3684:	
  5735                           ;PR29.c: 532: CheckAdmin();
  5736  065E  160A  158A  2458   	fcall	_CheckAdmin
              120A  118A         
  5737                           	line	533
  5738                           	
  5739  0663                     l3686:	
  5740                           ;PR29.c: 533: if(error==0)
  5741  0663  1283               	bcf	status, 5	;RP0=0, select bank0
  5742  0664  1303               	bcf	status, 6	;RP1=0, select bank0
  5743  0665  19D9               	btfsc	(_error/8),(_error)&7
  5744  0666  2E68               	goto	u3191
  5745  0667  2E69               	goto	u3190
  5746  0668                     u3191:
  5747  0668  2FFA               	goto	l295
  5748  0669                     u3190:
  5749                           	line	535
  5750                           	
  5751  0669                     l3688:	
  5752                           ;PR29.c: 534: {
  5753                           ;PR29.c: 535: lcd_goto(0);
  5754  0669  3000               	movlw	(0)
  5755  066A  160A  158A  22DB   	fcall	_lcd_goto
              120A  118A         
  5756                           	line	536
  5757                           	
  5758  066F                     l3690:	
  5759                           ;PR29.c: 536: send_string("Deleting...");
  5760  066F  3053               	movlw	low(STR_33|8000h)
  5761  0670  00F9               	movwf	(?_send_string)
  5762  0671  3092               	movlw	high(STR_33|8000h)
  5763  0672  00FA               	movwf	((?_send_string))+1
  5764  0673  160A  158A  23B2   	fcall	_send_string
              120A  118A         
  5765                           	line	537
  5766                           	
  5767  0678                     l3692:	
  5768                           ;PR29.c: 537: delay(50000);
  5769  0678  3000               	movlw	0
  5770  0679  00F3               	movwf	(?_delay+3)
  5771  067A  3000               	movlw	0
  5772  067B  00F2               	movwf	(?_delay+2)
  5773  067C  30C3               	movlw	0C3h
  5774  067D  00F1               	movwf	(?_delay+1)
  5775  067E  3050               	movlw	050h
  5776  067F  00F0               	movwf	(?_delay)
  5777                           
  5778  0680  160A  158A  2382   	fcall	_delay
              120A  118A         
  5779                           	line	538
  5780                           	
  5781  0685                     l3694:	
  5782                           ;PR29.c: 538: send_cmd(0x04,0x00,0xFF,0x00);
  5783  0685  01F1               	clrf	(?_send_cmd)
  5784  0686  30FF               	movlw	(0FFh)
  5785  0687  1283               	bcf	status, 5	;RP0=0, select bank0
  5786  0688  1303               	bcf	status, 6	;RP1=0, select bank0
  5787  0689  00CA               	movwf	(??_mode+0)+0
  5788  068A  084A               	movf	(??_mode+0)+0,w
  5789  068B  00F2               	movwf	0+(?_send_cmd)+01h
  5790  068C  01F3               	clrf	0+(?_send_cmd)+02h
  5791  068D  3004               	movlw	(04h)
  5792  068E  160A  158A  241F   	fcall	_send_cmd
              120A  118A         
  5793                           	line	539
  5794                           	
  5795  0693                     l3696:	
  5796                           ;PR29.c: 539: receive_reply();
  5797  0693  160A  158A  2497   	fcall	_receive_reply
              120A  118A         
  5798                           	line	540
  5799                           ;PR29.c: 540: do{
  5800                           	
  5801  0698                     l349:	
  5802                           	line	541
  5803                           ;PR29.c: 541: lcd_goto(0);
  5804  0698  3000               	movlw	(0)
  5805  0699  160A  158A  22DB   	fcall	_lcd_goto
              120A  118A         
  5806                           	line	542
  5807                           	
  5808  069E                     l3698:	
  5809                           ;PR29.c: 542: send_string("New Admin       ");
  5810  069E  3068               	movlw	low(STR_34|8000h)
  5811  069F  00F9               	movwf	(?_send_string)
  5812  06A0  3090               	movlw	high(STR_34|8000h)
  5813  06A1  00FA               	movwf	((?_send_string))+1
  5814  06A2  160A  158A  23B2   	fcall	_send_string
              120A  118A         
  5815                           	line	543
  5816                           	
  5817  06A7                     l3700:	
  5818                           ;PR29.c: 543: lcd_goto(20);
  5819  06A7  3014               	movlw	(014h)
  5820  06A8  160A  158A  22DB   	fcall	_lcd_goto
              120A  118A         
  5821                           	line	544
  5822                           ;PR29.c: 544: send_string("Standby         ");
  5823  06AD  3057               	movlw	low(STR_35|8000h)
  5824  06AE  00F9               	movwf	(?_send_string)
  5825  06AF  3090               	movlw	high(STR_35|8000h)
  5826  06B0  00FA               	movwf	((?_send_string))+1
  5827  06B1  160A  158A  23B2   	fcall	_send_string
              120A  118A         
  5828                           	line	545
  5829                           	
  5830  06B6                     l3702:	
  5831                           ;PR29.c: 545: delay(200000);
  5832  06B6  3000               	movlw	0
  5833  06B7  00F3               	movwf	(?_delay+3)
  5834  06B8  3003               	movlw	03h
  5835  06B9  00F2               	movwf	(?_delay+2)
  5836  06BA  300D               	movlw	0Dh
  5837  06BB  00F1               	movwf	(?_delay+1)
  5838  06BC  3040               	movlw	040h
  5839  06BD  00F0               	movwf	(?_delay)
  5840                           
  5841  06BE  160A  158A  2382   	fcall	_delay
              120A  118A         
  5842                           	line	546
  5843                           	
  5844  06C3                     l3704:	
  5845                           ;PR29.c: 546: AddNew(0xFF);
  5846  06C3  30FF               	movlw	(0FFh)
  5847  06C4  120A  118A  200F   	fcall	_AddNew
              120A  118A         
  5848                           	line	547
  5849                           	
  5850  06C9                     l3706:	
  5851                           ;PR29.c: 547: }while(error==1) ;
  5852  06C9  1283               	bcf	status, 5	;RP0=0, select bank0
  5853  06CA  1303               	bcf	status, 6	;RP1=0, select bank0
  5854  06CB  19D9               	btfsc	(_error/8),(_error)&7
  5855  06CC  2ECE               	goto	u3201
  5856  06CD  2ECF               	goto	u3200
  5857  06CE                     u3201:
  5858  06CE  2E98               	goto	l349
  5859  06CF                     u3200:
  5860  06CF  2FFA               	goto	l295
  5861                           	
  5862  06D0                     l350:	
  5863  06D0  2FFA               	goto	l295
  5864                           	line	548
  5865                           	
  5866  06D1                     l348:	
  5867                           	line	549
  5868                           ;PR29.c: 548: }
  5869                           ;PR29.c: 549: }
  5870  06D1  2FFA               	goto	l295
  5871                           	line	550
  5872                           	
  5873  06D2                     l347:	
  5874                           	
  5875  06D2                     l3708:	
  5876                           ;PR29.c: 550: else if(data==6)
  5877  06D2  084C               	movf	(mode@data),w
  5878  06D3  3A06               	xorlw	06h
  5879  06D4  1D03               	skipz
  5880  06D5  2ED7               	goto	u3211
  5881  06D6  2ED8               	goto	u3210
  5882  06D7                     u3211:
  5883  06D7  2EDE               	goto	l3712
  5884  06D8                     u3210:
  5885                           	line	552
  5886                           	
  5887  06D8                     l3710:	
  5888                           ;PR29.c: 551: {
  5889                           ;PR29.c: 552: view_attendance();
  5890  06D8  160A  118A  2368   	fcall	_view_attendance
              120A  118A         
  5891                           	line	553
  5892                           ;PR29.c: 553: }
  5893  06DD  2FFA               	goto	l295
  5894                           	line	554
  5895                           	
  5896  06DE                     l352:	
  5897                           	
  5898  06DE                     l3712:	
  5899                           ;PR29.c: 554: else if(data==7)
  5900  06DE  1283               	bcf	status, 5	;RP0=0, select bank0
  5901  06DF  1303               	bcf	status, 6	;RP1=0, select bank0
  5902  06E0  084C               	movf	(mode@data),w
  5903  06E1  3A07               	xorlw	07h
  5904  06E2  1D03               	skipz
  5905  06E3  2EE5               	goto	u3221
  5906  06E4  2EE6               	goto	u3220
  5907  06E5                     u3221:
  5908  06E5  2F1B               	goto	l3726
  5909  06E6                     u3220:
  5910                           	line	556
  5911                           	
  5912  06E6                     l3714:	
  5913                           ;PR29.c: 555: {
  5914                           ;PR29.c: 556: RA1=1;
  5915  06E6  1485               	bsf	(41/8),(41)&7	;volatile
  5916                           	line	557
  5917                           	
  5918  06E7                     l3716:	
  5919                           ;PR29.c: 557: clear_attendance();
  5920  06E7  120A  118A  20D3   	fcall	_clear_attendance
              120A  118A         
  5921                           	line	558
  5922                           ;PR29.c: 558: lcd_goto(0);
  5923  06EC  3000               	movlw	(0)
  5924  06ED  160A  158A  22DB   	fcall	_lcd_goto
              120A  118A         
  5925                           	line	559
  5926                           	
  5927  06F2                     l3718:	
  5928                           ;PR29.c: 559: send_string("Attendance      ");
  5929  06F2  3079               	movlw	low(STR_36|8000h)
  5930  06F3  00F9               	movwf	(?_send_string)
  5931  06F4  3090               	movlw	high(STR_36|8000h)
  5932  06F5  00FA               	movwf	((?_send_string))+1
  5933  06F6  160A  158A  23B2   	fcall	_send_string
              120A  118A         
  5934                           	line	560
  5935                           	
  5936  06FB                     l3720:	
  5937                           ;PR29.c: 560: lcd_goto(20);
  5938  06FB  3014               	movlw	(014h)
  5939  06FC  160A  158A  22DB   	fcall	_lcd_goto
              120A  118A         
  5940                           	line	561
  5941                           ;PR29.c: 561: send_string("Cleared         ");
  5942  0701  3035               	movlw	low(STR_37|8000h)
  5943  0702  00F9               	movwf	(?_send_string)
  5944  0703  3090               	movlw	high(STR_37|8000h)
  5945  0704  00FA               	movwf	((?_send_string))+1
  5946  0705  160A  158A  23B2   	fcall	_send_string
              120A  118A         
  5947                           	line	562
  5948                           	
  5949  070A                     l3722:	
  5950                           ;PR29.c: 562: delay(200000);
  5951  070A  3000               	movlw	0
  5952  070B  00F3               	movwf	(?_delay+3)
  5953  070C  3003               	movlw	03h
  5954  070D  00F2               	movwf	(?_delay+2)
  5955  070E  300D               	movlw	0Dh
  5956  070F  00F1               	movwf	(?_delay+1)
  5957  0710  3040               	movlw	040h
  5958  0711  00F0               	movwf	(?_delay)
  5959                           
  5960  0712  160A  158A  2382   	fcall	_delay
              120A  118A         
  5961                           	line	563
  5962                           	
  5963  0717                     l3724:	
  5964                           ;PR29.c: 563: RA1=0;
  5965  0717  1283               	bcf	status, 5	;RP0=0, select bank0
  5966  0718  1303               	bcf	status, 6	;RP1=0, select bank0
  5967  0719  1085               	bcf	(41/8),(41)&7	;volatile
  5968                           	line	564
  5969                           ;PR29.c: 564: }
  5970  071A  2FFA               	goto	l295
  5971                           	line	565
  5972                           	
  5973  071B                     l354:	
  5974                           	
  5975  071B                     l3726:	
  5976                           ;PR29.c: 565: else if(data==8)
  5977  071B  084C               	movf	(mode@data),w
  5978  071C  3A08               	xorlw	08h
  5979  071D  1D03               	skipz
  5980  071E  2F20               	goto	u3231
  5981  071F  2F21               	goto	u3230
  5982  0720                     u3231:
  5983  0720  2FFA               	goto	l295
  5984  0721                     u3230:
  5985  0721  2FEE               	goto	l3784
  5986                           	line	568
  5987                           	
  5988  0722                     l3728:	
  5989                           ;PR29.c: 566: {
  5990                           ;PR29.c: 568: while(export_select==0)
  5991  0722  2FEE               	goto	l3784
  5992                           	
  5993  0723                     l358:	
  5994                           	line	570
  5995                           	
  5996  0723                     l3730:	
  5997                           ;PR29.c: 569: {
  5998                           ;PR29.c: 570: lcd_goto(0);
  5999  0723  3000               	movlw	(0)
  6000  0724  160A  158A  22DB   	fcall	_lcd_goto
              120A  118A         
  6001                           	line	571
  6002                           	
  6003  0729                     l3732:	
  6004                           ;PR29.c: 571: send_string("1. Export to GUI");
  6005  0729  30BC               	movlw	low(STR_38|8000h)
  6006  072A  00F9               	movwf	(?_send_string)
  6007  072B  3091               	movlw	high(STR_38|8000h)
  6008  072C  00FA               	movwf	((?_send_string))+1
  6009  072D  160A  158A  23B2   	fcall	_send_string
              120A  118A         
  6010                           	line	572
  6011                           	
  6012  0732                     l3734:	
  6013                           ;PR29.c: 572: lcd_goto(20);
  6014  0732  3014               	movlw	(014h)
  6015  0733  160A  158A  22DB   	fcall	_lcd_goto
              120A  118A         
  6016                           	line	573
  6017                           ;PR29.c: 573: send_string("2. Export to HT ");
  6018  0738  3045               	movlw	low(STR_39|8000h)
  6019  0739  00F9               	movwf	(?_send_string)
  6020  073A  3091               	movlw	high(STR_39|8000h)
  6021  073B  00FA               	movwf	((?_send_string))+1
  6022  073C  160A  158A  23B2   	fcall	_send_string
              120A  118A         
  6023                           	line	574
  6024                           	
  6025  0741                     l3736:	
  6026                           ;PR29.c: 574: if(!RA2)
  6027  0741  1283               	bcf	status, 5	;RP0=0, select bank0
  6028  0742  1303               	bcf	status, 6	;RP1=0, select bank0
  6029  0743  1905               	btfsc	(42/8),(42)&7	;volatile
  6030  0744  2F46               	goto	u3241
  6031  0745  2F47               	goto	u3240
  6032  0746                     u3241:
  6033  0746  2F98               	goto	l3760
  6034  0747                     u3240:
  6035  0747  2F49               	goto	l360
  6036                           	line	576
  6037                           	
  6038  0748                     l3738:	
  6039                           ;PR29.c: 575: {
  6040                           ;PR29.c: 576: while(!RA2);
  6041  0748  2F49               	goto	l360
  6042                           	
  6043  0749                     l361:	
  6044                           	
  6045  0749                     l360:	
  6046  0749  1D05               	btfss	(42/8),(42)&7	;volatile
  6047  074A  2F4C               	goto	u3251
  6048  074B  2F4D               	goto	u3250
  6049  074C                     u3251:
  6050  074C  2F49               	goto	l360
  6051  074D                     u3250:
  6052  074D  2F4E               	goto	l3740
  6053                           	
  6054  074E                     l362:	
  6055                           	line	577
  6056                           	
  6057  074E                     l3740:	
  6058                           ;PR29.c: 577: lcd_clr();
  6059  074E  160A  158A  229C   	fcall	_lcd_clr
              120A  118A         
  6060                           	line	578
  6061                           ;PR29.c: 578: lcd_goto(0);
  6062  0753  3000               	movlw	(0)
  6063  0754  160A  158A  22DB   	fcall	_lcd_goto
              120A  118A         
  6064                           	line	579
  6065                           	
  6066  0759                     l3742:	
  6067                           ;PR29.c: 579: send_string("Uploading...    ");
  6068  0759  30BD               	movlw	low(STR_40|8000h)
  6069  075A  00F9               	movwf	(?_send_string)
  6070  075B  3090               	movlw	high(STR_40|8000h)
  6071  075C  00FA               	movwf	((?_send_string))+1
  6072  075D  160A  158A  23B2   	fcall	_send_string
              120A  118A         
  6073                           	line	580
  6074                           	
  6075  0762                     l3744:	
  6076                           ;PR29.c: 580: RA0=1;
  6077  0762  1283               	bcf	status, 5	;RP0=0, select bank0
  6078  0763  1303               	bcf	status, 6	;RP1=0, select bank0
  6079  0764  1405               	bsf	(40/8),(40)&7	;volatile
  6080                           	line	581
  6081                           	
  6082  0765                     l3746:	
  6083                           ;PR29.c: 581: delay(150000);
  6084  0765  3000               	movlw	0
  6085  0766  00F3               	movwf	(?_delay+3)
  6086  0767  3002               	movlw	02h
  6087  0768  00F2               	movwf	(?_delay+2)
  6088  0769  3049               	movlw	049h
  6089  076A  00F1               	movwf	(?_delay+1)
  6090  076B  30F0               	movlw	0F0h
  6091  076C  00F0               	movwf	(?_delay)
  6092                           
  6093  076D  160A  158A  2382   	fcall	_delay
              120A  118A         
  6094                           	line	582
  6095                           	
  6096  0772                     l3748:	
  6097                           ;PR29.c: 582: upload_GUI();
  6098  0772  160A  118A  25AF   	fcall	_upload_GUI
              120A  118A         
  6099                           	line	583
  6100                           	
  6101  0777                     l3750:	
  6102                           ;PR29.c: 583: lcd_goto(20);
  6103  0777  3014               	movlw	(014h)
  6104  0778  160A  158A  22DB   	fcall	_lcd_goto
              120A  118A         
  6105                           	line	584
  6106                           	
  6107  077D                     l3752:	
  6108                           ;PR29.c: 584: send_string("Done            ");
  6109  077D  3013               	movlw	low(STR_41|8000h)
  6110  077E  00F9               	movwf	(?_send_string)
  6111  077F  3090               	movlw	high(STR_41|8000h)
  6112  0780  00FA               	movwf	((?_send_string))+1
  6113  0781  160A  158A  23B2   	fcall	_send_string
              120A  118A         
  6114                           	line	585
  6115                           	
  6116  0786                     l3754:	
  6117                           ;PR29.c: 585: delay(100000);
  6118  0786  3000               	movlw	0
  6119  0787  00F3               	movwf	(?_delay+3)
  6120  0788  3001               	movlw	01h
  6121  0789  00F2               	movwf	(?_delay+2)
  6122  078A  3086               	movlw	086h
  6123  078B  00F1               	movwf	(?_delay+1)
  6124  078C  30A0               	movlw	0A0h
  6125  078D  00F0               	movwf	(?_delay)
  6126                           
  6127  078E  160A  158A  2382   	fcall	_delay
              120A  118A         
  6128                           	line	586
  6129                           	
  6130  0793                     l3756:	
  6131                           ;PR29.c: 586: RA0=0;
  6132  0793  1283               	bcf	status, 5	;RP0=0, select bank0
  6133  0794  1303               	bcf	status, 6	;RP1=0, select bank0
  6134  0795  1005               	bcf	(40/8),(40)&7	;volatile
  6135                           	line	587
  6136                           	
  6137  0796                     l3758:	
  6138                           ;PR29.c: 587: export_select=1;
  6139  0796  1659               	bsf	(_export_select/8),(_export_select)&7
  6140  0797  2F98               	goto	l3760
  6141                           	line	589
  6142                           	
  6143  0798                     l359:	
  6144                           	line	590
  6145                           	
  6146  0798                     l3760:	
  6147                           ;PR29.c: 589: }
  6148                           ;PR29.c: 590: if(!RA3)
  6149  0798  1985               	btfsc	(43/8),(43)&7	;volatile
  6150  0799  2F9B               	goto	u3261
  6151  079A  2F9C               	goto	u3260
  6152  079B                     u3261:
  6153  079B  2FEE               	goto	l3784
  6154  079C                     u3260:
  6155  079C  2F9E               	goto	l364
  6156                           	line	592
  6157                           	
  6158  079D                     l3762:	
  6159                           ;PR29.c: 591: {
  6160                           ;PR29.c: 592: while(!RA3);
  6161  079D  2F9E               	goto	l364
  6162                           	
  6163  079E                     l365:	
  6164                           	
  6165  079E                     l364:	
  6166  079E  1D85               	btfss	(43/8),(43)&7	;volatile
  6167  079F  2FA1               	goto	u3271
  6168  07A0  2FA2               	goto	u3270
  6169  07A1                     u3271:
  6170  07A1  2F9E               	goto	l364
  6171  07A2                     u3270:
  6172  07A2  2FA3               	goto	l3764
  6173                           	
  6174  07A3                     l366:	
  6175                           	line	593
  6176                           	
  6177  07A3                     l3764:	
  6178                           ;PR29.c: 593: lcd_clr();
  6179  07A3  160A  158A  229C   	fcall	_lcd_clr
              120A  118A         
  6180                           	line	594
  6181                           ;PR29.c: 594: lcd_goto(0);
  6182  07A8  3000               	movlw	(0)
  6183  07A9  160A  158A  22DB   	fcall	_lcd_goto
              120A  118A         
  6184                           	line	595
  6185                           	
  6186  07AE                     l3766:	
  6187                           ;PR29.c: 595: send_string("Uploading...    ");
  6188  07AE  30BD               	movlw	low(STR_42|8000h)
  6189  07AF  00F9               	movwf	(?_send_string)
  6190  07B0  3090               	movlw	high(STR_42|8000h)
  6191  07B1  00FA               	movwf	((?_send_string))+1
  6192  07B2  160A  158A  23B2   	fcall	_send_string
              120A  118A         
  6193                           	line	596
  6194                           	
  6195  07B7                     l3768:	
  6196                           ;PR29.c: 596: RA0=1;
  6197  07B7  1283               	bcf	status, 5	;RP0=0, select bank0
  6198  07B8  1303               	bcf	status, 6	;RP1=0, select bank0
  6199  07B9  1405               	bsf	(40/8),(40)&7	;volatile
  6200                           	line	597
  6201                           	
  6202  07BA                     l3770:	
  6203                           ;PR29.c: 597: delay(150000);
  6204  07BA  3000               	movlw	0
  6205  07BB  00F3               	movwf	(?_delay+3)
  6206  07BC  3002               	movlw	02h
  6207  07BD  00F2               	movwf	(?_delay+2)
  6208  07BE  3049               	movlw	049h
  6209  07BF  00F1               	movwf	(?_delay+1)
  6210  07C0  30F0               	movlw	0F0h
  6211  07C1  00F0               	movwf	(?_delay)
  6212                           
  6213  07C2  160A  158A  2382   	fcall	_delay
              120A  118A         
  6214                           	line	598
  6215                           	
  6216  07C7                     l3772:	
  6217                           ;PR29.c: 598: upload_HT();
  6218  07C7  120A  158A  23F2   	fcall	_upload_HT
              120A  118A         
  6219                           	line	599
  6220                           	
  6221  07CC                     l3774:	
  6222                           ;PR29.c: 599: lcd_goto(20);
  6223  07CC  3014               	movlw	(014h)
  6224  07CD  160A  158A  22DB   	fcall	_lcd_goto
              120A  118A         
  6225                           	line	600
  6226                           	
  6227  07D2                     l3776:	
  6228                           ;PR29.c: 600: send_string("Done            ");
  6229  07D2  3013               	movlw	low(STR_43|8000h)
  6230  07D3  00F9               	movwf	(?_send_string)
  6231  07D4  3090               	movlw	high(STR_43|8000h)
  6232  07D5  00FA               	movwf	((?_send_string))+1
  6233  07D6  160A  158A  23B2   	fcall	_send_string
              120A  118A         
  6234                           	line	601
  6235                           	
  6236  07DB                     l3778:	
  6237                           ;PR29.c: 601: delay(100000);
  6238  07DB  3000               	movlw	0
  6239  07DC  00F3               	movwf	(?_delay+3)
  6240  07DD  3001               	movlw	01h
  6241  07DE  00F2               	movwf	(?_delay+2)
  6242  07DF  3086               	movlw	086h
  6243  07E0  00F1               	movwf	(?_delay+1)
  6244  07E1  30A0               	movlw	0A0h
  6245  07E2  00F0               	movwf	(?_delay)
  6246                           
  6247  07E3  160A  158A  2382   	fcall	_delay
              120A  118A         
  6248                           	line	602
  6249                           	
  6250  07E8                     l3780:	
  6251                           ;PR29.c: 602: RA0=0;
  6252  07E8  1283               	bcf	status, 5	;RP0=0, select bank0
  6253  07E9  1303               	bcf	status, 6	;RP1=0, select bank0
  6254  07EA  1005               	bcf	(40/8),(40)&7	;volatile
  6255                           	line	603
  6256                           	
  6257  07EB                     l3782:	
  6258                           ;PR29.c: 603: export_select=1;
  6259  07EB  1659               	bsf	(_export_select/8),(_export_select)&7
  6260  07EC  2FEE               	goto	l3784
  6261                           	line	605
  6262                           	
  6263  07ED                     l363:	
  6264  07ED  2FEE               	goto	l3784
  6265                           	line	606
  6266                           	
  6267  07EE                     l357:	
  6268                           	line	568
  6269                           	
  6270  07EE                     l3784:	
  6271  07EE  1E59               	btfss	(_export_select/8),(_export_select)&7
  6272  07EF  2FF1               	goto	u3281
  6273  07F0  2FF2               	goto	u3280
  6274  07F1                     u3281:
  6275  07F1  2F23               	goto	l3730
  6276  07F2                     u3280:
  6277                           	
  6278  07F2                     l367:	
  6279                           	line	607
  6280                           ;PR29.c: 605: }
  6281                           ;PR29.c: 606: }
  6282                           ;PR29.c: 607: export_select=0;
  6283  07F2  1259               	bcf	(_export_select/8),(_export_select)&7
  6284  07F3  2FFA               	goto	l295
  6285                           	line	608
  6286                           	
  6287  07F4                     l356:	
  6288  07F4  2FFA               	goto	l295
  6289                           	line	609
  6290                           	
  6291  07F5                     l355:	
  6292  07F5  2FFA               	goto	l295
  6293                           	
  6294  07F6                     l353:	
  6295  07F6  2FFA               	goto	l295
  6296                           	
  6297  07F7                     l351:	
  6298  07F7  2FFA               	goto	l295
  6299                           	
  6300  07F8                     l346:	
  6301  07F8  2FFA               	goto	l295
  6302                           	
  6303  07F9                     l341:	
  6304  07F9  2FFA               	goto	l295
  6305                           	
  6306  07FA                     l318:	
  6307                           	
  6308  07FA                     l295:	
  6309                           ;PR29.c: 608: }
  6310                           ;PR29.c: 609: mode_enter=0;
  6311  07FA  1283               	bcf	status, 5	;RP0=0, select bank0
  6312  07FB  1303               	bcf	status, 6	;RP1=0, select bank0
  6313  07FC  1359               	bcf	(_mode_enter/8),(_mode_enter)&7
  6314                           	line	610
  6315                           ;PR29.c: 610: location_enter=0;
  6316  07FD  12D9               	bcf	(_location_enter/8),(_location_enter)&7
  6317                           	line	611
  6318                           ;PR29.c: 611: error=0;
  6319  07FE  11D9               	bcf	(_error/8),(_error)&7
  6320                           	line	612
  6321                           	
  6322  07FF                     l368:	
  6323  07FF  0008               	return
  6324                           	opt stack 0
  6325                           GLOBAL	__end_of_mode
  6326  0800                     	__end_of_mode:
  6327                           	signat	_mode,4216
  6328                           	global	_CheckAdmin
  6329                           
  6330 ;; *************** function _CheckAdmin *****************
  6331 ;; Defined at:
  6332 ;;		line 749 in file "PR29.c"
  6333 ;; Parameters:    Size  Location     Type
  6334 ;;		None
  6335 ;; Auto vars:     Size  Location     Type
  6336 ;;		None
  6337 ;; Return value:  Size  Location     Type
  6338 ;;		None               void
  6339 ;; Registers used:
  6340 ;;		wreg, fsr0l, fsr0h, status,2, status,0, btemp+1, pclath, cstack
  6341 ;; Tracked objects:
  6342 ;;		On entry : 0/0
  6343 ;;		On exit  : 0/0
  6344 ;;		Unchanged: 0/0
  6345 ;; Data sizes:     COMMON   BANK0   BANK1   BANK3   BANK2
  6346 ;;      Params:         0       0       0       0       0
  6347 ;;      Locals:         0       0       0       0       0
  6348 ;;      Temps:          0       1       0       0       0
  6349 ;;      Totals:         0       1       0       0       0
  6350 ;;Total ram usage:        1 bytes
  6351 ;; Hardware stack levels used:    1
  6352 ;; Hardware stack levels required when called:    5
  6353 ;; This function calls:
  6354 ;;		_send_cmd
  6355 ;;		_lcd_goto
  6356 ;;		_send_string
  6357 ;;		_delay
  6358 ;;		_receive_reply
  6359 ;; This function is called by:
  6360 ;;		_main
  6361 ;;		_mode
  6362 ;; This function uses a non-reentrant model
  6363 ;;
  6364                           psect	text536,local,class=CODE,delta=2,merge=1
  6365                           global __ptext536
  6366  1C58                     __ptext536:
  6367                           psect	text536
  6368                           	file	"PR29.c"
  6369                           	line	749
  6370                           	global	__size_of_CheckAdmin
  6371  003F                     	__size_of_CheckAdmin	equ	__end_of_CheckAdmin-_CheckAdmin
  6372                           	
  6373  1C58                     _CheckAdmin:	
  6374                           	opt	stack 1
  6375                           ; Regs used in _CheckAdmin: [wreg-fsr0h+status,2+status,0+btemp+1+pclath+cstack]
  6376                           	line	750
  6377                           	
  6378  1C58                     l3428:	
  6379                           ;PR29.c: 750: send_cmd(0x0b,0x00,0xFF,0x00);
  6380  1C58  01F1               	clrf	(?_send_cmd)
  6381  1C59  30FF               	movlw	(0FFh)
  6382  1C5A  1283               	bcf	status, 5	;RP0=0, select bank0
  6383  1C5B  1303               	bcf	status, 6	;RP1=0, select bank0
  6384  1C5C  00A5               	movwf	(??_CheckAdmin+0)+0
  6385  1C5D  0825               	movf	(??_CheckAdmin+0)+0,w
  6386  1C5E  00F2               	movwf	0+(?_send_cmd)+01h
  6387  1C5F  01F3               	clrf	0+(?_send_cmd)+02h
  6388  1C60  300B               	movlw	(0Bh)
  6389  1C61  160A  158A  241F   	fcall	_send_cmd
              160A  158A         
  6390                           	line	751
  6391                           ;PR29.c: 751: lcd_goto(0);
  6392  1C66  3000               	movlw	(0)
  6393  1C67  160A  158A  22DB   	fcall	_lcd_goto
              160A  158A         
  6394                           	line	752
  6395                           	
  6396  1C6C                     l3430:	
  6397                           ;PR29.c: 752: send_string("Place your thumb");
  6398  1C6C  30CD               	movlw	low(STR_57|8000h)
  6399  1C6D  00F9               	movwf	(?_send_string)
  6400  1C6E  3091               	movlw	high(STR_57|8000h)
  6401  1C6F  00FA               	movwf	((?_send_string))+1
  6402  1C70  160A  158A  23B2   	fcall	_send_string
              160A  158A         
  6403                           	line	753
  6404                           	
  6405  1C75                     l3432:	
  6406                           ;PR29.c: 753: lcd_goto(20);
  6407  1C75  3014               	movlw	(014h)
  6408  1C76  160A  158A  22DB   	fcall	_lcd_goto
              160A  158A         
  6409                           	line	754
  6410                           ;PR29.c: 754: send_string("on the window");
  6411  1C7B  302C               	movlw	low(STR_58|8000h)
  6412  1C7C  00F9               	movwf	(?_send_string)
  6413  1C7D  3092               	movlw	high(STR_58|8000h)
  6414  1C7E  00FA               	movwf	((?_send_string))+1
  6415  1C7F  160A  158A  23B2   	fcall	_send_string
              160A  158A         
  6416                           	line	755
  6417                           	
  6418  1C84                     l3434:	
  6419                           ;PR29.c: 755: delay(100);
  6420  1C84  3000               	movlw	0
  6421  1C85  00F3               	movwf	(?_delay+3)
  6422  1C86  3000               	movlw	0
  6423  1C87  00F2               	movwf	(?_delay+2)
  6424  1C88  3000               	movlw	0
  6425  1C89  00F1               	movwf	(?_delay+1)
  6426  1C8A  3064               	movlw	064h
  6427  1C8B  00F0               	movwf	(?_delay)
  6428                           
  6429  1C8C  160A  158A  2382   	fcall	_delay
              160A  158A         
  6430                           	line	756
  6431                           	
  6432  1C91                     l3436:	
  6433                           ;PR29.c: 756: receive_reply();
  6434  1C91  160A  158A  2497   	fcall	_receive_reply
              160A  158A         
  6435                           	line	757
  6436                           	
  6437  1C96                     l400:	
  6438  1C96  0008               	return
  6439                           	opt stack 0
  6440                           GLOBAL	__end_of_CheckAdmin
  6441  1C97                     	__end_of_CheckAdmin:
  6442                           	signat	_CheckAdmin,88
  6443                           	global	_AddNew
  6444                           
  6445 ;; *************** function _AddNew *****************
  6446 ;; Defined at:
  6447 ;;		line 761 in file "PR29.c"
  6448 ;; Parameters:    Size  Location     Type
  6449 ;;  data            1    wreg     unsigned char 
  6450 ;; Auto vars:     Size  Location     Type
  6451 ;;  data            1    7[BANK0 ] unsigned char 
  6452 ;; Return value:  Size  Location     Type
  6453 ;;		None               void
  6454 ;; Registers used:
  6455 ;;		wreg, fsr0l, fsr0h, status,2, status,0, btemp+1, pclath, cstack
  6456 ;; Tracked objects:
  6457 ;;		On entry : 0/0
  6458 ;;		On exit  : 0/0
  6459 ;;		Unchanged: 0/0
  6460 ;; Data sizes:     COMMON   BANK0   BANK1   BANK3   BANK2
  6461 ;;      Params:         0       0       0       0       0
  6462 ;;      Locals:         0       1       0       0       0
  6463 ;;      Temps:          0       2       0       0       0
  6464 ;;      Totals:         0       3       0       0       0
  6465 ;;Total ram usage:        3 bytes
  6466 ;; Hardware stack levels used:    1
  6467 ;; Hardware stack levels required when called:    5
  6468 ;; This function calls:
  6469 ;;		_send_cmd
  6470 ;;		_lcd_goto
  6471 ;;		_send_string
  6472 ;;		_delay
  6473 ;;		_receive_reply
  6474 ;;		_lcd_clr
  6475 ;; This function is called by:
  6476 ;;		_mode
  6477 ;;		_ResetAdmin
  6478 ;; This function uses a non-reentrant model
  6479 ;;
  6480                           psect	text537,local,class=CODE,delta=2,merge=1
  6481                           global __ptext537
  6482  000F                     __ptext537:
  6483                           psect	text537
  6484                           	file	"PR29.c"
  6485                           	line	761
  6486                           	global	__size_of_AddNew
  6487  00C4                     	__size_of_AddNew	equ	__end_of_AddNew-_AddNew
  6488                           	
  6489  000F                     _AddNew:	
  6490                           	opt	stack 1
  6491                           ; Regs used in _AddNew: [wreg-fsr0h+status,2+status,0+btemp+1+pclath+cstack]
  6492                           ;AddNew@data stored from wreg
  6493  000F  1283               	bcf	status, 5	;RP0=0, select bank0
  6494  0010  1303               	bcf	status, 6	;RP1=0, select bank0
  6495  0011  00A7               	movwf	(AddNew@data)
  6496                           	line	762
  6497                           	
  6498  0012                     l3438:	
  6499                           ;PR29.c: 762: send_cmd(0x01,0x00,data,0x03);
  6500  0012  01F1               	clrf	(?_send_cmd)
  6501  0013  0827               	movf	(AddNew@data),w
  6502  0014  00A5               	movwf	(??_AddNew+0)+0
  6503  0015  0825               	movf	(??_AddNew+0)+0,w
  6504  0016  00F2               	movwf	0+(?_send_cmd)+01h
  6505  0017  3003               	movlw	(03h)
  6506  0018  00A6               	movwf	(??_AddNew+1)+0
  6507  0019  0826               	movf	(??_AddNew+1)+0,w
  6508  001A  00F3               	movwf	0+(?_send_cmd)+02h
  6509  001B  3001               	movlw	(01h)
  6510  001C  160A  158A  241F   	fcall	_send_cmd
              120A  118A         
  6511                           	line	763
  6512                           ;PR29.c: 763: lcd_goto(0);
  6513  0021  3000               	movlw	(0)
  6514  0022  160A  158A  22DB   	fcall	_lcd_goto
              120A  118A         
  6515                           	line	764
  6516                           	
  6517  0027                     l3440:	
  6518                           ;PR29.c: 764: send_string("Place your thumb");
  6519  0027  30CD               	movlw	low(STR_59|8000h)
  6520  0028  00F9               	movwf	(?_send_string)
  6521  0029  3091               	movlw	high(STR_59|8000h)
  6522  002A  00FA               	movwf	((?_send_string))+1
  6523  002B  160A  158A  23B2   	fcall	_send_string
              120A  118A         
  6524                           	line	765
  6525                           	
  6526  0030                     l3442:	
  6527                           ;PR29.c: 765: lcd_goto(20);
  6528  0030  3014               	movlw	(014h)
  6529  0031  160A  158A  22DB   	fcall	_lcd_goto
              120A  118A         
  6530                           	line	766
  6531                           ;PR29.c: 766: send_string("on the window");
  6532  0036  302C               	movlw	low(STR_60|8000h)
  6533  0037  00F9               	movwf	(?_send_string)
  6534  0038  3092               	movlw	high(STR_60|8000h)
  6535  0039  00FA               	movwf	((?_send_string))+1
  6536  003A  160A  158A  23B2   	fcall	_send_string
              120A  118A         
  6537                           	line	767
  6538                           	
  6539  003F                     l3444:	
  6540                           ;PR29.c: 767: delay(5000);
  6541  003F  3000               	movlw	0
  6542  0040  00F3               	movwf	(?_delay+3)
  6543  0041  3000               	movlw	0
  6544  0042  00F2               	movwf	(?_delay+2)
  6545  0043  3013               	movlw	013h
  6546  0044  00F1               	movwf	(?_delay+1)
  6547  0045  3088               	movlw	088h
  6548  0046  00F0               	movwf	(?_delay)
  6549                           
  6550  0047  160A  158A  2382   	fcall	_delay
              120A  118A         
  6551                           	line	768
  6552                           	
  6553  004C                     l3446:	
  6554                           ;PR29.c: 768: receive_reply();
  6555  004C  160A  158A  2497   	fcall	_receive_reply
              120A  118A         
  6556                           	line	769
  6557                           	
  6558  0051                     l3448:	
  6559                           ;PR29.c: 769: location_enter=1;
  6560  0051  1283               	bcf	status, 5	;RP0=0, select bank0
  6561  0052  1303               	bcf	status, 6	;RP1=0, select bank0
  6562  0053  16D9               	bsf	(_location_enter/8),(_location_enter)&7
  6563                           	line	770
  6564                           	
  6565  0054                     l3450:	
  6566                           ;PR29.c: 770: if(!error)
  6567  0054  19D9               	btfsc	(_error/8),(_error)&7
  6568  0055  2857               	goto	u2771
  6569  0056  2858               	goto	u2770
  6570  0057                     u2771:
  6571  0057  28D2               	goto	l405
  6572  0058                     u2770:
  6573                           	line	772
  6574                           	
  6575  0058                     l3452:	
  6576                           ;PR29.c: 771: {
  6577                           ;PR29.c: 772: lcd_clr();
  6578  0058  160A  158A  229C   	fcall	_lcd_clr
              120A  118A         
  6579                           	line	773
  6580                           ;PR29.c: 773: lcd_goto(0);
  6581  005D  3000               	movlw	(0)
  6582  005E  160A  158A  22DB   	fcall	_lcd_goto
              120A  118A         
  6583                           	line	774
  6584                           	
  6585  0063                     l3454:	
  6586                           ;PR29.c: 774: send_string("Scanning...     ");
  6587  0063  309B               	movlw	low(STR_61|8000h)
  6588  0064  00F9               	movwf	(?_send_string)
  6589  0065  3090               	movlw	high(STR_61|8000h)
  6590  0066  00FA               	movwf	((?_send_string))+1
  6591  0067  160A  158A  23B2   	fcall	_send_string
              120A  118A         
  6592                           	line	775
  6593                           	
  6594  006C                     l3456:	
  6595                           ;PR29.c: 775: lcd_goto(20);
  6596  006C  3014               	movlw	(014h)
  6597  006D  160A  158A  22DB   	fcall	_lcd_goto
              120A  118A         
  6598                           	line	776
  6599                           ;PR29.c: 776: send_string("Verification 1/2");
  6600  0072  309A               	movlw	low(STR_62|8000h)
  6601  0073  00F9               	movwf	(?_send_string)
  6602  0074  3091               	movlw	high(STR_62|8000h)
  6603  0075  00FA               	movwf	((?_send_string))+1
  6604  0076  160A  158A  23B2   	fcall	_send_string
              120A  118A         
  6605                           	line	777
  6606                           	
  6607  007B                     l3458:	
  6608                           ;PR29.c: 777: send_cmd(0x02,0x00,data,0x03);
  6609  007B  01F1               	clrf	(?_send_cmd)
  6610  007C  1283               	bcf	status, 5	;RP0=0, select bank0
  6611  007D  1303               	bcf	status, 6	;RP1=0, select bank0
  6612  007E  0827               	movf	(AddNew@data),w
  6613  007F  00A5               	movwf	(??_AddNew+0)+0
  6614  0080  0825               	movf	(??_AddNew+0)+0,w
  6615  0081  00F2               	movwf	0+(?_send_cmd)+01h
  6616  0082  3003               	movlw	(03h)
  6617  0083  00A6               	movwf	(??_AddNew+1)+0
  6618  0084  0826               	movf	(??_AddNew+1)+0,w
  6619  0085  00F3               	movwf	0+(?_send_cmd)+02h
  6620  0086  3002               	movlw	(02h)
  6621  0087  160A  158A  241F   	fcall	_send_cmd
              120A  118A         
  6622                           	line	778
  6623                           	
  6624  008C                     l3460:	
  6625                           ;PR29.c: 778: receive_reply();
  6626  008C  160A  158A  2497   	fcall	_receive_reply
              120A  118A         
  6627                           	line	779
  6628                           	
  6629  0091                     l3462:	
  6630                           ;PR29.c: 779: if(!error)
  6631  0091  1283               	bcf	status, 5	;RP0=0, select bank0
  6632  0092  1303               	bcf	status, 6	;RP1=0, select bank0
  6633  0093  19D9               	btfsc	(_error/8),(_error)&7
  6634  0094  2896               	goto	u2781
  6635  0095  2897               	goto	u2780
  6636  0096                     u2781:
  6637  0096  28D2               	goto	l405
  6638  0097                     u2780:
  6639                           	line	781
  6640                           	
  6641  0097                     l3464:	
  6642                           ;PR29.c: 780: {
  6643                           ;PR29.c: 781: lcd_clr();
  6644  0097  160A  158A  229C   	fcall	_lcd_clr
              120A  118A         
  6645                           	line	782
  6646                           ;PR29.c: 782: lcd_goto(0);
  6647  009C  3000               	movlw	(0)
  6648  009D  160A  158A  22DB   	fcall	_lcd_goto
              120A  118A         
  6649                           	line	783
  6650                           	
  6651  00A2                     l3466:	
  6652                           ;PR29.c: 783: send_string("Scanning...     ");
  6653  00A2  309B               	movlw	low(STR_63|8000h)
  6654  00A3  00F9               	movwf	(?_send_string)
  6655  00A4  3090               	movlw	high(STR_63|8000h)
  6656  00A5  00FA               	movwf	((?_send_string))+1
  6657  00A6  160A  158A  23B2   	fcall	_send_string
              120A  118A         
  6658                           	line	784
  6659                           	
  6660  00AB                     l3468:	
  6661                           ;PR29.c: 784: lcd_goto(20);
  6662  00AB  3014               	movlw	(014h)
  6663  00AC  160A  158A  22DB   	fcall	_lcd_goto
              120A  118A         
  6664                           	line	785
  6665                           ;PR29.c: 785: send_string("Verification 2/2");
  6666  00B1  30AB               	movlw	low(STR_64|8000h)
  6667  00B2  00F9               	movwf	(?_send_string)
  6668  00B3  3091               	movlw	high(STR_64|8000h)
  6669  00B4  00FA               	movwf	((?_send_string))+1
  6670  00B5  160A  158A  23B2   	fcall	_send_string
              120A  118A         
  6671                           	line	786
  6672                           	
  6673  00BA                     l3470:	
  6674                           ;PR29.c: 786: send_cmd(0x03,0x00,data,0x03);
  6675  00BA  01F1               	clrf	(?_send_cmd)
  6676  00BB  1283               	bcf	status, 5	;RP0=0, select bank0
  6677  00BC  1303               	bcf	status, 6	;RP1=0, select bank0
  6678  00BD  0827               	movf	(AddNew@data),w
  6679  00BE  00A5               	movwf	(??_AddNew+0)+0
  6680  00BF  0825               	movf	(??_AddNew+0)+0,w
  6681  00C0  00F2               	movwf	0+(?_send_cmd)+01h
  6682  00C1  3003               	movlw	(03h)
  6683  00C2  00A6               	movwf	(??_AddNew+1)+0
  6684  00C3  0826               	movf	(??_AddNew+1)+0,w
  6685  00C4  00F3               	movwf	0+(?_send_cmd)+02h
  6686  00C5  3003               	movlw	(03h)
  6687  00C6  160A  158A  241F   	fcall	_send_cmd
              120A  118A         
  6688                           	line	787
  6689                           	
  6690  00CB                     l3472:	
  6691                           ;PR29.c: 787: receive_reply();
  6692  00CB  160A  158A  2497   	fcall	_receive_reply
              120A  118A         
  6693  00D0  28D2               	goto	l405
  6694                           	line	788
  6695                           	
  6696  00D1                     l404:	
  6697  00D1  28D2               	goto	l405
  6698                           	line	790
  6699                           	
  6700  00D2                     l403:	
  6701                           	line	792
  6702                           	
  6703  00D2                     l405:	
  6704  00D2  0008               	return
  6705                           	opt stack 0
  6706                           GLOBAL	__end_of_AddNew
  6707  00D3                     	__end_of_AddNew:
  6708                           	signat	_AddNew,4216
  6709                           	global	_send_cmd
  6710                           
  6711 ;; *************** function _send_cmd *****************
  6712 ;; Defined at:
  6713 ;;		line 335 in file "PR29.c"
  6714 ;; Parameters:    Size  Location     Type
  6715 ;;  CMD             1    wreg     unsigned char 
  6716 ;;  P1              1    1[COMMON] unsigned char 
  6717 ;;  P2              1    2[COMMON] unsigned char 
  6718 ;;  P3              1    3[COMMON] unsigned char 
  6719 ;; Auto vars:     Size  Location     Type
  6720 ;;  CMD             1    6[COMMON] unsigned char 
  6721 ;;  CHK             1    5[COMMON] unsigned char 
  6722 ;; Return value:  Size  Location     Type
  6723 ;;		None               void
  6724 ;; Registers used:
  6725 ;;		wreg, status,2, status,0, pclath, cstack
  6726 ;; Tracked objects:
  6727 ;;		On entry : 0/0
  6728 ;;		On exit  : 0/0
  6729 ;;		Unchanged: 0/0
  6730 ;; Data sizes:     COMMON   BANK0   BANK1   BANK3   BANK2
  6731 ;;      Params:         3       0       0       0       0
  6732 ;;      Locals:         2       0       0       0       0
  6733 ;;      Temps:          1       0       0       0       0
  6734 ;;      Totals:         6       0       0       0       0
  6735 ;;Total ram usage:        6 bytes
  6736 ;; Hardware stack levels used:    1
  6737 ;; Hardware stack levels required when called:    1
  6738 ;; This function calls:
  6739 ;;		_uart_send
  6740 ;; This function is called by:
  6741 ;;		_main
  6742 ;;		_mode
  6743 ;;		_CheckAdmin
  6744 ;;		_AddNew
  6745 ;;		_ResetAdmin
  6746 ;; This function uses a non-reentrant model
  6747 ;;
  6748                           psect	text538,local,class=CODE,delta=2,merge=1
  6749                           global __ptext538
  6750  1C1F                     __ptext538:
  6751                           psect	text538
  6752                           	file	"PR29.c"
  6753                           	line	335
  6754                           	global	__size_of_send_cmd
  6755  0039                     	__size_of_send_cmd	equ	__end_of_send_cmd-_send_cmd
  6756                           	
  6757  1C1F                     _send_cmd:	
  6758                           	opt	stack 4
  6759                           ; Regs used in _send_cmd: [wreg+status,2+status,0+pclath+cstack]
  6760                           ;send_cmd@CMD stored from wreg
  6761                           	line	337
  6762  1C1F  00F6               	movwf	(send_cmd@CMD)
  6763                           	
  6764  1C20                     l2614:	
  6765                           ;PR29.c: 336: unsigned char CHK;
  6766                           ;PR29.c: 337: CHK = CMD^P1^P2^P3^0x00;
  6767  1C20  0876               	movf	(send_cmd@CMD),w
  6768  1C21  0671               	xorwf	(send_cmd@P1),w
  6769  1C22  0672               	xorwf	(send_cmd@P2),w
  6770  1C23  0673               	xorwf	(send_cmd@P3),w
  6771  1C24  00F4               	movwf	(??_send_cmd+0)+0
  6772  1C25  0874               	movf	(??_send_cmd+0)+0,w
  6773  1C26  00F5               	movwf	(send_cmd@CHK)
  6774                           	line	338
  6775                           	
  6776  1C27                     l2616:	
  6777                           ;PR29.c: 338: uart_send(0xF5);
  6778  1C27  30F5               	movlw	(0F5h)
  6779  1C28  120A  118A  2003   	fcall	_uart_send
              160A  158A         
  6780                           	line	339
  6781                           	
  6782  1C2D                     l2618:	
  6783                           ;PR29.c: 339: uart_send(CMD);
  6784  1C2D  0876               	movf	(send_cmd@CMD),w
  6785  1C2E  120A  118A  2003   	fcall	_uart_send
              160A  158A         
  6786                           	line	340
  6787                           	
  6788  1C33                     l2620:	
  6789                           ;PR29.c: 340: uart_send(P1);
  6790  1C33  0871               	movf	(send_cmd@P1),w
  6791  1C34  120A  118A  2003   	fcall	_uart_send
              160A  158A         
  6792                           	line	341
  6793                           	
  6794  1C39                     l2622:	
  6795                           ;PR29.c: 341: uart_send(P2);
  6796  1C39  0872               	movf	(send_cmd@P2),w
  6797  1C3A  120A  118A  2003   	fcall	_uart_send
              160A  158A         
  6798                           	line	342
  6799                           	
  6800  1C3F                     l2624:	
  6801                           ;PR29.c: 342: uart_send(P3);
  6802  1C3F  0873               	movf	(send_cmd@P3),w
  6803  1C40  120A  118A  2003   	fcall	_uart_send
              160A  158A         
  6804                           	line	343
  6805                           	
  6806  1C45                     l2626:	
  6807                           ;PR29.c: 343: uart_send(0x00);
  6808  1C45  3000               	movlw	(0)
  6809  1C46  120A  118A  2003   	fcall	_uart_send
              160A  158A         
  6810                           	line	344
  6811                           	
  6812  1C4B                     l2628:	
  6813                           ;PR29.c: 344: uart_send(CHK);
  6814  1C4B  0875               	movf	(send_cmd@CHK),w
  6815  1C4C  120A  118A  2003   	fcall	_uart_send
              160A  158A         
  6816                           	line	345
  6817                           	
  6818  1C51                     l2630:	
  6819                           ;PR29.c: 345: uart_send(0xF5);
  6820  1C51  30F5               	movlw	(0F5h)
  6821  1C52  120A  118A  2003   	fcall	_uart_send
              160A  158A         
  6822                           	line	346
  6823                           	
  6824  1C57                     l255:	
  6825  1C57  0008               	return
  6826                           	opt stack 0
  6827                           GLOBAL	__end_of_send_cmd
  6828  1C58                     	__end_of_send_cmd:
  6829                           	signat	_send_cmd,16504
  6830                           	global	_receive_reply
  6831                           
  6832 ;; *************** function _receive_reply *****************
  6833 ;; Defined at:
  6834 ;;		line 729 in file "PR29.c"
  6835 ;; Parameters:    Size  Location     Type
  6836 ;;		None
  6837 ;; Auto vars:     Size  Location     Type
  6838 ;;  i               1    4[BANK0 ] unsigned char 
  6839 ;; Return value:  Size  Location     Type
  6840 ;;		None               void
  6841 ;; Registers used:
  6842 ;;		wreg, fsr0l, fsr0h, status,2, status,0, btemp+1, pclath, cstack
  6843 ;; Tracked objects:
  6844 ;;		On entry : 0/0
  6845 ;;		On exit  : 0/0
  6846 ;;		Unchanged: 0/0
  6847 ;; Data sizes:     COMMON   BANK0   BANK1   BANK3   BANK2
  6848 ;;      Params:         0       0       0       0       0
  6849 ;;      Locals:         0       1       0       0       0
  6850 ;;      Temps:          0       2       0       0       0
  6851 ;;      Totals:         0       3       0       0       0
  6852 ;;Total ram usage:        3 bytes
  6853 ;; Hardware stack levels used:    1
  6854 ;; Hardware stack levels required when called:    4
  6855 ;; This function calls:
  6856 ;;		_uart_receive
  6857 ;;		_display_status
  6858 ;;		_delay
  6859 ;; This function is called by:
  6860 ;;		_main
  6861 ;;		_mode
  6862 ;;		_CheckAdmin
  6863 ;;		_AddNew
  6864 ;;		_ResetAdmin
  6865 ;; This function uses a non-reentrant model
  6866 ;;
  6867                           psect	text539,local,class=CODE,delta=2,merge=1
  6868                           global __ptext539
  6869  1C97                     __ptext539:
  6870                           psect	text539
  6871                           	file	"PR29.c"
  6872                           	line	729
  6873                           	global	__size_of_receive_reply
  6874  0040                     	__size_of_receive_reply	equ	__end_of_receive_reply-_receive_reply
  6875                           	
  6876  1C97                     _receive_reply:	
  6877                           	opt	stack 1
  6878                           ; Regs used in _receive_reply: [wreg-fsr0h+status,2+status,0+btemp+1+pclath+cstack]
  6879                           	line	732
  6880                           	
  6881  1C97                     l3412:	
  6882                           ;PR29.c: 731: unsigned char i;
  6883                           ;PR29.c: 732: for(i=0;i<8;i++)
  6884  1C97  1283               	bcf	status, 5	;RP0=0, select bank0
  6885  1C98  1303               	bcf	status, 6	;RP1=0, select bank0
  6886  1C99  01A4               	clrf	(receive_reply@i)
  6887                           	
  6888  1C9A                     l3414:	
  6889  1C9A  3008               	movlw	(08h)
  6890  1C9B  0224               	subwf	(receive_reply@i),w
  6891  1C9C  1C03               	skipc
  6892  1C9D  2C9F               	goto	u2751
  6893  1C9E  2CA0               	goto	u2750
  6894  1C9F                     u2751:
  6895  1C9F  2CA2               	goto	l3418
  6896  1CA0                     u2750:
  6897  1CA0  2CBB               	goto	l3424
  6898                           	
  6899  1CA1                     l3416:	
  6900  1CA1  2CBB               	goto	l3424
  6901                           	line	733
  6902                           	
  6903  1CA2                     l390:	
  6904                           	
  6905  1CA2                     l3418:	
  6906                           ;PR29.c: 733: array_resp[i]=uart_receive();
  6907  1CA2  160A  158A  227A   	fcall	_uart_receive
              160A  158A         
  6908  1CA7  1283               	bcf	status, 5	;RP0=0, select bank0
  6909  1CA8  1303               	bcf	status, 6	;RP1=0, select bank0
  6910  1CA9  00A2               	movwf	(??_receive_reply+0)+0
  6911  1CAA  0824               	movf	(receive_reply@i),w
  6912  1CAB  3E4E               	addlw	_array_resp&0ffh
  6913  1CAC  0084               	movwf	fsr0
  6914  1CAD  0822               	movf	(??_receive_reply+0)+0,w
  6915  1CAE  1383               	bcf	status, 7	;select IRP bank0
  6916  1CAF  0080               	movwf	indf
  6917                           	line	732
  6918                           	
  6919  1CB0                     l3420:	
  6920  1CB0  3001               	movlw	(01h)
  6921  1CB1  00A2               	movwf	(??_receive_reply+0)+0
  6922  1CB2  0822               	movf	(??_receive_reply+0)+0,w
  6923  1CB3  07A4               	addwf	(receive_reply@i),f
  6924                           	
  6925  1CB4                     l3422:	
  6926  1CB4  3008               	movlw	(08h)
  6927  1CB5  0224               	subwf	(receive_reply@i),w
  6928  1CB6  1C03               	skipc
  6929  1CB7  2CB9               	goto	u2761
  6930  1CB8  2CBA               	goto	u2760
  6931  1CB9                     u2761:
  6932  1CB9  2CA2               	goto	l3418
  6933  1CBA                     u2760:
  6934  1CBA  2CBB               	goto	l3424
  6935                           	
  6936  1CBB                     l391:	
  6937                           	line	734
  6938                           	
  6939  1CBB                     l3424:	
  6940                           ;PR29.c: 734: display_status(array_resp[1],array_resp[3],array_resp[4]);
  6941  1CBB  0851               	movf	0+(_array_resp)+03h,w
  6942  1CBC  00A2               	movwf	(??_receive_reply+0)+0
  6943  1CBD  0822               	movf	(??_receive_reply+0)+0,w
  6944  1CBE  00A0               	movwf	(?_display_status)
  6945  1CBF  0852               	movf	0+(_array_resp)+04h,w
  6946  1CC0  00A3               	movwf	(??_receive_reply+1)+0
  6947  1CC1  0823               	movf	(??_receive_reply+1)+0,w
  6948  1CC2  00A1               	movwf	0+(?_display_status)+01h
  6949  1CC3  084F               	movf	0+(_array_resp)+01h,w
  6950  1CC4  160A  158A  2634   	fcall	_display_status
              160A  158A         
  6951                           	line	735
  6952                           	
  6953  1CC9                     l3426:	
  6954                           ;PR29.c: 735: delay(1000);
  6955  1CC9  3000               	movlw	0
  6956  1CCA  00F3               	movwf	(?_delay+3)
  6957  1CCB  3000               	movlw	0
  6958  1CCC  00F2               	movwf	(?_delay+2)
  6959  1CCD  3003               	movlw	03h
  6960  1CCE  00F1               	movwf	(?_delay+1)
  6961  1CCF  30E8               	movlw	0E8h
  6962  1CD0  00F0               	movwf	(?_delay)
  6963                           
  6964  1CD1  160A  158A  2382   	fcall	_delay
              160A  158A         
  6965                           	line	737
  6966                           	
  6967  1CD6                     l392:	
  6968  1CD6  0008               	return
  6969                           	opt stack 0
  6970                           GLOBAL	__end_of_receive_reply
  6971  1CD7                     	__end_of_receive_reply:
  6972                           	signat	_receive_reply,88
  6973                           	global	_uart_send
  6974                           
  6975 ;; *************** function _uart_send *****************
  6976 ;; Defined at:
  6977 ;;		line 328 in file "PR29.c"
  6978 ;; Parameters:    Size  Location     Type
  6979 ;;  data            1    wreg     unsigned char 
  6980 ;; Auto vars:     Size  Location     Type
  6981 ;;  data            1    0[COMMON] unsigned char 
  6982 ;; Return value:  Size  Location     Type
  6983 ;;		None               void
  6984 ;; Registers used:
  6985 ;;		wreg
  6986 ;; Tracked objects:
  6987 ;;		On entry : 0/0
  6988 ;;		On exit  : 0/0
  6989 ;;		Unchanged: 0/0
  6990 ;; Data sizes:     COMMON   BANK0   BANK1   BANK3   BANK2
  6991 ;;      Params:         0       0       0       0       0
  6992 ;;      Locals:         1       0       0       0       0
  6993 ;;      Temps:          0       0       0       0       0
  6994 ;;      Totals:         1       0       0       0       0
  6995 ;;Total ram usage:        1 bytes
  6996 ;; Hardware stack levels used:    1
  6997 ;; This function calls:
  6998 ;;		Nothing
  6999 ;; This function is called by:
  7000 ;;		_send_cmd
  7001 ;; This function uses a non-reentrant model
  7002 ;;
  7003                           psect	text540,local,class=CODE,delta=2,merge=1
  7004                           global __ptext540
  7005  0003                     __ptext540:
  7006                           psect	text540
  7007                           	file	"PR29.c"
  7008                           	line	328
  7009                           	global	__size_of_uart_send
  7010  000C                     	__size_of_uart_send	equ	__end_of_uart_send-_uart_send
  7011                           	
  7012  0003                     _uart_send:	
  7013                           	opt	stack 4
  7014                           ; Regs used in _uart_send: [wreg]
  7015                           ;uart_send@data stored from wreg
  7016  0003  00F0               	movwf	(uart_send@data)
  7017                           	line	329
  7018                           	
  7019  0004                     l2592:	
  7020                           ;PR29.c: 329: while(TXIF==0);
  7021  0004  2805               	goto	l249
  7022                           	
  7023  0005                     l250:	
  7024                           	
  7025  0005                     l249:	
  7026  0005  1283               	bcf	status, 5	;RP0=0, select bank0
  7027  0006  1303               	bcf	status, 6	;RP1=0, select bank0
  7028  0007  1E0C               	btfss	(100/8),(100)&7	;volatile
  7029  0008  280A               	goto	u1941
  7030  0009  280B               	goto	u1940
  7031  000A                     u1941:
  7032  000A  2805               	goto	l249
  7033  000B                     u1940:
  7034  000B  280C               	goto	l2594
  7035                           	
  7036  000C                     l251:	
  7037                           	line	330
  7038                           	
  7039  000C                     l2594:	
  7040                           ;PR29.c: 330: TXREG=data;
  7041  000C  0870               	movf	(uart_send@data),w
  7042  000D  0099               	movwf	(25)	;volatile
  7043                           	line	331
  7044                           	
  7045  000E                     l252:	
  7046  000E  0008               	return
  7047                           	opt stack 0
  7048                           GLOBAL	__end_of_uart_send
  7049  000F                     	__end_of_uart_send:
  7050                           	signat	_uart_send,4216
  7051                           	global	_uart_receive
  7052                           
  7053 ;; *************** function _uart_receive *****************
  7054 ;; Defined at:
  7055 ;;		line 350 in file "PR29.c"
  7056 ;; Parameters:    Size  Location     Type
  7057 ;;		None
  7058 ;; Auto vars:     Size  Location     Type
  7059 ;;  rec_data        1    1[COMMON] unsigned char 
  7060 ;; Return value:  Size  Location     Type
  7061 ;;                  1    wreg      unsigned char 
  7062 ;; Registers used:
  7063 ;;		wreg
  7064 ;; Tracked objects:
  7065 ;;		On entry : 0/0
  7066 ;;		On exit  : 0/0
  7067 ;;		Unchanged: 0/0
  7068 ;; Data sizes:     COMMON   BANK0   BANK1   BANK3   BANK2
  7069 ;;      Params:         0       0       0       0       0
  7070 ;;      Locals:         1       0       0       0       0
  7071 ;;      Temps:          1       0       0       0       0
  7072 ;;      Totals:         2       0       0       0       0
  7073 ;;Total ram usage:        2 bytes
  7074 ;; Hardware stack levels used:    1
  7075 ;; This function calls:
  7076 ;;		Nothing
  7077 ;; This function is called by:
  7078 ;;		_receive_reply
  7079 ;;		_receive_reply_nodisplay
  7080 ;; This function uses a non-reentrant model
  7081 ;;
  7082                           psect	text541,local,class=CODE,delta=2,merge=1
  7083                           global __ptext541
  7084  1A7A                     __ptext541:
  7085                           psect	text541
  7086                           	file	"PR29.c"
  7087                           	line	350
  7088                           	global	__size_of_uart_receive
  7089  000F                     	__size_of_uart_receive	equ	__end_of_uart_receive-_uart_receive
  7090                           	
  7091  1A7A                     _uart_receive:	
  7092                           	opt	stack 4
  7093                           ; Regs used in _uart_receive: [wreg]
  7094                           	line	352
  7095                           	
  7096  1A7A                     l2596:	
  7097                           ;PR29.c: 351: unsigned char rec_data;
  7098                           ;PR29.c: 352: while(RCIF==0);
  7099  1A7A  2A7B               	goto	l258
  7100                           	
  7101  1A7B                     l259:	
  7102                           	
  7103  1A7B                     l258:	
  7104  1A7B  1283               	bcf	status, 5	;RP0=0, select bank0
  7105  1A7C  1303               	bcf	status, 6	;RP1=0, select bank0
  7106  1A7D  1E8C               	btfss	(101/8),(101)&7	;volatile
  7107  1A7E  2A80               	goto	u1951
  7108  1A7F  2A81               	goto	u1950
  7109  1A80                     u1951:
  7110  1A80  2A7B               	goto	l258
  7111  1A81                     u1950:
  7112  1A81  2A82               	goto	l2598
  7113                           	
  7114  1A82                     l260:	
  7115                           	line	353
  7116                           	
  7117  1A82                     l2598:	
  7118                           ;PR29.c: 353: rec_data=RCREG;
  7119  1A82  081A               	movf	(26),w	;volatile
  7120  1A83  00F0               	movwf	(??_uart_receive+0)+0
  7121  1A84  0870               	movf	(??_uart_receive+0)+0,w
  7122  1A85  00F1               	movwf	(uart_receive@rec_data)
  7123                           	line	354
  7124                           ;PR29.c: 354: return rec_data;
  7125  1A86  0871               	movf	(uart_receive@rec_data),w
  7126  1A87  2A88               	goto	l261
  7127                           	
  7128  1A88                     l2600:	
  7129                           	line	355
  7130                           	
  7131  1A88                     l261:	
  7132  1A88  0008               	return
  7133                           	opt stack 0
  7134                           GLOBAL	__end_of_uart_receive
  7135  1A89                     	__end_of_uart_receive:
  7136                           	signat	_uart_receive,89
  7137                           	global	_view_attendance
  7138                           
  7139 ;; *************** function _view_attendance *****************
  7140 ;; Defined at:
  7141 ;;		line 812 in file "PR29.c"
  7142 ;; Parameters:    Size  Location     Type
  7143 ;;		None
  7144 ;; Auto vars:     Size  Location     Type
  7145 ;;  x               1    0[BANK0 ] unsigned char 
  7146 ;; Return value:  Size  Location     Type
  7147 ;;		None               void
  7148 ;; Registers used:
  7149 ;;		wreg, fsr0l, fsr0h, status,2, status,0, btemp+1, pclath, cstack
  7150 ;; Tracked objects:
  7151 ;;		On entry : 0/0
  7152 ;;		On exit  : 0/0
  7153 ;;		Unchanged: 0/0
  7154 ;; Data sizes:     COMMON   BANK0   BANK1   BANK3   BANK2
  7155 ;;      Params:         0       0       0       0       0
  7156 ;;      Locals:         0       1       0       0       0
  7157 ;;      Temps:          1       0       0       0       0
  7158 ;;      Totals:         1       1       0       0       0
  7159 ;;Total ram usage:        2 bytes
  7160 ;; Hardware stack levels used:    1
  7161 ;; Hardware stack levels required when called:    3
  7162 ;; This function calls:
  7163 ;;		_lcd_clr
  7164 ;;		_lcd_goto
  7165 ;;		_send_string
  7166 ;;		_get_eeprom
  7167 ;;		_send_char
  7168 ;;		_delay
  7169 ;; This function is called by:
  7170 ;;		_mode
  7171 ;; This function uses a non-reentrant model
  7172 ;;
  7173                           psect	text542,local,class=CODE,delta=2,merge=1
  7174                           global __ptext542
  7175  1368                     __ptext542:
  7176                           psect	text542
  7177                           	file	"PR29.c"
  7178                           	line	812
  7179                           	global	__size_of_view_attendance
  7180  0247                     	__size_of_view_attendance	equ	__end_of_view_attendance-_view_attendance
  7181                           	
  7182  1368                     _view_attendance:	
  7183                           	opt	stack 3
  7184                           ; Regs used in _view_attendance: [wreg-fsr0h+status,2+status,0+btemp+1+pclath+cstack]
  7185                           	line	813
  7186                           	
  7187  1368                     l2930:	
  7188                           ;PR29.c: 813: lcd_clr();
  7189  1368  160A  158A  229C   	fcall	_lcd_clr
              160A  118A         
  7190                           	line	814
  7191                           ;PR29.c: 814: lcd_goto(0);
  7192  136D  3000               	movlw	(0)
  7193  136E  160A  158A  22DB   	fcall	_lcd_goto
              160A  118A         
  7194                           	line	815
  7195                           	
  7196  1373                     l2932:	
  7197                           ;PR29.c: 815: send_string("User 1 2 3 4 5 ");
  7198  1373  3000               	movlw	low(STR_65|8000h)
  7199  1374  00F9               	movwf	(?_send_string)
  7200  1375  3092               	movlw	high(STR_65|8000h)
  7201  1376  00FA               	movwf	((?_send_string))+1
  7202  1377  160A  158A  23B2   	fcall	_send_string
              160A  118A         
  7203                           	line	816
  7204                           	
  7205  137C                     l2934:	
  7206                           ;PR29.c: 816: lcd_goto(20);
  7207  137C  3014               	movlw	(014h)
  7208  137D  160A  158A  22DB   	fcall	_lcd_goto
              160A  118A         
  7209                           	line	818
  7210                           	
  7211  1382                     l2936:	
  7212                           ;PR29.c: 817: unsigned char x;
  7213                           ;PR29.c: 818: for(x=0; x<4; x++)
  7214  1382  1283               	bcf	status, 5	;RP0=0, select bank0
  7215  1383  1303               	bcf	status, 6	;RP1=0, select bank0
  7216  1384  01A0               	clrf	(view_attendance@x)
  7217                           	
  7218  1385                     l2938:	
  7219  1385  3004               	movlw	(04h)
  7220  1386  0220               	subwf	(view_attendance@x),w
  7221  1387  1C03               	skipc
  7222  1388  2B8A               	goto	u2221
  7223  1389  2B8B               	goto	u2220
  7224  138A                     u2221:
  7225  138A  2B8D               	goto	l2942
  7226  138B                     u2220:
  7227  138B  2BAB               	goto	l2948
  7228                           	
  7229  138C                     l2940:	
  7230  138C  2BAB               	goto	l2948
  7231                           	line	819
  7232                           	
  7233  138D                     l424:	
  7234                           	
  7235  138D                     l2942:	
  7236                           ;PR29.c: 819: { TEMP=get_eeprom(x);
  7237  138D  0820               	movf	(view_attendance@x),w
  7238  138E  160A  158A  22B0   	fcall	_get_eeprom
              160A  118A         
  7239  1393  00FD               	movwf	(??_view_attendance+0)+0
  7240  1394  087D               	movf	(??_view_attendance+0)+0,w
  7241  1395  1283               	bcf	status, 5	;RP0=0, select bank0
  7242  1396  1303               	bcf	status, 6	;RP1=0, select bank0
  7243  1397  00D6               	movwf	(_TEMP)
  7244                           	line	820
  7245                           ;PR29.c: 820: send_char(TEMP);
  7246  1398  0856               	movf	(_TEMP),w
  7247  1399  160A  158A  2338   	fcall	_send_char
              160A  118A         
  7248                           	line	818
  7249                           	
  7250  139E                     l2944:	
  7251  139E  3001               	movlw	(01h)
  7252  139F  00FD               	movwf	(??_view_attendance+0)+0
  7253  13A0  087D               	movf	(??_view_attendance+0)+0,w
  7254  13A1  1283               	bcf	status, 5	;RP0=0, select bank0
  7255  13A2  1303               	bcf	status, 6	;RP1=0, select bank0
  7256  13A3  07A0               	addwf	(view_attendance@x),f
  7257                           	
  7258  13A4                     l2946:	
  7259  13A4  3004               	movlw	(04h)
  7260  13A5  0220               	subwf	(view_attendance@x),w
  7261  13A6  1C03               	skipc
  7262  13A7  2BA9               	goto	u2231
  7263  13A8  2BAA               	goto	u2230
  7264  13A9                     u2231:
  7265  13A9  2B8D               	goto	l2942
  7266  13AA                     u2230:
  7267  13AA  2BAB               	goto	l2948
  7268                           	
  7269  13AB                     l425:	
  7270                           	line	822
  7271                           	
  7272  13AB                     l2948:	
  7273                           ;PR29.c: 821: }
  7274                           ;PR29.c: 822: for(x=4; x<9; x++)
  7275  13AB  3004               	movlw	(04h)
  7276  13AC  00FD               	movwf	(??_view_attendance+0)+0
  7277  13AD  087D               	movf	(??_view_attendance+0)+0,w
  7278  13AE  00A0               	movwf	(view_attendance@x)
  7279  13AF  3009               	movlw	(09h)
  7280  13B0  0220               	subwf	(view_attendance@x),w
  7281  13B1  1C03               	skipc
  7282  13B2  2BB4               	goto	u2241
  7283  13B3  2BB5               	goto	u2240
  7284  13B4                     u2241:
  7285  13B4  2BB7               	goto	l2952
  7286  13B5                     u2240:
  7287  13B5  2BDD               	goto	l2958
  7288                           	
  7289  13B6                     l2950:	
  7290  13B6  2BDD               	goto	l2958
  7291                           	line	823
  7292                           	
  7293  13B7                     l426:	
  7294                           	
  7295  13B7                     l2952:	
  7296                           ;PR29.c: 823: { send_char(0x20);
  7297  13B7  3020               	movlw	(020h)
  7298  13B8  160A  158A  2338   	fcall	_send_char
              160A  118A         
  7299                           	line	824
  7300                           ;PR29.c: 824: TEMP=get_eeprom(x);
  7301  13BD  1283               	bcf	status, 5	;RP0=0, select bank0
  7302  13BE  1303               	bcf	status, 6	;RP1=0, select bank0
  7303  13BF  0820               	movf	(view_attendance@x),w
  7304  13C0  160A  158A  22B0   	fcall	_get_eeprom
              160A  118A         
  7305  13C5  00FD               	movwf	(??_view_attendance+0)+0
  7306  13C6  087D               	movf	(??_view_attendance+0)+0,w
  7307  13C7  1283               	bcf	status, 5	;RP0=0, select bank0
  7308  13C8  1303               	bcf	status, 6	;RP1=0, select bank0
  7309  13C9  00D6               	movwf	(_TEMP)
  7310                           	line	825
  7311                           ;PR29.c: 825: send_char(TEMP);
  7312  13CA  0856               	movf	(_TEMP),w
  7313  13CB  160A  158A  2338   	fcall	_send_char
              160A  118A         
  7314                           	line	822
  7315                           	
  7316  13D0                     l2954:	
  7317  13D0  3001               	movlw	(01h)
  7318  13D1  00FD               	movwf	(??_view_attendance+0)+0
  7319  13D2  087D               	movf	(??_view_attendance+0)+0,w
  7320  13D3  1283               	bcf	status, 5	;RP0=0, select bank0
  7321  13D4  1303               	bcf	status, 6	;RP1=0, select bank0
  7322  13D5  07A0               	addwf	(view_attendance@x),f
  7323                           	
  7324  13D6                     l2956:	
  7325  13D6  3009               	movlw	(09h)
  7326  13D7  0220               	subwf	(view_attendance@x),w
  7327  13D8  1C03               	skipc
  7328  13D9  2BDB               	goto	u2251
  7329  13DA  2BDC               	goto	u2250
  7330  13DB                     u2251:
  7331  13DB  2BB7               	goto	l2952
  7332  13DC                     u2250:
  7333  13DC  2BDD               	goto	l2958
  7334                           	
  7335  13DD                     l427:	
  7336                           	line	827
  7337                           	
  7338  13DD                     l2958:	
  7339                           ;PR29.c: 826: }
  7340                           ;PR29.c: 827: delay(300000);
  7341  13DD  3000               	movlw	0
  7342  13DE  00F3               	movwf	(?_delay+3)
  7343  13DF  3004               	movlw	04h
  7344  13E0  00F2               	movwf	(?_delay+2)
  7345  13E1  3093               	movlw	093h
  7346  13E2  00F1               	movwf	(?_delay+1)
  7347  13E3  30E0               	movlw	0E0h
  7348  13E4  00F0               	movwf	(?_delay)
  7349                           
  7350  13E5  160A  158A  2382   	fcall	_delay
              160A  118A         
  7351                           	line	828
  7352                           ;PR29.c: 828: lcd_goto(20);
  7353  13EA  3014               	movlw	(014h)
  7354  13EB  160A  158A  22DB   	fcall	_lcd_goto
              160A  118A         
  7355                           	line	829
  7356                           	
  7357  13F0                     l2960:	
  7358                           ;PR29.c: 829: for(x=16; x<20; x++)
  7359  13F0  3010               	movlw	(010h)
  7360  13F1  00FD               	movwf	(??_view_attendance+0)+0
  7361  13F2  087D               	movf	(??_view_attendance+0)+0,w
  7362  13F3  1283               	bcf	status, 5	;RP0=0, select bank0
  7363  13F4  1303               	bcf	status, 6	;RP1=0, select bank0
  7364  13F5  00A0               	movwf	(view_attendance@x)
  7365                           	
  7366  13F6                     l2962:	
  7367  13F6  3014               	movlw	(014h)
  7368  13F7  0220               	subwf	(view_attendance@x),w
  7369  13F8  1C03               	skipc
  7370  13F9  2BFB               	goto	u2261
  7371  13FA  2BFC               	goto	u2260
  7372  13FB                     u2261:
  7373  13FB  2BFE               	goto	l2966
  7374  13FC                     u2260:
  7375  13FC  2C1C               	goto	l2972
  7376                           	
  7377  13FD                     l2964:	
  7378  13FD  2C1C               	goto	l2972
  7379                           	line	830
  7380                           	
  7381  13FE                     l428:	
  7382                           	
  7383  13FE                     l2966:	
  7384                           ;PR29.c: 830: { TEMP=get_eeprom(x);
  7385  13FE  0820               	movf	(view_attendance@x),w
  7386  13FF  160A  158A  22B0   	fcall	_get_eeprom
              160A  118A         
  7387  1404  00FD               	movwf	(??_view_attendance+0)+0
  7388  1405  087D               	movf	(??_view_attendance+0)+0,w
  7389  1406  1283               	bcf	status, 5	;RP0=0, select bank0
  7390  1407  1303               	bcf	status, 6	;RP1=0, select bank0
  7391  1408  00D6               	movwf	(_TEMP)
  7392                           	line	831
  7393                           ;PR29.c: 831: send_char(TEMP);
  7394  1409  0856               	movf	(_TEMP),w
  7395  140A  160A  158A  2338   	fcall	_send_char
              160A  118A         
  7396                           	line	829
  7397                           	
  7398  140F                     l2968:	
  7399  140F  3001               	movlw	(01h)
  7400  1410  00FD               	movwf	(??_view_attendance+0)+0
  7401  1411  087D               	movf	(??_view_attendance+0)+0,w
  7402  1412  1283               	bcf	status, 5	;RP0=0, select bank0
  7403  1413  1303               	bcf	status, 6	;RP1=0, select bank0
  7404  1414  07A0               	addwf	(view_attendance@x),f
  7405                           	
  7406  1415                     l2970:	
  7407  1415  3014               	movlw	(014h)
  7408  1416  0220               	subwf	(view_attendance@x),w
  7409  1417  1C03               	skipc
  7410  1418  2C1A               	goto	u2271
  7411  1419  2C1B               	goto	u2270
  7412  141A                     u2271:
  7413  141A  2BFE               	goto	l2966
  7414  141B                     u2270:
  7415  141B  2C1C               	goto	l2972
  7416                           	
  7417  141C                     l429:	
  7418                           	line	833
  7419                           	
  7420  141C                     l2972:	
  7421                           ;PR29.c: 832: }
  7422                           ;PR29.c: 833: for(x=20; x<25; x++)
  7423  141C  3014               	movlw	(014h)
  7424  141D  00FD               	movwf	(??_view_attendance+0)+0
  7425  141E  087D               	movf	(??_view_attendance+0)+0,w
  7426  141F  00A0               	movwf	(view_attendance@x)
  7427  1420  3019               	movlw	(019h)
  7428  1421  0220               	subwf	(view_attendance@x),w
  7429  1422  1C03               	skipc
  7430  1423  2C25               	goto	u2281
  7431  1424  2C26               	goto	u2280
  7432  1425                     u2281:
  7433  1425  2C28               	goto	l2976
  7434  1426                     u2280:
  7435  1426  2C4E               	goto	l2982
  7436                           	
  7437  1427                     l2974:	
  7438  1427  2C4E               	goto	l2982
  7439                           	line	834
  7440                           	
  7441  1428                     l430:	
  7442                           	
  7443  1428                     l2976:	
  7444                           ;PR29.c: 834: { send_char(0x20);
  7445  1428  3020               	movlw	(020h)
  7446  1429  160A  158A  2338   	fcall	_send_char
              160A  118A         
  7447                           	line	835
  7448                           ;PR29.c: 835: TEMP=get_eeprom(x);
  7449  142E  1283               	bcf	status, 5	;RP0=0, select bank0
  7450  142F  1303               	bcf	status, 6	;RP1=0, select bank0
  7451  1430  0820               	movf	(view_attendance@x),w
  7452  1431  160A  158A  22B0   	fcall	_get_eeprom
              160A  118A         
  7453  1436  00FD               	movwf	(??_view_attendance+0)+0
  7454  1437  087D               	movf	(??_view_attendance+0)+0,w
  7455  1438  1283               	bcf	status, 5	;RP0=0, select bank0
  7456  1439  1303               	bcf	status, 6	;RP1=0, select bank0
  7457  143A  00D6               	movwf	(_TEMP)
  7458                           	line	836
  7459                           ;PR29.c: 836: send_char(TEMP);
  7460  143B  0856               	movf	(_TEMP),w
  7461  143C  160A  158A  2338   	fcall	_send_char
              160A  118A         
  7462                           	line	833
  7463                           	
  7464  1441                     l2978:	
  7465  1441  3001               	movlw	(01h)
  7466  1442  00FD               	movwf	(??_view_attendance+0)+0
  7467  1443  087D               	movf	(??_view_attendance+0)+0,w
  7468  1444  1283               	bcf	status, 5	;RP0=0, select bank0
  7469  1445  1303               	bcf	status, 6	;RP1=0, select bank0
  7470  1446  07A0               	addwf	(view_attendance@x),f
  7471                           	
  7472  1447                     l2980:	
  7473  1447  3019               	movlw	(019h)
  7474  1448  0220               	subwf	(view_attendance@x),w
  7475  1449  1C03               	skipc
  7476  144A  2C4C               	goto	u2291
  7477  144B  2C4D               	goto	u2290
  7478  144C                     u2291:
  7479  144C  2C28               	goto	l2976
  7480  144D                     u2290:
  7481  144D  2C4E               	goto	l2982
  7482                           	
  7483  144E                     l431:	
  7484                           	line	838
  7485                           	
  7486  144E                     l2982:	
  7487                           ;PR29.c: 837: }
  7488                           ;PR29.c: 838: delay(300000);
  7489  144E  3000               	movlw	0
  7490  144F  00F3               	movwf	(?_delay+3)
  7491  1450  3004               	movlw	04h
  7492  1451  00F2               	movwf	(?_delay+2)
  7493  1452  3093               	movlw	093h
  7494  1453  00F1               	movwf	(?_delay+1)
  7495  1454  30E0               	movlw	0E0h
  7496  1455  00F0               	movwf	(?_delay)
  7497                           
  7498  1456  160A  158A  2382   	fcall	_delay
              160A  118A         
  7499                           	line	839
  7500                           ;PR29.c: 839: lcd_goto(20);
  7501  145B  3014               	movlw	(014h)
  7502  145C  160A  158A  22DB   	fcall	_lcd_goto
              160A  118A         
  7503                           	line	840
  7504                           	
  7505  1461                     l2984:	
  7506                           ;PR29.c: 840: for(x=32; x<36; x++)
  7507  1461  3020               	movlw	(020h)
  7508  1462  00FD               	movwf	(??_view_attendance+0)+0
  7509  1463  087D               	movf	(??_view_attendance+0)+0,w
  7510  1464  1283               	bcf	status, 5	;RP0=0, select bank0
  7511  1465  1303               	bcf	status, 6	;RP1=0, select bank0
  7512  1466  00A0               	movwf	(view_attendance@x)
  7513                           	
  7514  1467                     l2986:	
  7515  1467  3024               	movlw	(024h)
  7516  1468  0220               	subwf	(view_attendance@x),w
  7517  1469  1C03               	skipc
  7518  146A  2C6C               	goto	u2301
  7519  146B  2C6D               	goto	u2300
  7520  146C                     u2301:
  7521  146C  2C6F               	goto	l2990
  7522  146D                     u2300:
  7523  146D  2C8D               	goto	l2996
  7524                           	
  7525  146E                     l2988:	
  7526  146E  2C8D               	goto	l2996
  7527                           	line	841
  7528                           	
  7529  146F                     l432:	
  7530                           	
  7531  146F                     l2990:	
  7532                           ;PR29.c: 841: { TEMP=get_eeprom(x);
  7533  146F  0820               	movf	(view_attendance@x),w
  7534  1470  160A  158A  22B0   	fcall	_get_eeprom
              160A  118A         
  7535  1475  00FD               	movwf	(??_view_attendance+0)+0
  7536  1476  087D               	movf	(??_view_attendance+0)+0,w
  7537  1477  1283               	bcf	status, 5	;RP0=0, select bank0
  7538  1478  1303               	bcf	status, 6	;RP1=0, select bank0
  7539  1479  00D6               	movwf	(_TEMP)
  7540                           	line	842
  7541                           ;PR29.c: 842: send_char(TEMP);
  7542  147A  0856               	movf	(_TEMP),w
  7543  147B  160A  158A  2338   	fcall	_send_char
              160A  118A         
  7544                           	line	840
  7545                           	
  7546  1480                     l2992:	
  7547  1480  3001               	movlw	(01h)
  7548  1481  00FD               	movwf	(??_view_attendance+0)+0
  7549  1482  087D               	movf	(??_view_attendance+0)+0,w
  7550  1483  1283               	bcf	status, 5	;RP0=0, select bank0
  7551  1484  1303               	bcf	status, 6	;RP1=0, select bank0
  7552  1485  07A0               	addwf	(view_attendance@x),f
  7553                           	
  7554  1486                     l2994:	
  7555  1486  3024               	movlw	(024h)
  7556  1487  0220               	subwf	(view_attendance@x),w
  7557  1488  1C03               	skipc
  7558  1489  2C8B               	goto	u2311
  7559  148A  2C8C               	goto	u2310
  7560  148B                     u2311:
  7561  148B  2C6F               	goto	l2990
  7562  148C                     u2310:
  7563  148C  2C8D               	goto	l2996
  7564                           	
  7565  148D                     l433:	
  7566                           	line	844
  7567                           	
  7568  148D                     l2996:	
  7569                           ;PR29.c: 843: }
  7570                           ;PR29.c: 844: for(x=36; x<41; x++)
  7571  148D  3024               	movlw	(024h)
  7572  148E  00FD               	movwf	(??_view_attendance+0)+0
  7573  148F  087D               	movf	(??_view_attendance+0)+0,w
  7574  1490  00A0               	movwf	(view_attendance@x)
  7575  1491  3029               	movlw	(029h)
  7576  1492  0220               	subwf	(view_attendance@x),w
  7577  1493  1C03               	skipc
  7578  1494  2C96               	goto	u2321
  7579  1495  2C97               	goto	u2320
  7580  1496                     u2321:
  7581  1496  2C99               	goto	l3000
  7582  1497                     u2320:
  7583  1497  2CBF               	goto	l3006
  7584                           	
  7585  1498                     l2998:	
  7586  1498  2CBF               	goto	l3006
  7587                           	line	845
  7588                           	
  7589  1499                     l434:	
  7590                           	
  7591  1499                     l3000:	
  7592                           ;PR29.c: 845: { send_char(0x20);
  7593  1499  3020               	movlw	(020h)
  7594  149A  160A  158A  2338   	fcall	_send_char
              160A  118A         
  7595                           	line	846
  7596                           ;PR29.c: 846: TEMP=get_eeprom(x);
  7597  149F  1283               	bcf	status, 5	;RP0=0, select bank0
  7598  14A0  1303               	bcf	status, 6	;RP1=0, select bank0
  7599  14A1  0820               	movf	(view_attendance@x),w
  7600  14A2  160A  158A  22B0   	fcall	_get_eeprom
              160A  118A         
  7601  14A7  00FD               	movwf	(??_view_attendance+0)+0
  7602  14A8  087D               	movf	(??_view_attendance+0)+0,w
  7603  14A9  1283               	bcf	status, 5	;RP0=0, select bank0
  7604  14AA  1303               	bcf	status, 6	;RP1=0, select bank0
  7605  14AB  00D6               	movwf	(_TEMP)
  7606                           	line	847
  7607                           ;PR29.c: 847: send_char(TEMP);
  7608  14AC  0856               	movf	(_TEMP),w
  7609  14AD  160A  158A  2338   	fcall	_send_char
              160A  118A         
  7610                           	line	844
  7611                           	
  7612  14B2                     l3002:	
  7613  14B2  3001               	movlw	(01h)
  7614  14B3  00FD               	movwf	(??_view_attendance+0)+0
  7615  14B4  087D               	movf	(??_view_attendance+0)+0,w
  7616  14B5  1283               	bcf	status, 5	;RP0=0, select bank0
  7617  14B6  1303               	bcf	status, 6	;RP1=0, select bank0
  7618  14B7  07A0               	addwf	(view_attendance@x),f
  7619                           	
  7620  14B8                     l3004:	
  7621  14B8  3029               	movlw	(029h)
  7622  14B9  0220               	subwf	(view_attendance@x),w
  7623  14BA  1C03               	skipc
  7624  14BB  2CBD               	goto	u2331
  7625  14BC  2CBE               	goto	u2330
  7626  14BD                     u2331:
  7627  14BD  2C99               	goto	l3000
  7628  14BE                     u2330:
  7629  14BE  2CBF               	goto	l3006
  7630                           	
  7631  14BF                     l435:	
  7632                           	line	849
  7633                           	
  7634  14BF                     l3006:	
  7635                           ;PR29.c: 848: }
  7636                           ;PR29.c: 849: delay(300000);
  7637  14BF  3000               	movlw	0
  7638  14C0  00F3               	movwf	(?_delay+3)
  7639  14C1  3004               	movlw	04h
  7640  14C2  00F2               	movwf	(?_delay+2)
  7641  14C3  3093               	movlw	093h
  7642  14C4  00F1               	movwf	(?_delay+1)
  7643  14C5  30E0               	movlw	0E0h
  7644  14C6  00F0               	movwf	(?_delay)
  7645                           
  7646  14C7  160A  158A  2382   	fcall	_delay
              160A  118A         
  7647                           	line	850
  7648                           ;PR29.c: 850: lcd_goto(20);
  7649  14CC  3014               	movlw	(014h)
  7650  14CD  160A  158A  22DB   	fcall	_lcd_goto
              160A  118A         
  7651                           	line	851
  7652                           	
  7653  14D2                     l3008:	
  7654                           ;PR29.c: 851: for(x=48; x<52; x++)
  7655  14D2  3030               	movlw	(030h)
  7656  14D3  00FD               	movwf	(??_view_attendance+0)+0
  7657  14D4  087D               	movf	(??_view_attendance+0)+0,w
  7658  14D5  1283               	bcf	status, 5	;RP0=0, select bank0
  7659  14D6  1303               	bcf	status, 6	;RP1=0, select bank0
  7660  14D7  00A0               	movwf	(view_attendance@x)
  7661                           	
  7662  14D8                     l3010:	
  7663  14D8  3034               	movlw	(034h)
  7664  14D9  0220               	subwf	(view_attendance@x),w
  7665  14DA  1C03               	skipc
  7666  14DB  2CDD               	goto	u2341
  7667  14DC  2CDE               	goto	u2340
  7668  14DD                     u2341:
  7669  14DD  2CE0               	goto	l3014
  7670  14DE                     u2340:
  7671  14DE  2CFE               	goto	l3020
  7672                           	
  7673  14DF                     l3012:	
  7674  14DF  2CFE               	goto	l3020
  7675                           	line	852
  7676                           	
  7677  14E0                     l436:	
  7678                           	
  7679  14E0                     l3014:	
  7680                           ;PR29.c: 852: { TEMP=get_eeprom(x);
  7681  14E0  0820               	movf	(view_attendance@x),w
  7682  14E1  160A  158A  22B0   	fcall	_get_eeprom
              160A  118A         
  7683  14E6  00FD               	movwf	(??_view_attendance+0)+0
  7684  14E7  087D               	movf	(??_view_attendance+0)+0,w
  7685  14E8  1283               	bcf	status, 5	;RP0=0, select bank0
  7686  14E9  1303               	bcf	status, 6	;RP1=0, select bank0
  7687  14EA  00D6               	movwf	(_TEMP)
  7688                           	line	853
  7689                           ;PR29.c: 853: send_char(TEMP);
  7690  14EB  0856               	movf	(_TEMP),w
  7691  14EC  160A  158A  2338   	fcall	_send_char
              160A  118A         
  7692                           	line	851
  7693                           	
  7694  14F1                     l3016:	
  7695  14F1  3001               	movlw	(01h)
  7696  14F2  00FD               	movwf	(??_view_attendance+0)+0
  7697  14F3  087D               	movf	(??_view_attendance+0)+0,w
  7698  14F4  1283               	bcf	status, 5	;RP0=0, select bank0
  7699  14F5  1303               	bcf	status, 6	;RP1=0, select bank0
  7700  14F6  07A0               	addwf	(view_attendance@x),f
  7701                           	
  7702  14F7                     l3018:	
  7703  14F7  3034               	movlw	(034h)
  7704  14F8  0220               	subwf	(view_attendance@x),w
  7705  14F9  1C03               	skipc
  7706  14FA  2CFC               	goto	u2351
  7707  14FB  2CFD               	goto	u2350
  7708  14FC                     u2351:
  7709  14FC  2CE0               	goto	l3014
  7710  14FD                     u2350:
  7711  14FD  2CFE               	goto	l3020
  7712                           	
  7713  14FE                     l437:	
  7714                           	line	855
  7715                           	
  7716  14FE                     l3020:	
  7717                           ;PR29.c: 854: }
  7718                           ;PR29.c: 855: for(x=52; x<57; x++)
  7719  14FE  3034               	movlw	(034h)
  7720  14FF  00FD               	movwf	(??_view_attendance+0)+0
  7721  1500  087D               	movf	(??_view_attendance+0)+0,w
  7722  1501  00A0               	movwf	(view_attendance@x)
  7723  1502  3039               	movlw	(039h)
  7724  1503  0220               	subwf	(view_attendance@x),w
  7725  1504  1C03               	skipc
  7726  1505  2D07               	goto	u2361
  7727  1506  2D08               	goto	u2360
  7728  1507                     u2361:
  7729  1507  2D0A               	goto	l3024
  7730  1508                     u2360:
  7731  1508  2D30               	goto	l3030
  7732                           	
  7733  1509                     l3022:	
  7734  1509  2D30               	goto	l3030
  7735                           	line	856
  7736                           	
  7737  150A                     l438:	
  7738                           	
  7739  150A                     l3024:	
  7740                           ;PR29.c: 856: { send_char(0x20);
  7741  150A  3020               	movlw	(020h)
  7742  150B  160A  158A  2338   	fcall	_send_char
              160A  118A         
  7743                           	line	857
  7744                           ;PR29.c: 857: TEMP=get_eeprom(x);
  7745  1510  1283               	bcf	status, 5	;RP0=0, select bank0
  7746  1511  1303               	bcf	status, 6	;RP1=0, select bank0
  7747  1512  0820               	movf	(view_attendance@x),w
  7748  1513  160A  158A  22B0   	fcall	_get_eeprom
              160A  118A         
  7749  1518  00FD               	movwf	(??_view_attendance+0)+0
  7750  1519  087D               	movf	(??_view_attendance+0)+0,w
  7751  151A  1283               	bcf	status, 5	;RP0=0, select bank0
  7752  151B  1303               	bcf	status, 6	;RP1=0, select bank0
  7753  151C  00D6               	movwf	(_TEMP)
  7754                           	line	858
  7755                           ;PR29.c: 858: send_char(TEMP);
  7756  151D  0856               	movf	(_TEMP),w
  7757  151E  160A  158A  2338   	fcall	_send_char
              160A  118A         
  7758                           	line	855
  7759                           	
  7760  1523                     l3026:	
  7761  1523  3001               	movlw	(01h)
  7762  1524  00FD               	movwf	(??_view_attendance+0)+0
  7763  1525  087D               	movf	(??_view_attendance+0)+0,w
  7764  1526  1283               	bcf	status, 5	;RP0=0, select bank0
  7765  1527  1303               	bcf	status, 6	;RP1=0, select bank0
  7766  1528  07A0               	addwf	(view_attendance@x),f
  7767                           	
  7768  1529                     l3028:	
  7769  1529  3039               	movlw	(039h)
  7770  152A  0220               	subwf	(view_attendance@x),w
  7771  152B  1C03               	skipc
  7772  152C  2D2E               	goto	u2371
  7773  152D  2D2F               	goto	u2370
  7774  152E                     u2371:
  7775  152E  2D0A               	goto	l3024
  7776  152F                     u2370:
  7777  152F  2D30               	goto	l3030
  7778                           	
  7779  1530                     l439:	
  7780                           	line	860
  7781                           	
  7782  1530                     l3030:	
  7783                           ;PR29.c: 859: }
  7784                           ;PR29.c: 860: delay(300000);
  7785  1530  3000               	movlw	0
  7786  1531  00F3               	movwf	(?_delay+3)
  7787  1532  3004               	movlw	04h
  7788  1533  00F2               	movwf	(?_delay+2)
  7789  1534  3093               	movlw	093h
  7790  1535  00F1               	movwf	(?_delay+1)
  7791  1536  30E0               	movlw	0E0h
  7792  1537  00F0               	movwf	(?_delay)
  7793                           
  7794  1538  160A  158A  2382   	fcall	_delay
              160A  118A         
  7795                           	line	861
  7796                           ;PR29.c: 861: lcd_goto(20);
  7797  153D  3014               	movlw	(014h)
  7798  153E  160A  158A  22DB   	fcall	_lcd_goto
              160A  118A         
  7799                           	line	862
  7800                           	
  7801  1543                     l3032:	
  7802                           ;PR29.c: 862: for(x=64; x<68; x++)
  7803  1543  3040               	movlw	(040h)
  7804  1544  00FD               	movwf	(??_view_attendance+0)+0
  7805  1545  087D               	movf	(??_view_attendance+0)+0,w
  7806  1546  1283               	bcf	status, 5	;RP0=0, select bank0
  7807  1547  1303               	bcf	status, 6	;RP1=0, select bank0
  7808  1548  00A0               	movwf	(view_attendance@x)
  7809                           	
  7810  1549                     l3034:	
  7811  1549  3044               	movlw	(044h)
  7812  154A  0220               	subwf	(view_attendance@x),w
  7813  154B  1C03               	skipc
  7814  154C  2D4E               	goto	u2381
  7815  154D  2D4F               	goto	u2380
  7816  154E                     u2381:
  7817  154E  2D51               	goto	l3038
  7818  154F                     u2380:
  7819  154F  2D6F               	goto	l3044
  7820                           	
  7821  1550                     l3036:	
  7822  1550  2D6F               	goto	l3044
  7823                           	line	863
  7824                           	
  7825  1551                     l440:	
  7826                           	
  7827  1551                     l3038:	
  7828                           ;PR29.c: 863: { TEMP=get_eeprom(x);
  7829  1551  0820               	movf	(view_attendance@x),w
  7830  1552  160A  158A  22B0   	fcall	_get_eeprom
              160A  118A         
  7831  1557  00FD               	movwf	(??_view_attendance+0)+0
  7832  1558  087D               	movf	(??_view_attendance+0)+0,w
  7833  1559  1283               	bcf	status, 5	;RP0=0, select bank0
  7834  155A  1303               	bcf	status, 6	;RP1=0, select bank0
  7835  155B  00D6               	movwf	(_TEMP)
  7836                           	line	864
  7837                           ;PR29.c: 864: send_char(TEMP);
  7838  155C  0856               	movf	(_TEMP),w
  7839  155D  160A  158A  2338   	fcall	_send_char
              160A  118A         
  7840                           	line	862
  7841                           	
  7842  1562                     l3040:	
  7843  1562  3001               	movlw	(01h)
  7844  1563  00FD               	movwf	(??_view_attendance+0)+0
  7845  1564  087D               	movf	(??_view_attendance+0)+0,w
  7846  1565  1283               	bcf	status, 5	;RP0=0, select bank0
  7847  1566  1303               	bcf	status, 6	;RP1=0, select bank0
  7848  1567  07A0               	addwf	(view_attendance@x),f
  7849                           	
  7850  1568                     l3042:	
  7851  1568  3044               	movlw	(044h)
  7852  1569  0220               	subwf	(view_attendance@x),w
  7853  156A  1C03               	skipc
  7854  156B  2D6D               	goto	u2391
  7855  156C  2D6E               	goto	u2390
  7856  156D                     u2391:
  7857  156D  2D51               	goto	l3038
  7858  156E                     u2390:
  7859  156E  2D6F               	goto	l3044
  7860                           	
  7861  156F                     l441:	
  7862                           	line	866
  7863                           	
  7864  156F                     l3044:	
  7865                           ;PR29.c: 865: }
  7866                           ;PR29.c: 866: for(x=68; x<73; x++)
  7867  156F  3044               	movlw	(044h)
  7868  1570  00FD               	movwf	(??_view_attendance+0)+0
  7869  1571  087D               	movf	(??_view_attendance+0)+0,w
  7870  1572  00A0               	movwf	(view_attendance@x)
  7871  1573  3049               	movlw	(049h)
  7872  1574  0220               	subwf	(view_attendance@x),w
  7873  1575  1C03               	skipc
  7874  1576  2D78               	goto	u2401
  7875  1577  2D79               	goto	u2400
  7876  1578                     u2401:
  7877  1578  2D7B               	goto	l3048
  7878  1579                     u2400:
  7879  1579  2DA1               	goto	l3054
  7880                           	
  7881  157A                     l3046:	
  7882  157A  2DA1               	goto	l3054
  7883                           	line	867
  7884                           	
  7885  157B                     l442:	
  7886                           	
  7887  157B                     l3048:	
  7888                           ;PR29.c: 867: { send_char(0x20);
  7889  157B  3020               	movlw	(020h)
  7890  157C  160A  158A  2338   	fcall	_send_char
              160A  118A         
  7891                           	line	868
  7892                           ;PR29.c: 868: TEMP=get_eeprom(x);
  7893  1581  1283               	bcf	status, 5	;RP0=0, select bank0
  7894  1582  1303               	bcf	status, 6	;RP1=0, select bank0
  7895  1583  0820               	movf	(view_attendance@x),w
  7896  1584  160A  158A  22B0   	fcall	_get_eeprom
              160A  118A         
  7897  1589  00FD               	movwf	(??_view_attendance+0)+0
  7898  158A  087D               	movf	(??_view_attendance+0)+0,w
  7899  158B  1283               	bcf	status, 5	;RP0=0, select bank0
  7900  158C  1303               	bcf	status, 6	;RP1=0, select bank0
  7901  158D  00D6               	movwf	(_TEMP)
  7902                           	line	869
  7903                           ;PR29.c: 869: send_char(TEMP);
  7904  158E  0856               	movf	(_TEMP),w
  7905  158F  160A  158A  2338   	fcall	_send_char
              160A  118A         
  7906                           	line	866
  7907                           	
  7908  1594                     l3050:	
  7909  1594  3001               	movlw	(01h)
  7910  1595  00FD               	movwf	(??_view_attendance+0)+0
  7911  1596  087D               	movf	(??_view_attendance+0)+0,w
  7912  1597  1283               	bcf	status, 5	;RP0=0, select bank0
  7913  1598  1303               	bcf	status, 6	;RP1=0, select bank0
  7914  1599  07A0               	addwf	(view_attendance@x),f
  7915                           	
  7916  159A                     l3052:	
  7917  159A  3049               	movlw	(049h)
  7918  159B  0220               	subwf	(view_attendance@x),w
  7919  159C  1C03               	skipc
  7920  159D  2D9F               	goto	u2411
  7921  159E  2DA0               	goto	u2410
  7922  159F                     u2411:
  7923  159F  2D7B               	goto	l3048
  7924  15A0                     u2410:
  7925  15A0  2DA1               	goto	l3054
  7926                           	
  7927  15A1                     l443:	
  7928                           	line	871
  7929                           	
  7930  15A1                     l3054:	
  7931                           ;PR29.c: 870: }
  7932                           ;PR29.c: 871: delay(300000);
  7933  15A1  3000               	movlw	0
  7934  15A2  00F3               	movwf	(?_delay+3)
  7935  15A3  3004               	movlw	04h
  7936  15A4  00F2               	movwf	(?_delay+2)
  7937  15A5  3093               	movlw	093h
  7938  15A6  00F1               	movwf	(?_delay+1)
  7939  15A7  30E0               	movlw	0E0h
  7940  15A8  00F0               	movwf	(?_delay)
  7941                           
  7942  15A9  160A  158A  2382   	fcall	_delay
              160A  118A         
  7943                           	line	873
  7944                           	
  7945  15AE                     l444:	
  7946  15AE  0008               	return
  7947                           	opt stack 0
  7948                           GLOBAL	__end_of_view_attendance
  7949  15AF                     	__end_of_view_attendance:
  7950                           	signat	_view_attendance,88
  7951                           	global	_clear_attendance
  7952                           
  7953 ;; *************** function _clear_attendance *****************
  7954 ;; Defined at:
  7955 ;;		line 911 in file "PR29.c"
  7956 ;; Parameters:    Size  Location     Type
  7957 ;;		None
  7958 ;; Auto vars:     Size  Location     Type
  7959 ;;		None
  7960 ;; Return value:  Size  Location     Type
  7961 ;;		None               void
  7962 ;; Registers used:
  7963 ;;		wreg, status,2, status,0, pclath, cstack
  7964 ;; Tracked objects:
  7965 ;;		On entry : 0/0
  7966 ;;		On exit  : 0/0
  7967 ;;		Unchanged: 0/0
  7968 ;; Data sizes:     COMMON   BANK0   BANK1   BANK3   BANK2
  7969 ;;      Params:         0       0       0       0       0
  7970 ;;      Locals:         0       0       0       0       0
  7971 ;;      Temps:          1       0       0       0       0
  7972 ;;      Totals:         1       0       0       0       0
  7973 ;;Total ram usage:        1 bytes
  7974 ;; Hardware stack levels used:    1
  7975 ;; Hardware stack levels required when called:    1
  7976 ;; This function calls:
  7977 ;;		_store_eeprom
  7978 ;; This function is called by:
  7979 ;;		_mode
  7980 ;; This function uses a non-reentrant model
  7981 ;;
  7982                           psect	text543,local,class=CODE,delta=2,merge=1
  7983                           global __ptext543
  7984  00D3                     __ptext543:
  7985                           psect	text543
  7986                           	file	"PR29.c"
  7987                           	line	911
  7988                           	global	__size_of_clear_attendance
  7989  0256                     	__size_of_clear_attendance	equ	__end_of_clear_attendance-_clear_attendance
  7990                           	
  7991  00D3                     _clear_attendance:	
  7992                           	opt	stack 5
  7993                           ; Regs used in _clear_attendance: [wreg+status,2+status,0+pclath+cstack]
  7994                           	line	912
  7995                           	
  7996  00D3                     l2684:	
  7997                           ;PR29.c: 912: day_location=0x00;
  7998  00D3  1283               	bcf	status, 5	;RP0=0, select bank0
  7999  00D4  1303               	bcf	status, 6	;RP1=0, select bank0
  8000  00D5  01D7               	clrf	(_day_location)
  8001                           	line	913
  8002                           	
  8003  00D6                     l2686:	
  8004                           ;PR29.c: 913: store_eeprom('D',day_location);
  8005  00D6  0857               	movf	(_day_location),w
  8006  00D7  00F3               	movwf	(??_clear_attendance+0)+0
  8007  00D8  0873               	movf	(??_clear_attendance+0)+0,w
  8008  00D9  00F0               	movwf	(?_store_eeprom)
  8009  00DA  3044               	movlw	(044h)
  8010  00DB  160A  158A  23E6   	fcall	_store_eeprom
              120A  118A         
  8011                           	line	914
  8012                           ;PR29.c: 914: store_eeprom('A',day_location+1);
  8013  00E0  1283               	bcf	status, 5	;RP0=0, select bank0
  8014  00E1  1303               	bcf	status, 6	;RP1=0, select bank0
  8015  00E2  0857               	movf	(_day_location),w
  8016  00E3  3E01               	addlw	01h
  8017  00E4  00F3               	movwf	(??_clear_attendance+0)+0
  8018  00E5  0873               	movf	(??_clear_attendance+0)+0,w
  8019  00E6  00F0               	movwf	(?_store_eeprom)
  8020  00E7  3041               	movlw	(041h)
  8021  00E8  160A  158A  23E6   	fcall	_store_eeprom
              120A  118A         
  8022                           	line	915
  8023                           ;PR29.c: 915: store_eeprom('Y',day_location+2);
  8024  00ED  1283               	bcf	status, 5	;RP0=0, select bank0
  8025  00EE  1303               	bcf	status, 6	;RP1=0, select bank0
  8026  00EF  0857               	movf	(_day_location),w
  8027  00F0  3E02               	addlw	02h
  8028  00F1  00F3               	movwf	(??_clear_attendance+0)+0
  8029  00F2  0873               	movf	(??_clear_attendance+0)+0,w
  8030  00F3  00F0               	movwf	(?_store_eeprom)
  8031  00F4  3059               	movlw	(059h)
  8032  00F5  160A  158A  23E6   	fcall	_store_eeprom
              120A  118A         
  8033                           	line	916
  8034                           ;PR29.c: 916: store_eeprom('1',day_location+3);
  8035  00FA  1283               	bcf	status, 5	;RP0=0, select bank0
  8036  00FB  1303               	bcf	status, 6	;RP1=0, select bank0
  8037  00FC  0857               	movf	(_day_location),w
  8038  00FD  3E03               	addlw	03h
  8039  00FE  00F3               	movwf	(??_clear_attendance+0)+0
  8040  00FF  0873               	movf	(??_clear_attendance+0)+0,w
  8041  0100  00F0               	movwf	(?_store_eeprom)
  8042  0101  3031               	movlw	(031h)
  8043  0102  160A  158A  23E6   	fcall	_store_eeprom
              120A  118A         
  8044                           	line	917
  8045                           ;PR29.c: 917: store_eeprom(0xff,day_location+4);
  8046  0107  1283               	bcf	status, 5	;RP0=0, select bank0
  8047  0108  1303               	bcf	status, 6	;RP1=0, select bank0
  8048  0109  0857               	movf	(_day_location),w
  8049  010A  3E04               	addlw	04h
  8050  010B  00F3               	movwf	(??_clear_attendance+0)+0
  8051  010C  0873               	movf	(??_clear_attendance+0)+0,w
  8052  010D  00F0               	movwf	(?_store_eeprom)
  8053  010E  30FF               	movlw	(0FFh)
  8054  010F  160A  158A  23E6   	fcall	_store_eeprom
              120A  118A         
  8055                           	line	918
  8056                           ;PR29.c: 918: store_eeprom(0xff,day_location+5);
  8057  0114  1283               	bcf	status, 5	;RP0=0, select bank0
  8058  0115  1303               	bcf	status, 6	;RP1=0, select bank0
  8059  0116  0857               	movf	(_day_location),w
  8060  0117  3E05               	addlw	05h
  8061  0118  00F3               	movwf	(??_clear_attendance+0)+0
  8062  0119  0873               	movf	(??_clear_attendance+0)+0,w
  8063  011A  00F0               	movwf	(?_store_eeprom)
  8064  011B  30FF               	movlw	(0FFh)
  8065  011C  160A  158A  23E6   	fcall	_store_eeprom
              120A  118A         
  8066                           	line	919
  8067                           ;PR29.c: 919: store_eeprom(0xff,day_location+6);
  8068  0121  1283               	bcf	status, 5	;RP0=0, select bank0
  8069  0122  1303               	bcf	status, 6	;RP1=0, select bank0
  8070  0123  0857               	movf	(_day_location),w
  8071  0124  3E06               	addlw	06h
  8072  0125  00F3               	movwf	(??_clear_attendance+0)+0
  8073  0126  0873               	movf	(??_clear_attendance+0)+0,w
  8074  0127  00F0               	movwf	(?_store_eeprom)
  8075  0128  30FF               	movlw	(0FFh)
  8076  0129  160A  158A  23E6   	fcall	_store_eeprom
              120A  118A         
  8077                           	line	920
  8078                           ;PR29.c: 920: store_eeprom(0xff,day_location+7);
  8079  012E  1283               	bcf	status, 5	;RP0=0, select bank0
  8080  012F  1303               	bcf	status, 6	;RP1=0, select bank0
  8081  0130  0857               	movf	(_day_location),w
  8082  0131  3E07               	addlw	07h
  8083  0132  00F3               	movwf	(??_clear_attendance+0)+0
  8084  0133  0873               	movf	(??_clear_attendance+0)+0,w
  8085  0134  00F0               	movwf	(?_store_eeprom)
  8086  0135  30FF               	movlw	(0FFh)
  8087  0136  160A  158A  23E6   	fcall	_store_eeprom
              120A  118A         
  8088                           	line	921
  8089                           ;PR29.c: 921: store_eeprom(0xff,day_location+8);
  8090  013B  1283               	bcf	status, 5	;RP0=0, select bank0
  8091  013C  1303               	bcf	status, 6	;RP1=0, select bank0
  8092  013D  0857               	movf	(_day_location),w
  8093  013E  3E08               	addlw	08h
  8094  013F  00F3               	movwf	(??_clear_attendance+0)+0
  8095  0140  0873               	movf	(??_clear_attendance+0)+0,w
  8096  0141  00F0               	movwf	(?_store_eeprom)
  8097  0142  30FF               	movlw	(0FFh)
  8098  0143  160A  158A  23E6   	fcall	_store_eeprom
              120A  118A         
  8099                           	line	922
  8100                           	
  8101  0148                     l2688:	
  8102                           ;PR29.c: 922: day_location=0x10;
  8103  0148  3010               	movlw	(010h)
  8104  0149  00F3               	movwf	(??_clear_attendance+0)+0
  8105  014A  0873               	movf	(??_clear_attendance+0)+0,w
  8106  014B  1283               	bcf	status, 5	;RP0=0, select bank0
  8107  014C  1303               	bcf	status, 6	;RP1=0, select bank0
  8108  014D  00D7               	movwf	(_day_location)
  8109                           	line	923
  8110                           	
  8111  014E                     l2690:	
  8112                           ;PR29.c: 923: store_eeprom('D',day_location);
  8113  014E  0857               	movf	(_day_location),w
  8114  014F  00F3               	movwf	(??_clear_attendance+0)+0
  8115  0150  0873               	movf	(??_clear_attendance+0)+0,w
  8116  0151  00F0               	movwf	(?_store_eeprom)
  8117  0152  3044               	movlw	(044h)
  8118  0153  160A  158A  23E6   	fcall	_store_eeprom
              120A  118A         
  8119                           	line	924
  8120                           	
  8121  0158                     l2692:	
  8122                           ;PR29.c: 924: store_eeprom('A',day_location+1);
  8123  0158  1283               	bcf	status, 5	;RP0=0, select bank0
  8124  0159  1303               	bcf	status, 6	;RP1=0, select bank0
  8125  015A  0857               	movf	(_day_location),w
  8126  015B  3E01               	addlw	01h
  8127  015C  00F3               	movwf	(??_clear_attendance+0)+0
  8128  015D  0873               	movf	(??_clear_attendance+0)+0,w
  8129  015E  00F0               	movwf	(?_store_eeprom)
  8130  015F  3041               	movlw	(041h)
  8131  0160  160A  158A  23E6   	fcall	_store_eeprom
              120A  118A         
  8132                           	line	925
  8133                           	
  8134  0165                     l2694:	
  8135                           ;PR29.c: 925: store_eeprom('Y',day_location+2);
  8136  0165  1283               	bcf	status, 5	;RP0=0, select bank0
  8137  0166  1303               	bcf	status, 6	;RP1=0, select bank0
  8138  0167  0857               	movf	(_day_location),w
  8139  0168  3E02               	addlw	02h
  8140  0169  00F3               	movwf	(??_clear_attendance+0)+0
  8141  016A  0873               	movf	(??_clear_attendance+0)+0,w
  8142  016B  00F0               	movwf	(?_store_eeprom)
  8143  016C  3059               	movlw	(059h)
  8144  016D  160A  158A  23E6   	fcall	_store_eeprom
              120A  118A         
  8145                           	line	926
  8146                           	
  8147  0172                     l2696:	
  8148                           ;PR29.c: 926: store_eeprom('2',day_location+3);
  8149  0172  1283               	bcf	status, 5	;RP0=0, select bank0
  8150  0173  1303               	bcf	status, 6	;RP1=0, select bank0
  8151  0174  0857               	movf	(_day_location),w
  8152  0175  3E03               	addlw	03h
  8153  0176  00F3               	movwf	(??_clear_attendance+0)+0
  8154  0177  0873               	movf	(??_clear_attendance+0)+0,w
  8155  0178  00F0               	movwf	(?_store_eeprom)
  8156  0179  3032               	movlw	(032h)
  8157  017A  160A  158A  23E6   	fcall	_store_eeprom
              120A  118A         
  8158                           	line	927
  8159                           	
  8160  017F                     l2698:	
  8161                           ;PR29.c: 927: store_eeprom(0xff,day_location+4);
  8162  017F  1283               	bcf	status, 5	;RP0=0, select bank0
  8163  0180  1303               	bcf	status, 6	;RP1=0, select bank0
  8164  0181  0857               	movf	(_day_location),w
  8165  0182  3E04               	addlw	04h
  8166  0183  00F3               	movwf	(??_clear_attendance+0)+0
  8167  0184  0873               	movf	(??_clear_attendance+0)+0,w
  8168  0185  00F0               	movwf	(?_store_eeprom)
  8169  0186  30FF               	movlw	(0FFh)
  8170  0187  160A  158A  23E6   	fcall	_store_eeprom
              120A  118A         
  8171                           	line	928
  8172                           	
  8173  018C                     l2700:	
  8174                           ;PR29.c: 928: store_eeprom(0xff,day_location+5);
  8175  018C  1283               	bcf	status, 5	;RP0=0, select bank0
  8176  018D  1303               	bcf	status, 6	;RP1=0, select bank0
  8177  018E  0857               	movf	(_day_location),w
  8178  018F  3E05               	addlw	05h
  8179  0190  00F3               	movwf	(??_clear_attendance+0)+0
  8180  0191  0873               	movf	(??_clear_attendance+0)+0,w
  8181  0192  00F0               	movwf	(?_store_eeprom)
  8182  0193  30FF               	movlw	(0FFh)
  8183  0194  160A  158A  23E6   	fcall	_store_eeprom
              120A  118A         
  8184                           	line	929
  8185                           	
  8186  0199                     l2702:	
  8187                           ;PR29.c: 929: store_eeprom(0xff,day_location+6);
  8188  0199  1283               	bcf	status, 5	;RP0=0, select bank0
  8189  019A  1303               	bcf	status, 6	;RP1=0, select bank0
  8190  019B  0857               	movf	(_day_location),w
  8191  019C  3E06               	addlw	06h
  8192  019D  00F3               	movwf	(??_clear_attendance+0)+0
  8193  019E  0873               	movf	(??_clear_attendance+0)+0,w
  8194  019F  00F0               	movwf	(?_store_eeprom)
  8195  01A0  30FF               	movlw	(0FFh)
  8196  01A1  160A  158A  23E6   	fcall	_store_eeprom
              120A  118A         
  8197                           	line	930
  8198                           	
  8199  01A6                     l2704:	
  8200                           ;PR29.c: 930: store_eeprom(0xff,day_location+7);
  8201  01A6  1283               	bcf	status, 5	;RP0=0, select bank0
  8202  01A7  1303               	bcf	status, 6	;RP1=0, select bank0
  8203  01A8  0857               	movf	(_day_location),w
  8204  01A9  3E07               	addlw	07h
  8205  01AA  00F3               	movwf	(??_clear_attendance+0)+0
  8206  01AB  0873               	movf	(??_clear_attendance+0)+0,w
  8207  01AC  00F0               	movwf	(?_store_eeprom)
  8208  01AD  30FF               	movlw	(0FFh)
  8209  01AE  160A  158A  23E6   	fcall	_store_eeprom
              120A  118A         
  8210                           	line	931
  8211                           	
  8212  01B3                     l2706:	
  8213                           ;PR29.c: 931: store_eeprom(0xff,day_location+8);
  8214  01B3  1283               	bcf	status, 5	;RP0=0, select bank0
  8215  01B4  1303               	bcf	status, 6	;RP1=0, select bank0
  8216  01B5  0857               	movf	(_day_location),w
  8217  01B6  3E08               	addlw	08h
  8218  01B7  00F3               	movwf	(??_clear_attendance+0)+0
  8219  01B8  0873               	movf	(??_clear_attendance+0)+0,w
  8220  01B9  00F0               	movwf	(?_store_eeprom)
  8221  01BA  30FF               	movlw	(0FFh)
  8222  01BB  160A  158A  23E6   	fcall	_store_eeprom
              120A  118A         
  8223                           	line	932
  8224                           ;PR29.c: 932: day_location=0x20;
  8225  01C0  3020               	movlw	(020h)
  8226  01C1  00F3               	movwf	(??_clear_attendance+0)+0
  8227  01C2  0873               	movf	(??_clear_attendance+0)+0,w
  8228  01C3  1283               	bcf	status, 5	;RP0=0, select bank0
  8229  01C4  1303               	bcf	status, 6	;RP1=0, select bank0
  8230  01C5  00D7               	movwf	(_day_location)
  8231                           	line	933
  8232                           	
  8233  01C6                     l2708:	
  8234                           ;PR29.c: 933: store_eeprom('D',day_location);
  8235  01C6  0857               	movf	(_day_location),w
  8236  01C7  00F3               	movwf	(??_clear_attendance+0)+0
  8237  01C8  0873               	movf	(??_clear_attendance+0)+0,w
  8238  01C9  00F0               	movwf	(?_store_eeprom)
  8239  01CA  3044               	movlw	(044h)
  8240  01CB  160A  158A  23E6   	fcall	_store_eeprom
              120A  118A         
  8241                           	line	934
  8242                           	
  8243  01D0                     l2710:	
  8244                           ;PR29.c: 934: store_eeprom('A',day_location+1);
  8245  01D0  1283               	bcf	status, 5	;RP0=0, select bank0
  8246  01D1  1303               	bcf	status, 6	;RP1=0, select bank0
  8247  01D2  0857               	movf	(_day_location),w
  8248  01D3  3E01               	addlw	01h
  8249  01D4  00F3               	movwf	(??_clear_attendance+0)+0
  8250  01D5  0873               	movf	(??_clear_attendance+0)+0,w
  8251  01D6  00F0               	movwf	(?_store_eeprom)
  8252  01D7  3041               	movlw	(041h)
  8253  01D8  160A  158A  23E6   	fcall	_store_eeprom
              120A  118A         
  8254                           	line	935
  8255                           	
  8256  01DD                     l2712:	
  8257                           ;PR29.c: 935: store_eeprom('Y',day_location+2);
  8258  01DD  1283               	bcf	status, 5	;RP0=0, select bank0
  8259  01DE  1303               	bcf	status, 6	;RP1=0, select bank0
  8260  01DF  0857               	movf	(_day_location),w
  8261  01E0  3E02               	addlw	02h
  8262  01E1  00F3               	movwf	(??_clear_attendance+0)+0
  8263  01E2  0873               	movf	(??_clear_attendance+0)+0,w
  8264  01E3  00F0               	movwf	(?_store_eeprom)
  8265  01E4  3059               	movlw	(059h)
  8266  01E5  160A  158A  23E6   	fcall	_store_eeprom
              120A  118A         
  8267                           	line	936
  8268                           	
  8269  01EA                     l2714:	
  8270                           ;PR29.c: 936: store_eeprom('3',day_location+3);
  8271  01EA  1283               	bcf	status, 5	;RP0=0, select bank0
  8272  01EB  1303               	bcf	status, 6	;RP1=0, select bank0
  8273  01EC  0857               	movf	(_day_location),w
  8274  01ED  3E03               	addlw	03h
  8275  01EE  00F3               	movwf	(??_clear_attendance+0)+0
  8276  01EF  0873               	movf	(??_clear_attendance+0)+0,w
  8277  01F0  00F0               	movwf	(?_store_eeprom)
  8278  01F1  3033               	movlw	(033h)
  8279  01F2  160A  158A  23E6   	fcall	_store_eeprom
              120A  118A         
  8280                           	line	937
  8281                           	
  8282  01F7                     l2716:	
  8283                           ;PR29.c: 937: store_eeprom(0xff,day_location+4);
  8284  01F7  1283               	bcf	status, 5	;RP0=0, select bank0
  8285  01F8  1303               	bcf	status, 6	;RP1=0, select bank0
  8286  01F9  0857               	movf	(_day_location),w
  8287  01FA  3E04               	addlw	04h
  8288  01FB  00F3               	movwf	(??_clear_attendance+0)+0
  8289  01FC  0873               	movf	(??_clear_attendance+0)+0,w
  8290  01FD  00F0               	movwf	(?_store_eeprom)
  8291  01FE  30FF               	movlw	(0FFh)
  8292  01FF  160A  158A  23E6   	fcall	_store_eeprom
              120A  118A         
  8293                           	line	938
  8294                           	
  8295  0204                     l2718:	
  8296                           ;PR29.c: 938: store_eeprom(0xff,day_location+5);
  8297  0204  1283               	bcf	status, 5	;RP0=0, select bank0
  8298  0205  1303               	bcf	status, 6	;RP1=0, select bank0
  8299  0206  0857               	movf	(_day_location),w
  8300  0207  3E05               	addlw	05h
  8301  0208  00F3               	movwf	(??_clear_attendance+0)+0
  8302  0209  0873               	movf	(??_clear_attendance+0)+0,w
  8303  020A  00F0               	movwf	(?_store_eeprom)
  8304  020B  30FF               	movlw	(0FFh)
  8305  020C  160A  158A  23E6   	fcall	_store_eeprom
              120A  118A         
  8306                           	line	939
  8307                           	
  8308  0211                     l2720:	
  8309                           ;PR29.c: 939: store_eeprom(0xff,day_location+6);
  8310  0211  1283               	bcf	status, 5	;RP0=0, select bank0
  8311  0212  1303               	bcf	status, 6	;RP1=0, select bank0
  8312  0213  0857               	movf	(_day_location),w
  8313  0214  3E06               	addlw	06h
  8314  0215  00F3               	movwf	(??_clear_attendance+0)+0
  8315  0216  0873               	movf	(??_clear_attendance+0)+0,w
  8316  0217  00F0               	movwf	(?_store_eeprom)
  8317  0218  30FF               	movlw	(0FFh)
  8318  0219  160A  158A  23E6   	fcall	_store_eeprom
              120A  118A         
  8319                           	line	940
  8320                           	
  8321  021E                     l2722:	
  8322                           ;PR29.c: 940: store_eeprom(0xff,day_location+7);
  8323  021E  1283               	bcf	status, 5	;RP0=0, select bank0
  8324  021F  1303               	bcf	status, 6	;RP1=0, select bank0
  8325  0220  0857               	movf	(_day_location),w
  8326  0221  3E07               	addlw	07h
  8327  0222  00F3               	movwf	(??_clear_attendance+0)+0
  8328  0223  0873               	movf	(??_clear_attendance+0)+0,w
  8329  0224  00F0               	movwf	(?_store_eeprom)
  8330  0225  30FF               	movlw	(0FFh)
  8331  0226  160A  158A  23E6   	fcall	_store_eeprom
              120A  118A         
  8332                           	line	941
  8333                           	
  8334  022B                     l2724:	
  8335                           ;PR29.c: 941: store_eeprom(0xff,day_location+8);
  8336  022B  1283               	bcf	status, 5	;RP0=0, select bank0
  8337  022C  1303               	bcf	status, 6	;RP1=0, select bank0
  8338  022D  0857               	movf	(_day_location),w
  8339  022E  3E08               	addlw	08h
  8340  022F  00F3               	movwf	(??_clear_attendance+0)+0
  8341  0230  0873               	movf	(??_clear_attendance+0)+0,w
  8342  0231  00F0               	movwf	(?_store_eeprom)
  8343  0232  30FF               	movlw	(0FFh)
  8344  0233  160A  158A  23E6   	fcall	_store_eeprom
              120A  118A         
  8345                           	line	942
  8346                           	
  8347  0238                     l2726:	
  8348                           ;PR29.c: 942: day_location=0x30;
  8349  0238  3030               	movlw	(030h)
  8350  0239  00F3               	movwf	(??_clear_attendance+0)+0
  8351  023A  0873               	movf	(??_clear_attendance+0)+0,w
  8352  023B  1283               	bcf	status, 5	;RP0=0, select bank0
  8353  023C  1303               	bcf	status, 6	;RP1=0, select bank0
  8354  023D  00D7               	movwf	(_day_location)
  8355                           	line	943
  8356                           ;PR29.c: 943: store_eeprom('D',day_location);
  8357  023E  0857               	movf	(_day_location),w
  8358  023F  00F3               	movwf	(??_clear_attendance+0)+0
  8359  0240  0873               	movf	(??_clear_attendance+0)+0,w
  8360  0241  00F0               	movwf	(?_store_eeprom)
  8361  0242  3044               	movlw	(044h)
  8362  0243  160A  158A  23E6   	fcall	_store_eeprom
              120A  118A         
  8363                           	line	944
  8364                           ;PR29.c: 944: store_eeprom('A',day_location+1);
  8365  0248  1283               	bcf	status, 5	;RP0=0, select bank0
  8366  0249  1303               	bcf	status, 6	;RP1=0, select bank0
  8367  024A  0857               	movf	(_day_location),w
  8368  024B  3E01               	addlw	01h
  8369  024C  00F3               	movwf	(??_clear_attendance+0)+0
  8370  024D  0873               	movf	(??_clear_attendance+0)+0,w
  8371  024E  00F0               	movwf	(?_store_eeprom)
  8372  024F  3041               	movlw	(041h)
  8373  0250  160A  158A  23E6   	fcall	_store_eeprom
              120A  118A         
  8374                           	line	945
  8375                           ;PR29.c: 945: store_eeprom('Y',day_location+2);
  8376  0255  1283               	bcf	status, 5	;RP0=0, select bank0
  8377  0256  1303               	bcf	status, 6	;RP1=0, select bank0
  8378  0257  0857               	movf	(_day_location),w
  8379  0258  3E02               	addlw	02h
  8380  0259  00F3               	movwf	(??_clear_attendance+0)+0
  8381  025A  0873               	movf	(??_clear_attendance+0)+0,w
  8382  025B  00F0               	movwf	(?_store_eeprom)
  8383  025C  3059               	movlw	(059h)
  8384  025D  160A  158A  23E6   	fcall	_store_eeprom
              120A  118A         
  8385                           	line	946
  8386                           ;PR29.c: 946: store_eeprom('4',day_location+3);
  8387  0262  1283               	bcf	status, 5	;RP0=0, select bank0
  8388  0263  1303               	bcf	status, 6	;RP1=0, select bank0
  8389  0264  0857               	movf	(_day_location),w
  8390  0265  3E03               	addlw	03h
  8391  0266  00F3               	movwf	(??_clear_attendance+0)+0
  8392  0267  0873               	movf	(??_clear_attendance+0)+0,w
  8393  0268  00F0               	movwf	(?_store_eeprom)
  8394  0269  3034               	movlw	(034h)
  8395  026A  160A  158A  23E6   	fcall	_store_eeprom
              120A  118A         
  8396                           	line	947
  8397                           ;PR29.c: 947: store_eeprom(0xff,day_location+4);
  8398  026F  1283               	bcf	status, 5	;RP0=0, select bank0
  8399  0270  1303               	bcf	status, 6	;RP1=0, select bank0
  8400  0271  0857               	movf	(_day_location),w
  8401  0272  3E04               	addlw	04h
  8402  0273  00F3               	movwf	(??_clear_attendance+0)+0
  8403  0274  0873               	movf	(??_clear_attendance+0)+0,w
  8404  0275  00F0               	movwf	(?_store_eeprom)
  8405  0276  30FF               	movlw	(0FFh)
  8406  0277  160A  158A  23E6   	fcall	_store_eeprom
              120A  118A         
  8407                           	line	948
  8408                           ;PR29.c: 948: store_eeprom(0xff,day_location+5);
  8409  027C  1283               	bcf	status, 5	;RP0=0, select bank0
  8410  027D  1303               	bcf	status, 6	;RP1=0, select bank0
  8411  027E  0857               	movf	(_day_location),w
  8412  027F  3E05               	addlw	05h
  8413  0280  00F3               	movwf	(??_clear_attendance+0)+0
  8414  0281  0873               	movf	(??_clear_attendance+0)+0,w
  8415  0282  00F0               	movwf	(?_store_eeprom)
  8416  0283  30FF               	movlw	(0FFh)
  8417  0284  160A  158A  23E6   	fcall	_store_eeprom
              120A  118A         
  8418                           	line	949
  8419                           ;PR29.c: 949: store_eeprom(0xff,day_location+6);
  8420  0289  1283               	bcf	status, 5	;RP0=0, select bank0
  8421  028A  1303               	bcf	status, 6	;RP1=0, select bank0
  8422  028B  0857               	movf	(_day_location),w
  8423  028C  3E06               	addlw	06h
  8424  028D  00F3               	movwf	(??_clear_attendance+0)+0
  8425  028E  0873               	movf	(??_clear_attendance+0)+0,w
  8426  028F  00F0               	movwf	(?_store_eeprom)
  8427  0290  30FF               	movlw	(0FFh)
  8428  0291  160A  158A  23E6   	fcall	_store_eeprom
              120A  118A         
  8429                           	line	950
  8430                           ;PR29.c: 950: store_eeprom(0xff,day_location+7);
  8431  0296  1283               	bcf	status, 5	;RP0=0, select bank0
  8432  0297  1303               	bcf	status, 6	;RP1=0, select bank0
  8433  0298  0857               	movf	(_day_location),w
  8434  0299  3E07               	addlw	07h
  8435  029A  00F3               	movwf	(??_clear_attendance+0)+0
  8436  029B  0873               	movf	(??_clear_attendance+0)+0,w
  8437  029C  00F0               	movwf	(?_store_eeprom)
  8438  029D  30FF               	movlw	(0FFh)
  8439  029E  160A  158A  23E6   	fcall	_store_eeprom
              120A  118A         
  8440                           	line	951
  8441                           ;PR29.c: 951: store_eeprom(0xff,day_location+8);
  8442  02A3  1283               	bcf	status, 5	;RP0=0, select bank0
  8443  02A4  1303               	bcf	status, 6	;RP1=0, select bank0
  8444  02A5  0857               	movf	(_day_location),w
  8445  02A6  3E08               	addlw	08h
  8446  02A7  00F3               	movwf	(??_clear_attendance+0)+0
  8447  02A8  0873               	movf	(??_clear_attendance+0)+0,w
  8448  02A9  00F0               	movwf	(?_store_eeprom)
  8449  02AA  30FF               	movlw	(0FFh)
  8450  02AB  160A  158A  23E6   	fcall	_store_eeprom
              120A  118A         
  8451                           	line	952
  8452                           	
  8453  02B0                     l2728:	
  8454                           ;PR29.c: 952: day_location=0x40;
  8455  02B0  3040               	movlw	(040h)
  8456  02B1  00F3               	movwf	(??_clear_attendance+0)+0
  8457  02B2  0873               	movf	(??_clear_attendance+0)+0,w
  8458  02B3  1283               	bcf	status, 5	;RP0=0, select bank0
  8459  02B4  1303               	bcf	status, 6	;RP1=0, select bank0
  8460  02B5  00D7               	movwf	(_day_location)
  8461                           	line	953
  8462                           	
  8463  02B6                     l2730:	
  8464                           ;PR29.c: 953: store_eeprom('D',day_location);
  8465  02B6  0857               	movf	(_day_location),w
  8466  02B7  00F3               	movwf	(??_clear_attendance+0)+0
  8467  02B8  0873               	movf	(??_clear_attendance+0)+0,w
  8468  02B9  00F0               	movwf	(?_store_eeprom)
  8469  02BA  3044               	movlw	(044h)
  8470  02BB  160A  158A  23E6   	fcall	_store_eeprom
              120A  118A         
  8471                           	line	954
  8472                           	
  8473  02C0                     l2732:	
  8474                           ;PR29.c: 954: store_eeprom('A',day_location+1);
  8475  02C0  1283               	bcf	status, 5	;RP0=0, select bank0
  8476  02C1  1303               	bcf	status, 6	;RP1=0, select bank0
  8477  02C2  0857               	movf	(_day_location),w
  8478  02C3  3E01               	addlw	01h
  8479  02C4  00F3               	movwf	(??_clear_attendance+0)+0
  8480  02C5  0873               	movf	(??_clear_attendance+0)+0,w
  8481  02C6  00F0               	movwf	(?_store_eeprom)
  8482  02C7  3041               	movlw	(041h)
  8483  02C8  160A  158A  23E6   	fcall	_store_eeprom
              120A  118A         
  8484                           	line	955
  8485                           	
  8486  02CD                     l2734:	
  8487                           ;PR29.c: 955: store_eeprom('Y',day_location+2);
  8488  02CD  1283               	bcf	status, 5	;RP0=0, select bank0
  8489  02CE  1303               	bcf	status, 6	;RP1=0, select bank0
  8490  02CF  0857               	movf	(_day_location),w
  8491  02D0  3E02               	addlw	02h
  8492  02D1  00F3               	movwf	(??_clear_attendance+0)+0
  8493  02D2  0873               	movf	(??_clear_attendance+0)+0,w
  8494  02D3  00F0               	movwf	(?_store_eeprom)
  8495  02D4  3059               	movlw	(059h)
  8496  02D5  160A  158A  23E6   	fcall	_store_eeprom
              120A  118A         
  8497                           	line	956
  8498                           	
  8499  02DA                     l2736:	
  8500                           ;PR29.c: 956: store_eeprom('5',day_location+3);
  8501  02DA  1283               	bcf	status, 5	;RP0=0, select bank0
  8502  02DB  1303               	bcf	status, 6	;RP1=0, select bank0
  8503  02DC  0857               	movf	(_day_location),w
  8504  02DD  3E03               	addlw	03h
  8505  02DE  00F3               	movwf	(??_clear_attendance+0)+0
  8506  02DF  0873               	movf	(??_clear_attendance+0)+0,w
  8507  02E0  00F0               	movwf	(?_store_eeprom)
  8508  02E1  3035               	movlw	(035h)
  8509  02E2  160A  158A  23E6   	fcall	_store_eeprom
              120A  118A         
  8510                           	line	957
  8511                           	
  8512  02E7                     l2738:	
  8513                           ;PR29.c: 957: store_eeprom(0xff,day_location+4);
  8514  02E7  1283               	bcf	status, 5	;RP0=0, select bank0
  8515  02E8  1303               	bcf	status, 6	;RP1=0, select bank0
  8516  02E9  0857               	movf	(_day_location),w
  8517  02EA  3E04               	addlw	04h
  8518  02EB  00F3               	movwf	(??_clear_attendance+0)+0
  8519  02EC  0873               	movf	(??_clear_attendance+0)+0,w
  8520  02ED  00F0               	movwf	(?_store_eeprom)
  8521  02EE  30FF               	movlw	(0FFh)
  8522  02EF  160A  158A  23E6   	fcall	_store_eeprom
              120A  118A         
  8523                           	line	958
  8524                           	
  8525  02F4                     l2740:	
  8526                           ;PR29.c: 958: store_eeprom(0xff,day_location+5);
  8527  02F4  1283               	bcf	status, 5	;RP0=0, select bank0
  8528  02F5  1303               	bcf	status, 6	;RP1=0, select bank0
  8529  02F6  0857               	movf	(_day_location),w
  8530  02F7  3E05               	addlw	05h
  8531  02F8  00F3               	movwf	(??_clear_attendance+0)+0
  8532  02F9  0873               	movf	(??_clear_attendance+0)+0,w
  8533  02FA  00F0               	movwf	(?_store_eeprom)
  8534  02FB  30FF               	movlw	(0FFh)
  8535  02FC  160A  158A  23E6   	fcall	_store_eeprom
              120A  118A         
  8536                           	line	959
  8537                           	
  8538  0301                     l2742:	
  8539                           ;PR29.c: 959: store_eeprom(0xff,day_location+6);
  8540  0301  1283               	bcf	status, 5	;RP0=0, select bank0
  8541  0302  1303               	bcf	status, 6	;RP1=0, select bank0
  8542  0303  0857               	movf	(_day_location),w
  8543  0304  3E06               	addlw	06h
  8544  0305  00F3               	movwf	(??_clear_attendance+0)+0
  8545  0306  0873               	movf	(??_clear_attendance+0)+0,w
  8546  0307  00F0               	movwf	(?_store_eeprom)
  8547  0308  30FF               	movlw	(0FFh)
  8548  0309  160A  158A  23E6   	fcall	_store_eeprom
              120A  118A         
  8549                           	line	960
  8550                           	
  8551  030E                     l2744:	
  8552                           ;PR29.c: 960: store_eeprom(0xff,day_location+7);
  8553  030E  1283               	bcf	status, 5	;RP0=0, select bank0
  8554  030F  1303               	bcf	status, 6	;RP1=0, select bank0
  8555  0310  0857               	movf	(_day_location),w
  8556  0311  3E07               	addlw	07h
  8557  0312  00F3               	movwf	(??_clear_attendance+0)+0
  8558  0313  0873               	movf	(??_clear_attendance+0)+0,w
  8559  0314  00F0               	movwf	(?_store_eeprom)
  8560  0315  30FF               	movlw	(0FFh)
  8561  0316  160A  158A  23E6   	fcall	_store_eeprom
              120A  118A         
  8562                           	line	961
  8563                           	
  8564  031B                     l2746:	
  8565                           ;PR29.c: 961: store_eeprom(0xff,day_location+8);
  8566  031B  1283               	bcf	status, 5	;RP0=0, select bank0
  8567  031C  1303               	bcf	status, 6	;RP1=0, select bank0
  8568  031D  0857               	movf	(_day_location),w
  8569  031E  3E08               	addlw	08h
  8570  031F  00F3               	movwf	(??_clear_attendance+0)+0
  8571  0320  0873               	movf	(??_clear_attendance+0)+0,w
  8572  0321  00F0               	movwf	(?_store_eeprom)
  8573  0322  30FF               	movlw	(0FFh)
  8574  0323  160A  158A  23E6   	fcall	_store_eeprom
              120A  118A         
  8575                           	line	962
  8576                           	
  8577  0328                     l450:	
  8578  0328  0008               	return
  8579                           	opt stack 0
  8580                           GLOBAL	__end_of_clear_attendance
  8581  0329                     	__end_of_clear_attendance:
  8582                           	signat	_clear_attendance,88
  8583                           	global	_store_eeprom
  8584                           
  8585 ;; *************** function _store_eeprom *****************
  8586 ;; Defined at:
  8587 ;;		line 796 in file "PR29.c"
  8588 ;; Parameters:    Size  Location     Type
  8589 ;;  data            1    wreg     unsigned char 
  8590 ;;  location        1    0[COMMON] unsigned char 
  8591 ;; Auto vars:     Size  Location     Type
  8592 ;;  data            1    2[COMMON] unsigned char 
  8593 ;; Return value:  Size  Location     Type
  8594 ;;		None               void
  8595 ;; Registers used:
  8596 ;;		wreg, status,2, status,0
  8597 ;; Tracked objects:
  8598 ;;		On entry : 0/0
  8599 ;;		On exit  : 0/0
  8600 ;;		Unchanged: 0/0
  8601 ;; Data sizes:     COMMON   BANK0   BANK1   BANK3   BANK2
  8602 ;;      Params:         1       0       0       0       0
  8603 ;;      Locals:         1       0       0       0       0
  8604 ;;      Temps:          1       0       0       0       0
  8605 ;;      Totals:         3       0       0       0       0
  8606 ;;Total ram usage:        3 bytes
  8607 ;; Hardware stack levels used:    1
  8608 ;; This function calls:
  8609 ;;		Nothing
  8610 ;; This function is called by:
  8611 ;;		_main
  8612 ;;		_mode
  8613 ;;		_init_attendance
  8614 ;;		_clear_attendance
  8615 ;; This function uses a non-reentrant model
  8616 ;;
  8617                           psect	text544,local,class=CODE,delta=2,merge=1
  8618                           global __ptext544
  8619  1BE6                     __ptext544:
  8620                           psect	text544
  8621                           	file	"PR29.c"
  8622                           	line	796
  8623                           	global	__size_of_store_eeprom
  8624  0039                     	__size_of_store_eeprom	equ	__end_of_store_eeprom-_store_eeprom
  8625                           	
  8626  1BE6                     _store_eeprom:	
  8627                           	opt	stack 5
  8628                           ; Regs used in _store_eeprom: [wreg+status,2+status,0]
  8629                           ;store_eeprom@data stored from wreg
  8630  1BE6  00F2               	movwf	(store_eeprom@data)
  8631                           	line	797
  8632                           ;PR29.c: 797: do{ while(WR)continue;EEADR=(location);EEDATA=(data); EECON1&=0x3F;CARRY=0
                                 ;if(GIE)CARRY=1;GIE=0; WREN=1;EECON2=0x55;EECON2=0xAA;WR=1;WREN=0; if(CARRY)GIE=1; }whil
                                 e(0);
  8633                           	
  8634  1BE7                     l408:	
  8635  1BE7  2BE8               	goto	l409
  8636                           	
  8637  1BE8                     l410:	
  8638                           	
  8639  1BE8                     l409:	
  8640  1BE8  1683               	bsf	status, 5	;RP0=1, select bank3
  8641  1BE9  1703               	bsf	status, 6	;RP1=1, select bank3
  8642  1BEA  188C               	btfsc	(3169/8)^0180h,(3169)&7	;volatile
  8643  1BEB  2BED               	goto	u1901
  8644  1BEC  2BEE               	goto	u1900
  8645  1BED                     u1901:
  8646  1BED  2BE8               	goto	l409
  8647  1BEE                     u1900:
  8648  1BEE  2BEF               	goto	l2572
  8649                           	
  8650  1BEF                     l411:	
  8651                           	
  8652  1BEF                     l2572:	
  8653  1BEF  0870               	movf	(store_eeprom@location),w
  8654  1BF0  1283               	bcf	status, 5	;RP0=0, select bank2
  8655  1BF1  1703               	bsf	status, 6	;RP1=1, select bank2
  8656  1BF2  008D               	movwf	(269)^0100h	;volatile
  8657  1BF3  0872               	movf	(store_eeprom@data),w
  8658  1BF4  008C               	movwf	(268)^0100h	;volatile
  8659                           	
  8660  1BF5                     l2574:	
  8661  1BF5  303F               	movlw	(03Fh)
  8662  1BF6  00F1               	movwf	(??_store_eeprom+0)+0
  8663  1BF7  0871               	movf	(??_store_eeprom+0)+0,w
  8664  1BF8  1683               	bsf	status, 5	;RP0=1, select bank3
  8665  1BF9  1703               	bsf	status, 6	;RP1=1, select bank3
  8666  1BFA  058C               	andwf	(396)^0180h,f	;volatile
  8667                           	
  8668  1BFB                     l2576:	
  8669  1BFB  1283               	bcf	status, 5	;RP0=0, select bank0
  8670  1BFC  1303               	bcf	status, 6	;RP1=0, select bank0
  8671  1BFD  1003               	bcf	(24/8),(24)&7	;volatile
  8672                           	
  8673  1BFE                     l2578:	
  8674  1BFE  1F8B               	btfss	(95/8),(95)&7	;volatile
  8675  1BFF  2C01               	goto	u1911
  8676  1C00  2C02               	goto	u1910
  8677  1C01                     u1911:
  8678  1C01  2C03               	goto	l412
  8679  1C02                     u1910:
  8680                           	
  8681  1C02                     l2580:	
  8682  1C02  1403               	bsf	(24/8),(24)&7	;volatile
  8683                           	
  8684  1C03                     l412:	
  8685  1C03  138B               	bcf	(95/8),(95)&7	;volatile
  8686  1C04  1683               	bsf	status, 5	;RP0=1, select bank3
  8687  1C05  1703               	bsf	status, 6	;RP1=1, select bank3
  8688  1C06  150C               	bsf	(3170/8)^0180h,(3170)&7	;volatile
  8689                           	
  8690  1C07                     l2582:	
  8691  1C07  3055               	movlw	(055h)
  8692  1C08  008D               	movwf	(397)^0180h	;volatile
  8693  1C09  30AA               	movlw	(0AAh)
  8694  1C0A  008D               	movwf	(397)^0180h	;volatile
  8695                           	
  8696  1C0B                     l2584:	
  8697  1C0B  148C               	bsf	(3169/8)^0180h,(3169)&7	;volatile
  8698                           	
  8699  1C0C                     l2586:	
  8700  1C0C  110C               	bcf	(3170/8)^0180h,(3170)&7	;volatile
  8701                           	
  8702  1C0D                     l2588:	
  8703  1C0D  1283               	bcf	status, 5	;RP0=0, select bank0
  8704  1C0E  1303               	bcf	status, 6	;RP1=0, select bank0
  8705  1C0F  1C03               	btfss	(24/8),(24)&7	;volatile
  8706  1C10  2C12               	goto	u1921
  8707  1C11  2C13               	goto	u1920
  8708  1C12                     u1921:
  8709  1C12  2C17               	goto	l415
  8710  1C13                     u1920:
  8711                           	
  8712  1C13                     l2590:	
  8713  1C13  178B               	bsf	(95/8),(95)&7	;volatile
  8714  1C14  2C17               	goto	l415
  8715                           	
  8716  1C15                     l413:	
  8717  1C15  2C17               	goto	l415
  8718                           	
  8719  1C16                     l414:	
  8720                           	line	798
  8721                           ;PR29.c: 798: while(WR)
  8722  1C16  2C17               	goto	l415
  8723                           	
  8724  1C17                     l416:	
  8725                           	line	799
  8726                           ;PR29.c: 799: continue;
  8727                           	
  8728  1C17                     l415:	
  8729                           	line	798
  8730  1C17  1683               	bsf	status, 5	;RP0=1, select bank3
  8731  1C18  1703               	bsf	status, 6	;RP1=1, select bank3
  8732  1C19  188C               	btfsc	(3169/8)^0180h,(3169)&7	;volatile
  8733  1C1A  2C1C               	goto	u1931
  8734  1C1B  2C1D               	goto	u1930
  8735  1C1C                     u1931:
  8736  1C1C  2C17               	goto	l415
  8737  1C1D                     u1930:
  8738  1C1D  2C1E               	goto	l418
  8739                           	
  8740  1C1E                     l417:	
  8741                           	line	800
  8742                           	
  8743  1C1E                     l418:	
  8744  1C1E  0008               	return
  8745                           	opt stack 0
  8746                           GLOBAL	__end_of_store_eeprom
  8747  1C1F                     	__end_of_store_eeprom:
  8748                           	signat	_store_eeprom,8312
  8749                           	global	_upload_GUI
  8750                           
  8751 ;; *************** function _upload_GUI *****************
  8752 ;; Defined at:
  8753 ;;		line 1085 in file "PR29.c"
  8754 ;; Parameters:    Size  Location     Type
  8755 ;;		None
  8756 ;; Auto vars:     Size  Location     Type
  8757 ;;  count           1    9[COMMON] unsigned char 
  8758 ;;  address         1    8[COMMON] unsigned char 
  8759 ;; Return value:  Size  Location     Type
  8760 ;;		None               void
  8761 ;; Registers used:
  8762 ;;		wreg, fsr0l, fsr0h, status,2, status,0, pclath, cstack
  8763 ;; Tracked objects:
  8764 ;;		On entry : 0/0
  8765 ;;		On exit  : 0/0
  8766 ;;		Unchanged: 0/0
  8767 ;; Data sizes:     COMMON   BANK0   BANK1   BANK3   BANK2
  8768 ;;      Params:         0       0       0       0       0
  8769 ;;      Locals:         2       0       0       0       0
  8770 ;;      Temps:          3       0       0       0       0
  8771 ;;      Totals:         5       0       0       0       0
  8772 ;;Total ram usage:        5 bytes
  8773 ;; Hardware stack levels used:    1
  8774 ;; Hardware stack levels required when called:    1
  8775 ;; This function calls:
  8776 ;;		_get_eeprom
  8777 ;;		_uart_write
  8778 ;; This function is called by:
  8779 ;;		_mode
  8780 ;; This function uses a non-reentrant model
  8781 ;;
  8782                           psect	text545,local,class=CODE,delta=2,merge=1
  8783                           global __ptext545
  8784  15AF                     __ptext545:
  8785                           psect	text545
  8786                           	file	"PR29.c"
  8787                           	line	1085
  8788                           	global	__size_of_upload_GUI
  8789  0251                     	__size_of_upload_GUI	equ	__end_of_upload_GUI-_upload_GUI
  8790                           	
  8791  15AF                     _upload_GUI:	
  8792                           	opt	stack 5
  8793                           ; Regs used in _upload_GUI: [wreg-fsr0h+status,2+status,0+pclath+cstack]
  8794                           	line	1089
  8795                           	
  8796  15AF                     l2796:	
  8797                           ;PR29.c: 1086: unsigned char address;
  8798                           ;PR29.c: 1087: unsigned char count;
  8799                           ;PR29.c: 1089: address=0x00;
  8800  15AF  01F8               	clrf	(upload_GUI@address)
  8801                           	line	1090
  8802                           	
  8803  15B0                     l2798:	
  8804                           ;PR29.c: 1090: count=address;
  8805  15B0  0878               	movf	(upload_GUI@address),w
  8806  15B1  00F5               	movwf	(??_upload_GUI+0)+0
  8807  15B2  0875               	movf	(??_upload_GUI+0)+0,w
  8808  15B3  00F9               	movwf	(upload_GUI@count)
  8809                           	line	1091
  8810  15B4  2DCF               	goto	l2806
  8811                           	line	1092
  8812                           	
  8813  15B5                     l506:	
  8814                           	line	1093
  8815                           	
  8816  15B5                     l2800:	
  8817                           ;PR29.c: 1092: {
  8818                           ;PR29.c: 1093: TEMP=get_eeprom(count);
  8819  15B5  0879               	movf	(upload_GUI@count),w
  8820  15B6  160A  158A  22B0   	fcall	_get_eeprom
              160A  118A         
  8821  15BB  00F5               	movwf	(??_upload_GUI+0)+0
  8822  15BC  0875               	movf	(??_upload_GUI+0)+0,w
  8823  15BD  1283               	bcf	status, 5	;RP0=0, select bank0
  8824  15BE  1303               	bcf	status, 6	;RP1=0, select bank0
  8825  15BF  00D6               	movwf	(_TEMP)
  8826                           	line	1094
  8827                           	
  8828  15C0                     l2802:	
  8829                           ;PR29.c: 1094: uart_write(2,TEMP);
  8830  15C0  0856               	movf	(_TEMP),w
  8831  15C1  00F5               	movwf	(??_upload_GUI+0)+0
  8832  15C2  0875               	movf	(??_upload_GUI+0)+0,w
  8833  15C3  00F0               	movwf	(?_uart_write)
  8834  15C4  3002               	movlw	(02h)
  8835  15C5  160A  158A  24D7   	fcall	_uart_write
              160A  118A         
  8836                           	line	1091
  8837                           	
  8838  15CA                     l2804:	
  8839  15CA  3001               	movlw	(01h)
  8840  15CB  00F5               	movwf	(??_upload_GUI+0)+0
  8841  15CC  0875               	movf	(??_upload_GUI+0)+0,w
  8842  15CD  07F9               	addwf	(upload_GUI@count),f
  8843  15CE  2DCF               	goto	l2806
  8844                           	
  8845  15CF                     l505:	
  8846                           	
  8847  15CF                     l2806:	
  8848  15CF  0878               	movf	(upload_GUI@address),w
  8849  15D0  3E03               	addlw	low(03h)
  8850  15D1  00F5               	movwf	(??_upload_GUI+0)+0
  8851  15D2  3000               	movlw	high(03h)
  8852  15D3  1803               	skipnc
  8853  15D4  3001               	movlw	(high(03h)+1)&0ffh
  8854  15D5  00F6               	movwf	((??_upload_GUI+0)+0)+1
  8855  15D6  0876               	movf	1+(??_upload_GUI+0)+0,w
  8856  15D7  3A80               	xorlw	80h
  8857  15D8  00F7               	movwf	(??_upload_GUI+2)+0
  8858  15D9  3080               	movlw	80h
  8859  15DA  0277               	subwf	(??_upload_GUI+2)+0,w
  8860  15DB  1D03               	skipz
  8861  15DC  2DDF               	goto	u2055
  8862  15DD  0879               	movf	(upload_GUI@count),w
  8863  15DE  0275               	subwf	0+(??_upload_GUI+0)+0,w
  8864  15DF                     u2055:
  8865                           
  8866  15DF  1803               	skipnc
  8867  15E0  2DE2               	goto	u2051
  8868  15E1  2DE3               	goto	u2050
  8869  15E2                     u2051:
  8870  15E2  2DB5               	goto	l2800
  8871  15E3                     u2050:
  8872  15E3  2DE4               	goto	l2808
  8873                           	
  8874  15E4                     l507:	
  8875                           	line	1096
  8876                           	
  8877  15E4                     l2808:	
  8878                           ;PR29.c: 1095: }
  8879                           ;PR29.c: 1096: address=count;
  8880  15E4  0879               	movf	(upload_GUI@count),w
  8881  15E5  00F5               	movwf	(??_upload_GUI+0)+0
  8882  15E6  0875               	movf	(??_upload_GUI+0)+0,w
  8883  15E7  00F8               	movwf	(upload_GUI@address)
  8884                           	line	1097
  8885  15E8  2E0E               	goto	l2820
  8886                           	line	1098
  8887                           	
  8888  15E9                     l509:	
  8889                           	line	1099
  8890                           	
  8891  15E9                     l2810:	
  8892                           ;PR29.c: 1098: {
  8893                           ;PR29.c: 1099: TEMP=get_eeprom(count);
  8894  15E9  0879               	movf	(upload_GUI@count),w
  8895  15EA  160A  158A  22B0   	fcall	_get_eeprom
              160A  118A         
  8896  15EF  00F5               	movwf	(??_upload_GUI+0)+0
  8897  15F0  0875               	movf	(??_upload_GUI+0)+0,w
  8898  15F1  1283               	bcf	status, 5	;RP0=0, select bank0
  8899  15F2  1303               	bcf	status, 6	;RP1=0, select bank0
  8900  15F3  00D6               	movwf	(_TEMP)
  8901                           	line	1100
  8902                           	
  8903  15F4                     l2812:	
  8904                           ;PR29.c: 1100: if(TEMP==0xff) TEMP=0x30;
  8905  15F4  0856               	movf	(_TEMP),w
  8906  15F5  3AFF               	xorlw	0FFh
  8907  15F6  1D03               	skipz
  8908  15F7  2DF9               	goto	u2061
  8909  15F8  2DFA               	goto	u2060
  8910  15F9                     u2061:
  8911  15F9  2DFF               	goto	l2816
  8912  15FA                     u2060:
  8913                           	
  8914  15FA                     l2814:	
  8915  15FA  3030               	movlw	(030h)
  8916  15FB  00F5               	movwf	(??_upload_GUI+0)+0
  8917  15FC  0875               	movf	(??_upload_GUI+0)+0,w
  8918  15FD  00D6               	movwf	(_TEMP)
  8919  15FE  2DFF               	goto	l2816
  8920                           	
  8921  15FF                     l510:	
  8922                           	line	1101
  8923                           	
  8924  15FF                     l2816:	
  8925                           ;PR29.c: 1101: uart_write(2,TEMP);
  8926  15FF  0856               	movf	(_TEMP),w
  8927  1600  00F5               	movwf	(??_upload_GUI+0)+0
  8928  1601  0875               	movf	(??_upload_GUI+0)+0,w
  8929  1602  00F0               	movwf	(?_uart_write)
  8930  1603  3002               	movlw	(02h)
  8931  1604  160A  158A  24D7   	fcall	_uart_write
              160A  118A         
  8932                           	line	1097
  8933                           	
  8934  1609                     l2818:	
  8935  1609  3001               	movlw	(01h)
  8936  160A  00F5               	movwf	(??_upload_GUI+0)+0
  8937  160B  0875               	movf	(??_upload_GUI+0)+0,w
  8938  160C  07F9               	addwf	(upload_GUI@count),f
  8939  160D  2E0E               	goto	l2820
  8940                           	
  8941  160E                     l508:	
  8942                           	
  8943  160E                     l2820:	
  8944  160E  0878               	movf	(upload_GUI@address),w
  8945  160F  3E04               	addlw	low(04h)
  8946  1610  00F5               	movwf	(??_upload_GUI+0)+0
  8947  1611  3000               	movlw	high(04h)
  8948  1612  1803               	skipnc
  8949  1613  3001               	movlw	(high(04h)+1)&0ffh
  8950  1614  00F6               	movwf	((??_upload_GUI+0)+0)+1
  8951  1615  0876               	movf	1+(??_upload_GUI+0)+0,w
  8952  1616  3A80               	xorlw	80h
  8953  1617  00F7               	movwf	(??_upload_GUI+2)+0
  8954  1618  3080               	movlw	80h
  8955  1619  0277               	subwf	(??_upload_GUI+2)+0,w
  8956  161A  1D03               	skipz
  8957  161B  2E1E               	goto	u2075
  8958  161C  0879               	movf	(upload_GUI@count),w
  8959  161D  0275               	subwf	0+(??_upload_GUI+0)+0,w
  8960  161E                     u2075:
  8961                           
  8962  161E  1803               	skipnc
  8963  161F  2E21               	goto	u2071
  8964  1620  2E22               	goto	u2070
  8965  1621                     u2071:
  8966  1621  2DE9               	goto	l2810
  8967  1622                     u2070:
  8968  1622  2E23               	goto	l2822
  8969                           	
  8970  1623                     l511:	
  8971                           	line	1104
  8972                           	
  8973  1623                     l2822:	
  8974                           ;PR29.c: 1102: }
  8975                           ;PR29.c: 1104: address=0x10;
  8976  1623  3010               	movlw	(010h)
  8977  1624  00F5               	movwf	(??_upload_GUI+0)+0
  8978  1625  0875               	movf	(??_upload_GUI+0)+0,w
  8979  1626  00F8               	movwf	(upload_GUI@address)
  8980                           	line	1105
  8981                           ;PR29.c: 1105: count=address;
  8982  1627  0878               	movf	(upload_GUI@address),w
  8983  1628  00F5               	movwf	(??_upload_GUI+0)+0
  8984  1629  0875               	movf	(??_upload_GUI+0)+0,w
  8985  162A  00F9               	movwf	(upload_GUI@count)
  8986                           	line	1106
  8987  162B  2E46               	goto	l2830
  8988                           	line	1107
  8989                           	
  8990  162C                     l513:	
  8991                           	line	1108
  8992                           	
  8993  162C                     l2824:	
  8994                           ;PR29.c: 1107: {
  8995                           ;PR29.c: 1108: TEMP=get_eeprom(count);
  8996  162C  0879               	movf	(upload_GUI@count),w
  8997  162D  160A  158A  22B0   	fcall	_get_eeprom
              160A  118A         
  8998  1632  00F5               	movwf	(??_upload_GUI+0)+0
  8999  1633  0875               	movf	(??_upload_GUI+0)+0,w
  9000  1634  1283               	bcf	status, 5	;RP0=0, select bank0
  9001  1635  1303               	bcf	status, 6	;RP1=0, select bank0
  9002  1636  00D6               	movwf	(_TEMP)
  9003                           	line	1109
  9004                           	
  9005  1637                     l2826:	
  9006                           ;PR29.c: 1109: uart_write(2,TEMP);
  9007  1637  0856               	movf	(_TEMP),w
  9008  1638  00F5               	movwf	(??_upload_GUI+0)+0
  9009  1639  0875               	movf	(??_upload_GUI+0)+0,w
  9010  163A  00F0               	movwf	(?_uart_write)
  9011  163B  3002               	movlw	(02h)
  9012  163C  160A  158A  24D7   	fcall	_uart_write
              160A  118A         
  9013                           	line	1106
  9014                           	
  9015  1641                     l2828:	
  9016  1641  3001               	movlw	(01h)
  9017  1642  00F5               	movwf	(??_upload_GUI+0)+0
  9018  1643  0875               	movf	(??_upload_GUI+0)+0,w
  9019  1644  07F9               	addwf	(upload_GUI@count),f
  9020  1645  2E46               	goto	l2830
  9021                           	
  9022  1646                     l512:	
  9023                           	
  9024  1646                     l2830:	
  9025  1646  0878               	movf	(upload_GUI@address),w
  9026  1647  3E03               	addlw	low(03h)
  9027  1648  00F5               	movwf	(??_upload_GUI+0)+0
  9028  1649  3000               	movlw	high(03h)
  9029  164A  1803               	skipnc
  9030  164B  3001               	movlw	(high(03h)+1)&0ffh
  9031  164C  00F6               	movwf	((??_upload_GUI+0)+0)+1
  9032  164D  0876               	movf	1+(??_upload_GUI+0)+0,w
  9033  164E  3A80               	xorlw	80h
  9034  164F  00F7               	movwf	(??_upload_GUI+2)+0
  9035  1650  3080               	movlw	80h
  9036  1651  0277               	subwf	(??_upload_GUI+2)+0,w
  9037  1652  1D03               	skipz
  9038  1653  2E56               	goto	u2085
  9039  1654  0879               	movf	(upload_GUI@count),w
  9040  1655  0275               	subwf	0+(??_upload_GUI+0)+0,w
  9041  1656                     u2085:
  9042                           
  9043  1656  1803               	skipnc
  9044  1657  2E59               	goto	u2081
  9045  1658  2E5A               	goto	u2080
  9046  1659                     u2081:
  9047  1659  2E2C               	goto	l2824
  9048  165A                     u2080:
  9049  165A  2E5B               	goto	l2832
  9050                           	
  9051  165B                     l514:	
  9052                           	line	1111
  9053                           	
  9054  165B                     l2832:	
  9055                           ;PR29.c: 1110: }
  9056                           ;PR29.c: 1111: address=count;
  9057  165B  0879               	movf	(upload_GUI@count),w
  9058  165C  00F5               	movwf	(??_upload_GUI+0)+0
  9059  165D  0875               	movf	(??_upload_GUI+0)+0,w
  9060  165E  00F8               	movwf	(upload_GUI@address)
  9061                           	line	1112
  9062  165F  2E85               	goto	l2844
  9063                           	line	1113
  9064                           	
  9065  1660                     l516:	
  9066                           	line	1114
  9067                           	
  9068  1660                     l2834:	
  9069                           ;PR29.c: 1113: {
  9070                           ;PR29.c: 1114: TEMP=get_eeprom(count);
  9071  1660  0879               	movf	(upload_GUI@count),w
  9072  1661  160A  158A  22B0   	fcall	_get_eeprom
              160A  118A         
  9073  1666  00F5               	movwf	(??_upload_GUI+0)+0
  9074  1667  0875               	movf	(??_upload_GUI+0)+0,w
  9075  1668  1283               	bcf	status, 5	;RP0=0, select bank0
  9076  1669  1303               	bcf	status, 6	;RP1=0, select bank0
  9077  166A  00D6               	movwf	(_TEMP)
  9078                           	line	1115
  9079                           	
  9080  166B                     l2836:	
  9081                           ;PR29.c: 1115: if(TEMP==0xff) TEMP=0x30;
  9082  166B  0856               	movf	(_TEMP),w
  9083  166C  3AFF               	xorlw	0FFh
  9084  166D  1D03               	skipz
  9085  166E  2E70               	goto	u2091
  9086  166F  2E71               	goto	u2090
  9087  1670                     u2091:
  9088  1670  2E76               	goto	l2840
  9089  1671                     u2090:
  9090                           	
  9091  1671                     l2838:	
  9092  1671  3030               	movlw	(030h)
  9093  1672  00F5               	movwf	(??_upload_GUI+0)+0
  9094  1673  0875               	movf	(??_upload_GUI+0)+0,w
  9095  1674  00D6               	movwf	(_TEMP)
  9096  1675  2E76               	goto	l2840
  9097                           	
  9098  1676                     l517:	
  9099                           	line	1116
  9100                           	
  9101  1676                     l2840:	
  9102                           ;PR29.c: 1116: uart_write(2,TEMP);
  9103  1676  0856               	movf	(_TEMP),w
  9104  1677  00F5               	movwf	(??_upload_GUI+0)+0
  9105  1678  0875               	movf	(??_upload_GUI+0)+0,w
  9106  1679  00F0               	movwf	(?_uart_write)
  9107  167A  3002               	movlw	(02h)
  9108  167B  160A  158A  24D7   	fcall	_uart_write
              160A  118A         
  9109                           	line	1112
  9110                           	
  9111  1680                     l2842:	
  9112  1680  3001               	movlw	(01h)
  9113  1681  00F5               	movwf	(??_upload_GUI+0)+0
  9114  1682  0875               	movf	(??_upload_GUI+0)+0,w
  9115  1683  07F9               	addwf	(upload_GUI@count),f
  9116  1684  2E85               	goto	l2844
  9117                           	
  9118  1685                     l515:	
  9119                           	
  9120  1685                     l2844:	
  9121  1685  0878               	movf	(upload_GUI@address),w
  9122  1686  3E04               	addlw	low(04h)
  9123  1687  00F5               	movwf	(??_upload_GUI+0)+0
  9124  1688  3000               	movlw	high(04h)
  9125  1689  1803               	skipnc
  9126  168A  3001               	movlw	(high(04h)+1)&0ffh
  9127  168B  00F6               	movwf	((??_upload_GUI+0)+0)+1
  9128  168C  0876               	movf	1+(??_upload_GUI+0)+0,w
  9129  168D  3A80               	xorlw	80h
  9130  168E  00F7               	movwf	(??_upload_GUI+2)+0
  9131  168F  3080               	movlw	80h
  9132  1690  0277               	subwf	(??_upload_GUI+2)+0,w
  9133  1691  1D03               	skipz
  9134  1692  2E95               	goto	u2105
  9135  1693  0879               	movf	(upload_GUI@count),w
  9136  1694  0275               	subwf	0+(??_upload_GUI+0)+0,w
  9137  1695                     u2105:
  9138                           
  9139  1695  1803               	skipnc
  9140  1696  2E98               	goto	u2101
  9141  1697  2E99               	goto	u2100
  9142  1698                     u2101:
  9143  1698  2E60               	goto	l2834
  9144  1699                     u2100:
  9145  1699  2E9A               	goto	l2846
  9146                           	
  9147  169A                     l518:	
  9148                           	line	1119
  9149                           	
  9150  169A                     l2846:	
  9151                           ;PR29.c: 1117: }
  9152                           ;PR29.c: 1119: address=0x20;
  9153  169A  3020               	movlw	(020h)
  9154  169B  00F5               	movwf	(??_upload_GUI+0)+0
  9155  169C  0875               	movf	(??_upload_GUI+0)+0,w
  9156  169D  00F8               	movwf	(upload_GUI@address)
  9157                           	line	1120
  9158                           ;PR29.c: 1120: count=address;
  9159  169E  0878               	movf	(upload_GUI@address),w
  9160  169F  00F5               	movwf	(??_upload_GUI+0)+0
  9161  16A0  0875               	movf	(??_upload_GUI+0)+0,w
  9162  16A1  00F9               	movwf	(upload_GUI@count)
  9163                           	line	1121
  9164  16A2  2EBD               	goto	l2854
  9165                           	line	1122
  9166                           	
  9167  16A3                     l520:	
  9168                           	line	1123
  9169                           	
  9170  16A3                     l2848:	
  9171                           ;PR29.c: 1122: {
  9172                           ;PR29.c: 1123: TEMP=get_eeprom(count);
  9173  16A3  0879               	movf	(upload_GUI@count),w
  9174  16A4  160A  158A  22B0   	fcall	_get_eeprom
              160A  118A         
  9175  16A9  00F5               	movwf	(??_upload_GUI+0)+0
  9176  16AA  0875               	movf	(??_upload_GUI+0)+0,w
  9177  16AB  1283               	bcf	status, 5	;RP0=0, select bank0
  9178  16AC  1303               	bcf	status, 6	;RP1=0, select bank0
  9179  16AD  00D6               	movwf	(_TEMP)
  9180                           	line	1124
  9181                           	
  9182  16AE                     l2850:	
  9183                           ;PR29.c: 1124: uart_write(2,TEMP);
  9184  16AE  0856               	movf	(_TEMP),w
  9185  16AF  00F5               	movwf	(??_upload_GUI+0)+0
  9186  16B0  0875               	movf	(??_upload_GUI+0)+0,w
  9187  16B1  00F0               	movwf	(?_uart_write)
  9188  16B2  3002               	movlw	(02h)
  9189  16B3  160A  158A  24D7   	fcall	_uart_write
              160A  118A         
  9190                           	line	1121
  9191                           	
  9192  16B8                     l2852:	
  9193  16B8  3001               	movlw	(01h)
  9194  16B9  00F5               	movwf	(??_upload_GUI+0)+0
  9195  16BA  0875               	movf	(??_upload_GUI+0)+0,w
  9196  16BB  07F9               	addwf	(upload_GUI@count),f
  9197  16BC  2EBD               	goto	l2854
  9198                           	
  9199  16BD                     l519:	
  9200                           	
  9201  16BD                     l2854:	
  9202  16BD  0878               	movf	(upload_GUI@address),w
  9203  16BE  3E03               	addlw	low(03h)
  9204  16BF  00F5               	movwf	(??_upload_GUI+0)+0
  9205  16C0  3000               	movlw	high(03h)
  9206  16C1  1803               	skipnc
  9207  16C2  3001               	movlw	(high(03h)+1)&0ffh
  9208  16C3  00F6               	movwf	((??_upload_GUI+0)+0)+1
  9209  16C4  0876               	movf	1+(??_upload_GUI+0)+0,w
  9210  16C5  3A80               	xorlw	80h
  9211  16C6  00F7               	movwf	(??_upload_GUI+2)+0
  9212  16C7  3080               	movlw	80h
  9213  16C8  0277               	subwf	(??_upload_GUI+2)+0,w
  9214  16C9  1D03               	skipz
  9215  16CA  2ECD               	goto	u2115
  9216  16CB  0879               	movf	(upload_GUI@count),w
  9217  16CC  0275               	subwf	0+(??_upload_GUI+0)+0,w
  9218  16CD                     u2115:
  9219                           
  9220  16CD  1803               	skipnc
  9221  16CE  2ED0               	goto	u2111
  9222  16CF  2ED1               	goto	u2110
  9223  16D0                     u2111:
  9224  16D0  2EA3               	goto	l2848
  9225  16D1                     u2110:
  9226  16D1  2ED2               	goto	l2856
  9227                           	
  9228  16D2                     l521:	
  9229                           	line	1126
  9230                           	
  9231  16D2                     l2856:	
  9232                           ;PR29.c: 1125: }
  9233                           ;PR29.c: 1126: address=count;
  9234  16D2  0879               	movf	(upload_GUI@count),w
  9235  16D3  00F5               	movwf	(??_upload_GUI+0)+0
  9236  16D4  0875               	movf	(??_upload_GUI+0)+0,w
  9237  16D5  00F8               	movwf	(upload_GUI@address)
  9238                           	line	1127
  9239  16D6  2EFC               	goto	l2868
  9240                           	line	1128
  9241                           	
  9242  16D7                     l523:	
  9243                           	line	1129
  9244                           	
  9245  16D7                     l2858:	
  9246                           ;PR29.c: 1128: {
  9247                           ;PR29.c: 1129: TEMP=get_eeprom(count);
  9248  16D7  0879               	movf	(upload_GUI@count),w
  9249  16D8  160A  158A  22B0   	fcall	_get_eeprom
              160A  118A         
  9250  16DD  00F5               	movwf	(??_upload_GUI+0)+0
  9251  16DE  0875               	movf	(??_upload_GUI+0)+0,w
  9252  16DF  1283               	bcf	status, 5	;RP0=0, select bank0
  9253  16E0  1303               	bcf	status, 6	;RP1=0, select bank0
  9254  16E1  00D6               	movwf	(_TEMP)
  9255                           	line	1130
  9256                           	
  9257  16E2                     l2860:	
  9258                           ;PR29.c: 1130: if(TEMP==0xff) TEMP=0x30;
  9259  16E2  0856               	movf	(_TEMP),w
  9260  16E3  3AFF               	xorlw	0FFh
  9261  16E4  1D03               	skipz
  9262  16E5  2EE7               	goto	u2121
  9263  16E6  2EE8               	goto	u2120
  9264  16E7                     u2121:
  9265  16E7  2EED               	goto	l2864
  9266  16E8                     u2120:
  9267                           	
  9268  16E8                     l2862:	
  9269  16E8  3030               	movlw	(030h)
  9270  16E9  00F5               	movwf	(??_upload_GUI+0)+0
  9271  16EA  0875               	movf	(??_upload_GUI+0)+0,w
  9272  16EB  00D6               	movwf	(_TEMP)
  9273  16EC  2EED               	goto	l2864
  9274                           	
  9275  16ED                     l524:	
  9276                           	line	1131
  9277                           	
  9278  16ED                     l2864:	
  9279                           ;PR29.c: 1131: uart_write(2,TEMP);
  9280  16ED  0856               	movf	(_TEMP),w
  9281  16EE  00F5               	movwf	(??_upload_GUI+0)+0
  9282  16EF  0875               	movf	(??_upload_GUI+0)+0,w
  9283  16F0  00F0               	movwf	(?_uart_write)
  9284  16F1  3002               	movlw	(02h)
  9285  16F2  160A  158A  24D7   	fcall	_uart_write
              160A  118A         
  9286                           	line	1127
  9287                           	
  9288  16F7                     l2866:	
  9289  16F7  3001               	movlw	(01h)
  9290  16F8  00F5               	movwf	(??_upload_GUI+0)+0
  9291  16F9  0875               	movf	(??_upload_GUI+0)+0,w
  9292  16FA  07F9               	addwf	(upload_GUI@count),f
  9293  16FB  2EFC               	goto	l2868
  9294                           	
  9295  16FC                     l522:	
  9296                           	
  9297  16FC                     l2868:	
  9298  16FC  0878               	movf	(upload_GUI@address),w
  9299  16FD  3E04               	addlw	low(04h)
  9300  16FE  00F5               	movwf	(??_upload_GUI+0)+0
  9301  16FF  3000               	movlw	high(04h)
  9302  1700  1803               	skipnc
  9303  1701  3001               	movlw	(high(04h)+1)&0ffh
  9304  1702  00F6               	movwf	((??_upload_GUI+0)+0)+1
  9305  1703  0876               	movf	1+(??_upload_GUI+0)+0,w
  9306  1704  3A80               	xorlw	80h
  9307  1705  00F7               	movwf	(??_upload_GUI+2)+0
  9308  1706  3080               	movlw	80h
  9309  1707  0277               	subwf	(??_upload_GUI+2)+0,w
  9310  1708  1D03               	skipz
  9311  1709  2F0C               	goto	u2135
  9312  170A  0879               	movf	(upload_GUI@count),w
  9313  170B  0275               	subwf	0+(??_upload_GUI+0)+0,w
  9314  170C                     u2135:
  9315                           
  9316  170C  1803               	skipnc
  9317  170D  2F0F               	goto	u2131
  9318  170E  2F10               	goto	u2130
  9319  170F                     u2131:
  9320  170F  2ED7               	goto	l2858
  9321  1710                     u2130:
  9322  1710  2F11               	goto	l2870
  9323                           	
  9324  1711                     l525:	
  9325                           	line	1134
  9326                           	
  9327  1711                     l2870:	
  9328                           ;PR29.c: 1132: }
  9329                           ;PR29.c: 1134: address=0x30;
  9330  1711  3030               	movlw	(030h)
  9331  1712  00F5               	movwf	(??_upload_GUI+0)+0
  9332  1713  0875               	movf	(??_upload_GUI+0)+0,w
  9333  1714  00F8               	movwf	(upload_GUI@address)
  9334                           	line	1135
  9335                           ;PR29.c: 1135: count=address;
  9336  1715  0878               	movf	(upload_GUI@address),w
  9337  1716  00F5               	movwf	(??_upload_GUI+0)+0
  9338  1717  0875               	movf	(??_upload_GUI+0)+0,w
  9339  1718  00F9               	movwf	(upload_GUI@count)
  9340                           	line	1136
  9341  1719  2F34               	goto	l2878
  9342                           	line	1137
  9343                           	
  9344  171A                     l527:	
  9345                           	line	1138
  9346                           	
  9347  171A                     l2872:	
  9348                           ;PR29.c: 1137: {
  9349                           ;PR29.c: 1138: TEMP=get_eeprom(count);
  9350  171A  0879               	movf	(upload_GUI@count),w
  9351  171B  160A  158A  22B0   	fcall	_get_eeprom
              160A  118A         
  9352  1720  00F5               	movwf	(??_upload_GUI+0)+0
  9353  1721  0875               	movf	(??_upload_GUI+0)+0,w
  9354  1722  1283               	bcf	status, 5	;RP0=0, select bank0
  9355  1723  1303               	bcf	status, 6	;RP1=0, select bank0
  9356  1724  00D6               	movwf	(_TEMP)
  9357                           	line	1139
  9358                           	
  9359  1725                     l2874:	
  9360                           ;PR29.c: 1139: uart_write(2,TEMP);
  9361  1725  0856               	movf	(_TEMP),w
  9362  1726  00F5               	movwf	(??_upload_GUI+0)+0
  9363  1727  0875               	movf	(??_upload_GUI+0)+0,w
  9364  1728  00F0               	movwf	(?_uart_write)
  9365  1729  3002               	movlw	(02h)
  9366  172A  160A  158A  24D7   	fcall	_uart_write
              160A  118A         
  9367                           	line	1136
  9368                           	
  9369  172F                     l2876:	
  9370  172F  3001               	movlw	(01h)
  9371  1730  00F5               	movwf	(??_upload_GUI+0)+0
  9372  1731  0875               	movf	(??_upload_GUI+0)+0,w
  9373  1732  07F9               	addwf	(upload_GUI@count),f
  9374  1733  2F34               	goto	l2878
  9375                           	
  9376  1734                     l526:	
  9377                           	
  9378  1734                     l2878:	
  9379  1734  0878               	movf	(upload_GUI@address),w
  9380  1735  3E03               	addlw	low(03h)
  9381  1736  00F5               	movwf	(??_upload_GUI+0)+0
  9382  1737  3000               	movlw	high(03h)
  9383  1738  1803               	skipnc
  9384  1739  3001               	movlw	(high(03h)+1)&0ffh
  9385  173A  00F6               	movwf	((??_upload_GUI+0)+0)+1
  9386  173B  0876               	movf	1+(??_upload_GUI+0)+0,w
  9387  173C  3A80               	xorlw	80h
  9388  173D  00F7               	movwf	(??_upload_GUI+2)+0
  9389  173E  3080               	movlw	80h
  9390  173F  0277               	subwf	(??_upload_GUI+2)+0,w
  9391  1740  1D03               	skipz
  9392  1741  2F44               	goto	u2145
  9393  1742  0879               	movf	(upload_GUI@count),w
  9394  1743  0275               	subwf	0+(??_upload_GUI+0)+0,w
  9395  1744                     u2145:
  9396                           
  9397  1744  1803               	skipnc
  9398  1745  2F47               	goto	u2141
  9399  1746  2F48               	goto	u2140
  9400  1747                     u2141:
  9401  1747  2F1A               	goto	l2872
  9402  1748                     u2140:
  9403  1748  2F49               	goto	l2880
  9404                           	
  9405  1749                     l528:	
  9406                           	line	1141
  9407                           	
  9408  1749                     l2880:	
  9409                           ;PR29.c: 1140: }
  9410                           ;PR29.c: 1141: address=count;
  9411  1749  0879               	movf	(upload_GUI@count),w
  9412  174A  00F5               	movwf	(??_upload_GUI+0)+0
  9413  174B  0875               	movf	(??_upload_GUI+0)+0,w
  9414  174C  00F8               	movwf	(upload_GUI@address)
  9415                           	line	1142
  9416  174D  2F73               	goto	l2892
  9417                           	line	1143
  9418                           	
  9419  174E                     l530:	
  9420                           	line	1144
  9421                           	
  9422  174E                     l2882:	
  9423                           ;PR29.c: 1143: {
  9424                           ;PR29.c: 1144: TEMP=get_eeprom(count);
  9425  174E  0879               	movf	(upload_GUI@count),w
  9426  174F  160A  158A  22B0   	fcall	_get_eeprom
              160A  118A         
  9427  1754  00F5               	movwf	(??_upload_GUI+0)+0
  9428  1755  0875               	movf	(??_upload_GUI+0)+0,w
  9429  1756  1283               	bcf	status, 5	;RP0=0, select bank0
  9430  1757  1303               	bcf	status, 6	;RP1=0, select bank0
  9431  1758  00D6               	movwf	(_TEMP)
  9432                           	line	1145
  9433                           	
  9434  1759                     l2884:	
  9435                           ;PR29.c: 1145: if(TEMP==0xff) TEMP=0x30;
  9436  1759  0856               	movf	(_TEMP),w
  9437  175A  3AFF               	xorlw	0FFh
  9438  175B  1D03               	skipz
  9439  175C  2F5E               	goto	u2151
  9440  175D  2F5F               	goto	u2150
  9441  175E                     u2151:
  9442  175E  2F64               	goto	l2888
  9443  175F                     u2150:
  9444                           	
  9445  175F                     l2886:	
  9446  175F  3030               	movlw	(030h)
  9447  1760  00F5               	movwf	(??_upload_GUI+0)+0
  9448  1761  0875               	movf	(??_upload_GUI+0)+0,w
  9449  1762  00D6               	movwf	(_TEMP)
  9450  1763  2F64               	goto	l2888
  9451                           	
  9452  1764                     l531:	
  9453                           	line	1146
  9454                           	
  9455  1764                     l2888:	
  9456                           ;PR29.c: 1146: uart_write(2,TEMP);
  9457  1764  0856               	movf	(_TEMP),w
  9458  1765  00F5               	movwf	(??_upload_GUI+0)+0
  9459  1766  0875               	movf	(??_upload_GUI+0)+0,w
  9460  1767  00F0               	movwf	(?_uart_write)
  9461  1768  3002               	movlw	(02h)
  9462  1769  160A  158A  24D7   	fcall	_uart_write
              160A  118A         
  9463                           	line	1142
  9464                           	
  9465  176E                     l2890:	
  9466  176E  3001               	movlw	(01h)
  9467  176F  00F5               	movwf	(??_upload_GUI+0)+0
  9468  1770  0875               	movf	(??_upload_GUI+0)+0,w
  9469  1771  07F9               	addwf	(upload_GUI@count),f
  9470  1772  2F73               	goto	l2892
  9471                           	
  9472  1773                     l529:	
  9473                           	
  9474  1773                     l2892:	
  9475  1773  0878               	movf	(upload_GUI@address),w
  9476  1774  3E04               	addlw	low(04h)
  9477  1775  00F5               	movwf	(??_upload_GUI+0)+0
  9478  1776  3000               	movlw	high(04h)
  9479  1777  1803               	skipnc
  9480  1778  3001               	movlw	(high(04h)+1)&0ffh
  9481  1779  00F6               	movwf	((??_upload_GUI+0)+0)+1
  9482  177A  0876               	movf	1+(??_upload_GUI+0)+0,w
  9483  177B  3A80               	xorlw	80h
  9484  177C  00F7               	movwf	(??_upload_GUI+2)+0
  9485  177D  3080               	movlw	80h
  9486  177E  0277               	subwf	(??_upload_GUI+2)+0,w
  9487  177F  1D03               	skipz
  9488  1780  2F83               	goto	u2165
  9489  1781  0879               	movf	(upload_GUI@count),w
  9490  1782  0275               	subwf	0+(??_upload_GUI+0)+0,w
  9491  1783                     u2165:
  9492                           
  9493  1783  1803               	skipnc
  9494  1784  2F86               	goto	u2161
  9495  1785  2F87               	goto	u2160
  9496  1786                     u2161:
  9497  1786  2F4E               	goto	l2882
  9498  1787                     u2160:
  9499  1787  2F88               	goto	l2894
  9500                           	
  9501  1788                     l532:	
  9502                           	line	1149
  9503                           	
  9504  1788                     l2894:	
  9505                           ;PR29.c: 1147: }
  9506                           ;PR29.c: 1149: address=0x40;
  9507  1788  3040               	movlw	(040h)
  9508  1789  00F5               	movwf	(??_upload_GUI+0)+0
  9509  178A  0875               	movf	(??_upload_GUI+0)+0,w
  9510  178B  00F8               	movwf	(upload_GUI@address)
  9511                           	line	1150
  9512                           ;PR29.c: 1150: count=address;
  9513  178C  0878               	movf	(upload_GUI@address),w
  9514  178D  00F5               	movwf	(??_upload_GUI+0)+0
  9515  178E  0875               	movf	(??_upload_GUI+0)+0,w
  9516  178F  00F9               	movwf	(upload_GUI@count)
  9517                           	line	1151
  9518  1790  2FAB               	goto	l2902
  9519                           	line	1152
  9520                           	
  9521  1791                     l534:	
  9522                           	line	1153
  9523                           	
  9524  1791                     l2896:	
  9525                           ;PR29.c: 1152: {
  9526                           ;PR29.c: 1153: TEMP=get_eeprom(count);
  9527  1791  0879               	movf	(upload_GUI@count),w
  9528  1792  160A  158A  22B0   	fcall	_get_eeprom
              160A  118A         
  9529  1797  00F5               	movwf	(??_upload_GUI+0)+0
  9530  1798  0875               	movf	(??_upload_GUI+0)+0,w
  9531  1799  1283               	bcf	status, 5	;RP0=0, select bank0
  9532  179A  1303               	bcf	status, 6	;RP1=0, select bank0
  9533  179B  00D6               	movwf	(_TEMP)
  9534                           	line	1154
  9535                           	
  9536  179C                     l2898:	
  9537                           ;PR29.c: 1154: uart_write(2,TEMP);
  9538  179C  0856               	movf	(_TEMP),w
  9539  179D  00F5               	movwf	(??_upload_GUI+0)+0
  9540  179E  0875               	movf	(??_upload_GUI+0)+0,w
  9541  179F  00F0               	movwf	(?_uart_write)
  9542  17A0  3002               	movlw	(02h)
  9543  17A1  160A  158A  24D7   	fcall	_uart_write
              160A  118A         
  9544                           	line	1151
  9545                           	
  9546  17A6                     l2900:	
  9547  17A6  3001               	movlw	(01h)
  9548  17A7  00F5               	movwf	(??_upload_GUI+0)+0
  9549  17A8  0875               	movf	(??_upload_GUI+0)+0,w
  9550  17A9  07F9               	addwf	(upload_GUI@count),f
  9551  17AA  2FAB               	goto	l2902
  9552                           	
  9553  17AB                     l533:	
  9554                           	
  9555  17AB                     l2902:	
  9556  17AB  0878               	movf	(upload_GUI@address),w
  9557  17AC  3E03               	addlw	low(03h)
  9558  17AD  00F5               	movwf	(??_upload_GUI+0)+0
  9559  17AE  3000               	movlw	high(03h)
  9560  17AF  1803               	skipnc
  9561  17B0  3001               	movlw	(high(03h)+1)&0ffh
  9562  17B1  00F6               	movwf	((??_upload_GUI+0)+0)+1
  9563  17B2  0876               	movf	1+(??_upload_GUI+0)+0,w
  9564  17B3  3A80               	xorlw	80h
  9565  17B4  00F7               	movwf	(??_upload_GUI+2)+0
  9566  17B5  3080               	movlw	80h
  9567  17B6  0277               	subwf	(??_upload_GUI+2)+0,w
  9568  17B7  1D03               	skipz
  9569  17B8  2FBB               	goto	u2175
  9570  17B9  0879               	movf	(upload_GUI@count),w
  9571  17BA  0275               	subwf	0+(??_upload_GUI+0)+0,w
  9572  17BB                     u2175:
  9573                           
  9574  17BB  1803               	skipnc
  9575  17BC  2FBE               	goto	u2171
  9576  17BD  2FBF               	goto	u2170
  9577  17BE                     u2171:
  9578  17BE  2F91               	goto	l2896
  9579  17BF                     u2170:
  9580  17BF  2FC0               	goto	l2904
  9581                           	
  9582  17C0                     l535:	
  9583                           	line	1156
  9584                           	
  9585  17C0                     l2904:	
  9586                           ;PR29.c: 1155: }
  9587                           ;PR29.c: 1156: address=count;
  9588  17C0  0879               	movf	(upload_GUI@count),w
  9589  17C1  00F5               	movwf	(??_upload_GUI+0)+0
  9590  17C2  0875               	movf	(??_upload_GUI+0)+0,w
  9591  17C3  00F8               	movwf	(upload_GUI@address)
  9592                           	line	1157
  9593  17C4  2FEA               	goto	l2916
  9594                           	line	1158
  9595                           	
  9596  17C5                     l537:	
  9597                           	line	1159
  9598                           	
  9599  17C5                     l2906:	
  9600                           ;PR29.c: 1158: {
  9601                           ;PR29.c: 1159: TEMP=get_eeprom(count);
  9602  17C5  0879               	movf	(upload_GUI@count),w
  9603  17C6  160A  158A  22B0   	fcall	_get_eeprom
              160A  118A         
  9604  17CB  00F5               	movwf	(??_upload_GUI+0)+0
  9605  17CC  0875               	movf	(??_upload_GUI+0)+0,w
  9606  17CD  1283               	bcf	status, 5	;RP0=0, select bank0
  9607  17CE  1303               	bcf	status, 6	;RP1=0, select bank0
  9608  17CF  00D6               	movwf	(_TEMP)
  9609                           	line	1160
  9610                           	
  9611  17D0                     l2908:	
  9612                           ;PR29.c: 1160: if(TEMP==0xff) TEMP=0x30;
  9613  17D0  0856               	movf	(_TEMP),w
  9614  17D1  3AFF               	xorlw	0FFh
  9615  17D2  1D03               	skipz
  9616  17D3  2FD5               	goto	u2181
  9617  17D4  2FD6               	goto	u2180
  9618  17D5                     u2181:
  9619  17D5  2FDB               	goto	l2912
  9620  17D6                     u2180:
  9621                           	
  9622  17D6                     l2910:	
  9623  17D6  3030               	movlw	(030h)
  9624  17D7  00F5               	movwf	(??_upload_GUI+0)+0
  9625  17D8  0875               	movf	(??_upload_GUI+0)+0,w
  9626  17D9  00D6               	movwf	(_TEMP)
  9627  17DA  2FDB               	goto	l2912
  9628                           	
  9629  17DB                     l538:	
  9630                           	line	1161
  9631                           	
  9632  17DB                     l2912:	
  9633                           ;PR29.c: 1161: uart_write(2,TEMP);
  9634  17DB  0856               	movf	(_TEMP),w
  9635  17DC  00F5               	movwf	(??_upload_GUI+0)+0
  9636  17DD  0875               	movf	(??_upload_GUI+0)+0,w
  9637  17DE  00F0               	movwf	(?_uart_write)
  9638  17DF  3002               	movlw	(02h)
  9639  17E0  160A  158A  24D7   	fcall	_uart_write
              160A  118A         
  9640                           	line	1157
  9641                           	
  9642  17E5                     l2914:	
  9643  17E5  3001               	movlw	(01h)
  9644  17E6  00F5               	movwf	(??_upload_GUI+0)+0
  9645  17E7  0875               	movf	(??_upload_GUI+0)+0,w
  9646  17E8  07F9               	addwf	(upload_GUI@count),f
  9647  17E9  2FEA               	goto	l2916
  9648                           	
  9649  17EA                     l536:	
  9650                           	
  9651  17EA                     l2916:	
  9652  17EA  0878               	movf	(upload_GUI@address),w
  9653  17EB  3E04               	addlw	low(04h)
  9654  17EC  00F5               	movwf	(??_upload_GUI+0)+0
  9655  17ED  3000               	movlw	high(04h)
  9656  17EE  1803               	skipnc
  9657  17EF  3001               	movlw	(high(04h)+1)&0ffh
  9658  17F0  00F6               	movwf	((??_upload_GUI+0)+0)+1
  9659  17F1  0876               	movf	1+(??_upload_GUI+0)+0,w
  9660  17F2  3A80               	xorlw	80h
  9661  17F3  00F7               	movwf	(??_upload_GUI+2)+0
  9662  17F4  3080               	movlw	80h
  9663  17F5  0277               	subwf	(??_upload_GUI+2)+0,w
  9664  17F6  1D03               	skipz
  9665  17F7  2FFA               	goto	u2195
  9666  17F8  0879               	movf	(upload_GUI@count),w
  9667  17F9  0275               	subwf	0+(??_upload_GUI+0)+0,w
  9668  17FA                     u2195:
  9669                           
  9670  17FA  1803               	skipnc
  9671  17FB  2FFD               	goto	u2191
  9672  17FC  2FFE               	goto	u2190
  9673  17FD                     u2191:
  9674  17FD  2FC5               	goto	l2906
  9675  17FE                     u2190:
  9676  17FE  2FFF               	goto	l540
  9677                           	
  9678  17FF                     l539:	
  9679                           	line	1164
  9680                           	
  9681  17FF                     l540:	
  9682  17FF  0008               	return
  9683                           	opt stack 0
  9684                           GLOBAL	__end_of_upload_GUI
  9685  1800                     	__end_of_upload_GUI:
  9686                           	signat	_upload_GUI,88
  9687                           	global	_upload_HT
  9688                           
  9689 ;; *************** function _upload_HT *****************
  9690 ;; Defined at:
  9691 ;;		line 966 in file "PR29.c"
  9692 ;; Parameters:    Size  Location     Type
  9693 ;;		None
  9694 ;; Auto vars:     Size  Location     Type
  9695 ;;  array_title    40    0[BANK0 ] unsigned char [40]
  9696 ;;  count           1   41[BANK0 ] unsigned char 
  9697 ;;  address         1   40[BANK0 ] unsigned char 
  9698 ;; Return value:  Size  Location     Type
  9699 ;;		None               void
  9700 ;; Registers used:
  9701 ;;		wreg, fsr0l, fsr0h, status,2, status,0, pclath, cstack
  9702 ;; Tracked objects:
  9703 ;;		On entry : 0/0
  9704 ;;		On exit  : 0/0
  9705 ;;		Unchanged: 0/0
  9706 ;; Data sizes:     COMMON   BANK0   BANK1   BANK3   BANK2
  9707 ;;      Params:         0       0       0       0       0
  9708 ;;      Locals:         0      42       0       0       0
  9709 ;;      Temps:          4       0       0       0       0
  9710 ;;      Totals:         4      42       0       0       0
  9711 ;;Total ram usage:       46 bytes
  9712 ;; Hardware stack levels used:    1
  9713 ;; Hardware stack levels required when called:    2
  9714 ;; This function calls:
  9715 ;;		_uart_write
  9716 ;;		_allign
  9717 ;;		_get_eeprom
  9718 ;; This function is called by:
  9719 ;;		_mode
  9720 ;; This function uses a non-reentrant model
  9721 ;;
  9722                           psect	text546,local,class=CODE,delta=2,merge=1
  9723                           global __ptext546
  9724  0BF2                     __ptext546:
  9725                           psect	text546
  9726                           	file	"PR29.c"
  9727                           	line	966
  9728                           	global	__size_of_upload_HT
  9729  040E                     	__size_of_upload_HT	equ	__end_of_upload_HT-_upload_HT
  9730                           	
  9731  0BF2                     _upload_HT:	
  9732                           	opt	stack 4
  9733                           ; Regs used in _upload_HT: [wreg-fsr0h+status,2+status,0+pclath+cstack]
  9734                           	line	969
  9735                           	
  9736  0BF2                     l3056:	
  9737                           ;PR29.c: 967: unsigned char address;
  9738                           ;PR29.c: 968: unsigned char count;
  9739                           ;PR29.c: 969: unsigned char array_title[40]= {"+-+-+- Attendance List -+-+- Cytron PR29"
                                 };
  9740  0BF2  3020               	movlw	(upload_HT@array_title)&0ffh
  9741  0BF3  0084               	movwf	fsr0
  9742  0BF4  30A0               	movlw	low(upload_HT@F1243)
  9743  0BF5  00F7               	movwf	(??_upload_HT+0)+0
  9744  0BF6  0804               	movf	fsr0,w
  9745  0BF7  00F8               	movwf	((??_upload_HT+0)+0+1)
  9746  0BF8  3028               	movlw	40
  9747  0BF9  00F9               	movwf	((??_upload_HT+0)+0+2)
  9748  0BFA                     u2420:
  9749  0BFA  0877               	movf	(??_upload_HT+0)+0,w
  9750  0BFB  0084               	movwf	fsr0
  9751  0BFC  1383               	bcf	status, 7	;select IRP bank1
  9752                           	
  9753  0BFD  0800               	movf	indf,w
  9754  0BFE  00FA               	movwf	((??_upload_HT+0)+0+3)
  9755  0BFF  0AF7               	incf	(??_upload_HT+0)+0,f
  9756  0C00  0878               	movf	((??_upload_HT+0)+0+1),w
  9757  0C01  0084               	movwf	fsr0
  9758                           	
  9759  0C02  087A               	movf	((??_upload_HT+0)+0+3),w
  9760  0C03  0080               	movwf	indf
  9761  0C04  0AF8               	incf	((??_upload_HT+0)+0+1),f
  9762  0C05  0BF9               	decfsz	((??_upload_HT+0)+0+2),f
  9763  0C06  2BFA               	goto	u2420
  9764                           	line	971
  9765                           	
  9766  0C07                     l3058:	
  9767                           ;PR29.c: 971: for(count=0;count<40;count++)
  9768  0C07  1283               	bcf	status, 5	;RP0=0, select bank0
  9769  0C08  1303               	bcf	status, 6	;RP1=0, select bank0
  9770  0C09  01C9               	clrf	(upload_HT@count)
  9771                           	
  9772  0C0A                     l3060:	
  9773  0C0A  3028               	movlw	(028h)
  9774  0C0B  0249               	subwf	(upload_HT@count),w
  9775  0C0C  1C03               	skipc
  9776  0C0D  2C0F               	goto	u2431
  9777  0C0E  2C10               	goto	u2430
  9778  0C0F                     u2431:
  9779  0C0F  2C12               	goto	l3064
  9780  0C10                     u2430:
  9781  0C10  2C2C               	goto	l456
  9782                           	
  9783  0C11                     l3062:	
  9784  0C11  2C2C               	goto	l456
  9785                           	line	972
  9786                           	
  9787  0C12                     l455:	
  9788                           	
  9789  0C12                     l3064:	
  9790                           ;PR29.c: 972: uart_write(2,array_title[count]);
  9791  0C12  0849               	movf	(upload_HT@count),w
  9792  0C13  3E20               	addlw	upload_HT@array_title&0ffh
  9793  0C14  0084               	movwf	fsr0
  9794  0C15  1383               	bcf	status, 7	;select IRP bank0
  9795  0C16  0800               	movf	indf,w
  9796  0C17  00F7               	movwf	(??_upload_HT+0)+0
  9797  0C18  0877               	movf	(??_upload_HT+0)+0,w
  9798  0C19  00F0               	movwf	(?_uart_write)
  9799  0C1A  3002               	movlw	(02h)
  9800  0C1B  160A  158A  24D7   	fcall	_uart_write
              120A  158A         
  9801                           	line	971
  9802                           	
  9803  0C20                     l3066:	
  9804  0C20  3001               	movlw	(01h)
  9805  0C21  00F7               	movwf	(??_upload_HT+0)+0
  9806  0C22  0877               	movf	(??_upload_HT+0)+0,w
  9807  0C23  1283               	bcf	status, 5	;RP0=0, select bank0
  9808  0C24  1303               	bcf	status, 6	;RP1=0, select bank0
  9809  0C25  07C9               	addwf	(upload_HT@count),f
  9810                           	
  9811  0C26                     l3068:	
  9812  0C26  3028               	movlw	(028h)
  9813  0C27  0249               	subwf	(upload_HT@count),w
  9814  0C28  1C03               	skipc
  9815  0C29  2C2B               	goto	u2441
  9816  0C2A  2C2C               	goto	u2440
  9817  0C2B                     u2441:
  9818  0C2B  2C12               	goto	l3064
  9819  0C2C                     u2440:
  9820                           	
  9821  0C2C                     l456:	
  9822                           	line	973
  9823                           ;PR29.c: 973: for(count=0;count<20;count++)
  9824  0C2C  01C9               	clrf	(upload_HT@count)
  9825                           	
  9826  0C2D                     l3070:	
  9827  0C2D  3014               	movlw	(014h)
  9828  0C2E  0249               	subwf	(upload_HT@count),w
  9829  0C2F  1C03               	skipc
  9830  0C30  2C32               	goto	u2451
  9831  0C31  2C33               	goto	u2450
  9832  0C32                     u2451:
  9833  0C32  2C35               	goto	l3074
  9834  0C33                     u2450:
  9835  0C33  2C55               	goto	l458
  9836                           	
  9837  0C34                     l3072:	
  9838  0C34  2C55               	goto	l458
  9839                           	line	974
  9840                           	
  9841  0C35                     l457:	
  9842                           	
  9843  0C35                     l3074:	
  9844                           ;PR29.c: 974: { uart_write(2,'+');
  9845  0C35  302B               	movlw	(02Bh)
  9846  0C36  00F7               	movwf	(??_upload_HT+0)+0
  9847  0C37  0877               	movf	(??_upload_HT+0)+0,w
  9848  0C38  00F0               	movwf	(?_uart_write)
  9849  0C39  3002               	movlw	(02h)
  9850  0C3A  160A  158A  24D7   	fcall	_uart_write
              120A  158A         
  9851                           	line	975
  9852                           ;PR29.c: 975: uart_write(2,'-');
  9853  0C3F  302D               	movlw	(02Dh)
  9854  0C40  00F7               	movwf	(??_upload_HT+0)+0
  9855  0C41  0877               	movf	(??_upload_HT+0)+0,w
  9856  0C42  00F0               	movwf	(?_uart_write)
  9857  0C43  3002               	movlw	(02h)
  9858  0C44  160A  158A  24D7   	fcall	_uart_write
              120A  158A         
  9859                           	line	973
  9860                           	
  9861  0C49                     l3076:	
  9862  0C49  3001               	movlw	(01h)
  9863  0C4A  00F7               	movwf	(??_upload_HT+0)+0
  9864  0C4B  0877               	movf	(??_upload_HT+0)+0,w
  9865  0C4C  1283               	bcf	status, 5	;RP0=0, select bank0
  9866  0C4D  1303               	bcf	status, 6	;RP1=0, select bank0
  9867  0C4E  07C9               	addwf	(upload_HT@count),f
  9868                           	
  9869  0C4F                     l3078:	
  9870  0C4F  3014               	movlw	(014h)
  9871  0C50  0249               	subwf	(upload_HT@count),w
  9872  0C51  1C03               	skipc
  9873  0C52  2C54               	goto	u2461
  9874  0C53  2C55               	goto	u2460
  9875  0C54                     u2461:
  9876  0C54  2C35               	goto	l3074
  9877  0C55                     u2460:
  9878                           	
  9879  0C55                     l458:	
  9880                           	line	977
  9881                           ;PR29.c: 976: }
  9882                           ;PR29.c: 977: for(count=0;count<80;count++)
  9883  0C55  01C9               	clrf	(upload_HT@count)
  9884                           	
  9885  0C56                     l3080:	
  9886  0C56  3050               	movlw	(050h)
  9887  0C57  0249               	subwf	(upload_HT@count),w
  9888  0C58  1C03               	skipc
  9889  0C59  2C5B               	goto	u2471
  9890  0C5A  2C5C               	goto	u2470
  9891  0C5B                     u2471:
  9892  0C5B  2C5E               	goto	l3084
  9893  0C5C                     u2470:
  9894  0C5C  2C75               	goto	l3090
  9895                           	
  9896  0C5D                     l3082:	
  9897  0C5D  2C75               	goto	l3090
  9898                           	line	978
  9899                           	
  9900  0C5E                     l459:	
  9901                           	
  9902  0C5E                     l3084:	
  9903                           ;PR29.c: 978: uart_write(2,' ');
  9904  0C5E  3020               	movlw	(020h)
  9905  0C5F  00F7               	movwf	(??_upload_HT+0)+0
  9906  0C60  0877               	movf	(??_upload_HT+0)+0,w
  9907  0C61  00F0               	movwf	(?_uart_write)
  9908  0C62  3002               	movlw	(02h)
  9909  0C63  160A  158A  24D7   	fcall	_uart_write
              120A  158A         
  9910                           	line	977
  9911                           	
  9912  0C68                     l3086:	
  9913  0C68  3001               	movlw	(01h)
  9914  0C69  00F7               	movwf	(??_upload_HT+0)+0
  9915  0C6A  0877               	movf	(??_upload_HT+0)+0,w
  9916  0C6B  1283               	bcf	status, 5	;RP0=0, select bank0
  9917  0C6C  1303               	bcf	status, 6	;RP1=0, select bank0
  9918  0C6D  07C9               	addwf	(upload_HT@count),f
  9919                           	
  9920  0C6E                     l3088:	
  9921  0C6E  3050               	movlw	(050h)
  9922  0C6F  0249               	subwf	(upload_HT@count),w
  9923  0C70  1C03               	skipc
  9924  0C71  2C73               	goto	u2481
  9925  0C72  2C74               	goto	u2480
  9926  0C73                     u2481:
  9927  0C73  2C5E               	goto	l3084
  9928  0C74                     u2480:
  9929  0C74  2C75               	goto	l3090
  9930                           	
  9931  0C75                     l460:	
  9932                           	line	979
  9933                           	
  9934  0C75                     l3090:	
  9935                           ;PR29.c: 979: uart_write(2,'U');
  9936  0C75  3055               	movlw	(055h)
  9937  0C76  00F7               	movwf	(??_upload_HT+0)+0
  9938  0C77  0877               	movf	(??_upload_HT+0)+0,w
  9939  0C78  00F0               	movwf	(?_uart_write)
  9940  0C79  3002               	movlw	(02h)
  9941  0C7A  160A  158A  24D7   	fcall	_uart_write
              120A  158A         
  9942                           	line	980
  9943                           ;PR29.c: 980: uart_write(2,'s');
  9944  0C7F  3073               	movlw	(073h)
  9945  0C80  00F7               	movwf	(??_upload_HT+0)+0
  9946  0C81  0877               	movf	(??_upload_HT+0)+0,w
  9947  0C82  00F0               	movwf	(?_uart_write)
  9948  0C83  3002               	movlw	(02h)
  9949  0C84  160A  158A  24D7   	fcall	_uart_write
              120A  158A         
  9950                           	line	981
  9951                           ;PR29.c: 981: uart_write(2,'e');
  9952  0C89  3065               	movlw	(065h)
  9953  0C8A  00F7               	movwf	(??_upload_HT+0)+0
  9954  0C8B  0877               	movf	(??_upload_HT+0)+0,w
  9955  0C8C  00F0               	movwf	(?_uart_write)
  9956  0C8D  3002               	movlw	(02h)
  9957  0C8E  160A  158A  24D7   	fcall	_uart_write
              120A  158A         
  9958                           	line	982
  9959                           ;PR29.c: 982: uart_write(2,'r');
  9960  0C93  3072               	movlw	(072h)
  9961  0C94  00F7               	movwf	(??_upload_HT+0)+0
  9962  0C95  0877               	movf	(??_upload_HT+0)+0,w
  9963  0C96  00F0               	movwf	(?_uart_write)
  9964  0C97  3002               	movlw	(02h)
  9965  0C98  160A  158A  24D7   	fcall	_uart_write
              120A  158A         
  9966                           	line	983
  9967                           	
  9968  0C9D                     l3092:	
  9969                           ;PR29.c: 983: for(count=1;count<6;count++)
  9970  0C9D  1283               	bcf	status, 5	;RP0=0, select bank0
  9971  0C9E  1303               	bcf	status, 6	;RP1=0, select bank0
  9972  0C9F  01C9               	clrf	(upload_HT@count)
  9973  0CA0  1403               	bsf	status,0
  9974  0CA1  0DC9               	rlf	(upload_HT@count),f
  9975                           	
  9976  0CA2                     l3094:	
  9977  0CA2  3006               	movlw	(06h)
  9978  0CA3  0249               	subwf	(upload_HT@count),w
  9979  0CA4  1C03               	skipc
  9980  0CA5  2CA7               	goto	u2491
  9981  0CA6  2CA8               	goto	u2490
  9982  0CA7                     u2491:
  9983  0CA7  2CAA               	goto	l3098
  9984  0CA8                     u2490:
  9985  0CA8  2CCE               	goto	l3104
  9986                           	
  9987  0CA9                     l3096:	
  9988  0CA9  2CCE               	goto	l3104
  9989                           	line	984
  9990                           	
  9991  0CAA                     l461:	
  9992                           	line	985
  9993                           	
  9994  0CAA                     l3098:	
  9995                           ;PR29.c: 984: {
  9996                           ;PR29.c: 985: uart_write(2,' ');
  9997  0CAA  3020               	movlw	(020h)
  9998  0CAB  00F7               	movwf	(??_upload_HT+0)+0
  9999  0CAC  0877               	movf	(??_upload_HT+0)+0,w
 10000  0CAD  00F0               	movwf	(?_uart_write)
 10001  0CAE  3002               	movlw	(02h)
 10002  0CAF  160A  158A  24D7   	fcall	_uart_write
              120A  158A         
 10003                           	line	986
 10004                           ;PR29.c: 986: uart_write(2,0x30+count);
 10005  0CB4  1283               	bcf	status, 5	;RP0=0, select bank0
 10006  0CB5  1303               	bcf	status, 6	;RP1=0, select bank0
 10007  0CB6  0849               	movf	(upload_HT@count),w
 10008  0CB7  3E30               	addlw	030h
 10009  0CB8  00F7               	movwf	(??_upload_HT+0)+0
 10010  0CB9  0877               	movf	(??_upload_HT+0)+0,w
 10011  0CBA  00F0               	movwf	(?_uart_write)
 10012  0CBB  3002               	movlw	(02h)
 10013  0CBC  160A  158A  24D7   	fcall	_uart_write
              120A  158A         
 10014                           	line	983
 10015                           	
 10016  0CC1                     l3100:	
 10017  0CC1  3001               	movlw	(01h)
 10018  0CC2  00F7               	movwf	(??_upload_HT+0)+0
 10019  0CC3  0877               	movf	(??_upload_HT+0)+0,w
 10020  0CC4  1283               	bcf	status, 5	;RP0=0, select bank0
 10021  0CC5  1303               	bcf	status, 6	;RP1=0, select bank0
 10022  0CC6  07C9               	addwf	(upload_HT@count),f
 10023                           	
 10024  0CC7                     l3102:	
 10025  0CC7  3006               	movlw	(06h)
 10026  0CC8  0249               	subwf	(upload_HT@count),w
 10027  0CC9  1C03               	skipc
 10028  0CCA  2CCC               	goto	u2501
 10029  0CCB  2CCD               	goto	u2500
 10030  0CCC                     u2501:
 10031  0CCC  2CAA               	goto	l3098
 10032  0CCD                     u2500:
 10033  0CCD  2CCE               	goto	l3104
 10034                           	
 10035  0CCE                     l462:	
 10036                           	line	988
 10037                           	
 10038  0CCE                     l3104:	
 10039                           ;PR29.c: 987: }
 10040                           ;PR29.c: 988: allign();
 10041  0CCE  160A  158A  22F8   	fcall	_allign
              120A  158A         
 10042                           	line	990
 10043                           	
 10044  0CD3                     l3106:	
 10045                           ;PR29.c: 990: address=0x00;
 10046  0CD3  1283               	bcf	status, 5	;RP0=0, select bank0
 10047  0CD4  1303               	bcf	status, 6	;RP1=0, select bank0
 10048  0CD5  01C8               	clrf	(upload_HT@address)
 10049                           	line	991
 10050                           	
 10051  0CD6                     l3108:	
 10052                           ;PR29.c: 991: count=address;
 10053  0CD6  0848               	movf	(upload_HT@address),w
 10054  0CD7  00F7               	movwf	(??_upload_HT+0)+0
 10055  0CD8  0877               	movf	(??_upload_HT+0)+0,w
 10056  0CD9  00C9               	movwf	(upload_HT@count)
 10057                           	line	992
 10058  0CDA  2CF9               	goto	l3116
 10059                           	line	993
 10060                           	
 10061  0CDB                     l464:	
 10062                           	line	994
 10063                           	
 10064  0CDB                     l3110:	
 10065                           ;PR29.c: 993: {
 10066                           ;PR29.c: 994: TEMP=get_eeprom(count);
 10067  0CDB  1283               	bcf	status, 5	;RP0=0, select bank0
 10068  0CDC  1303               	bcf	status, 6	;RP1=0, select bank0
 10069  0CDD  0849               	movf	(upload_HT@count),w
 10070  0CDE  160A  158A  22B0   	fcall	_get_eeprom
              120A  158A         
 10071  0CE3  00F7               	movwf	(??_upload_HT+0)+0
 10072  0CE4  0877               	movf	(??_upload_HT+0)+0,w
 10073  0CE5  1283               	bcf	status, 5	;RP0=0, select bank0
 10074  0CE6  1303               	bcf	status, 6	;RP1=0, select bank0
 10075  0CE7  00D6               	movwf	(_TEMP)
 10076                           	line	995
 10077                           	
 10078  0CE8                     l3112:	
 10079                           ;PR29.c: 995: uart_write(2,TEMP);
 10080  0CE8  0856               	movf	(_TEMP),w
 10081  0CE9  00F7               	movwf	(??_upload_HT+0)+0
 10082  0CEA  0877               	movf	(??_upload_HT+0)+0,w
 10083  0CEB  00F0               	movwf	(?_uart_write)
 10084  0CEC  3002               	movlw	(02h)
 10085  0CED  160A  158A  24D7   	fcall	_uart_write
              120A  158A         
 10086                           	line	992
 10087                           	
 10088  0CF2                     l3114:	
 10089  0CF2  3001               	movlw	(01h)
 10090  0CF3  00F7               	movwf	(??_upload_HT+0)+0
 10091  0CF4  0877               	movf	(??_upload_HT+0)+0,w
 10092  0CF5  1283               	bcf	status, 5	;RP0=0, select bank0
 10093  0CF6  1303               	bcf	status, 6	;RP1=0, select bank0
 10094  0CF7  07C9               	addwf	(upload_HT@count),f
 10095  0CF8  2CF9               	goto	l3116
 10096                           	
 10097  0CF9                     l463:	
 10098                           	
 10099  0CF9                     l3116:	
 10100  0CF9  0848               	movf	(upload_HT@address),w
 10101  0CFA  3E03               	addlw	low(03h)
 10102  0CFB  00F7               	movwf	(??_upload_HT+0)+0
 10103  0CFC  3000               	movlw	high(03h)
 10104  0CFD  1803               	skipnc
 10105  0CFE  3001               	movlw	(high(03h)+1)&0ffh
 10106  0CFF  00F8               	movwf	((??_upload_HT+0)+0)+1
 10107  0D00  0878               	movf	1+(??_upload_HT+0)+0,w
 10108  0D01  3A80               	xorlw	80h
 10109  0D02  00F9               	movwf	(??_upload_HT+2)+0
 10110  0D03  3080               	movlw	80h
 10111  0D04  0279               	subwf	(??_upload_HT+2)+0,w
 10112  0D05  1D03               	skipz
 10113  0D06  2D09               	goto	u2515
 10114  0D07  0849               	movf	(upload_HT@count),w
 10115  0D08  0277               	subwf	0+(??_upload_HT+0)+0,w
 10116  0D09                     u2515:
 10117                           
 10118  0D09  1803               	skipnc
 10119  0D0A  2D0C               	goto	u2511
 10120  0D0B  2D0D               	goto	u2510
 10121  0D0C                     u2511:
 10122  0D0C  2CDB               	goto	l3110
 10123  0D0D                     u2510:
 10124  0D0D  2D0E               	goto	l3118
 10125                           	
 10126  0D0E                     l465:	
 10127                           	line	997
 10128                           	
 10129  0D0E                     l3118:	
 10130                           ;PR29.c: 996: }
 10131                           ;PR29.c: 997: address=count;
 10132  0D0E  1283               	bcf	status, 5	;RP0=0, select bank0
 10133  0D0F  1303               	bcf	status, 6	;RP1=0, select bank0
 10134  0D10  0849               	movf	(upload_HT@count),w
 10135  0D11  00F7               	movwf	(??_upload_HT+0)+0
 10136  0D12  0877               	movf	(??_upload_HT+0)+0,w
 10137  0D13  00C8               	movwf	(upload_HT@address)
 10138                           	line	998
 10139  0D14  2D4A               	goto	l3132
 10140                           	line	999
 10141                           	
 10142  0D15                     l467:	
 10143                           	line	1000
 10144                           	
 10145  0D15                     l3120:	
 10146                           ;PR29.c: 999: {
 10147                           ;PR29.c: 1000: TEMP=get_eeprom(count);
 10148  0D15  1283               	bcf	status, 5	;RP0=0, select bank0
 10149  0D16  1303               	bcf	status, 6	;RP1=0, select bank0
 10150  0D17  0849               	movf	(upload_HT@count),w
 10151  0D18  160A  158A  22B0   	fcall	_get_eeprom
              120A  158A         
 10152  0D1D  00F7               	movwf	(??_upload_HT+0)+0
 10153  0D1E  0877               	movf	(??_upload_HT+0)+0,w
 10154  0D1F  1283               	bcf	status, 5	;RP0=0, select bank0
 10155  0D20  1303               	bcf	status, 6	;RP1=0, select bank0
 10156  0D21  00D6               	movwf	(_TEMP)
 10157                           	line	1001
 10158                           	
 10159  0D22                     l3122:	
 10160                           ;PR29.c: 1001: uart_write(2,' ');
 10161  0D22  3020               	movlw	(020h)
 10162  0D23  00F7               	movwf	(??_upload_HT+0)+0
 10163  0D24  0877               	movf	(??_upload_HT+0)+0,w
 10164  0D25  00F0               	movwf	(?_uart_write)
 10165  0D26  3002               	movlw	(02h)
 10166  0D27  160A  158A  24D7   	fcall	_uart_write
              120A  158A         
 10167                           	line	1002
 10168                           	
 10169  0D2C                     l3124:	
 10170                           ;PR29.c: 1002: if(TEMP==0xff) TEMP=0x30;
 10171  0D2C  1283               	bcf	status, 5	;RP0=0, select bank0
 10172  0D2D  1303               	bcf	status, 6	;RP1=0, select bank0
 10173  0D2E  0856               	movf	(_TEMP),w
 10174  0D2F  3AFF               	xorlw	0FFh
 10175  0D30  1D03               	skipz
 10176  0D31  2D33               	goto	u2521
 10177  0D32  2D34               	goto	u2520
 10178  0D33                     u2521:
 10179  0D33  2D39               	goto	l3128
 10180  0D34                     u2520:
 10181                           	
 10182  0D34                     l3126:	
 10183  0D34  3030               	movlw	(030h)
 10184  0D35  00F7               	movwf	(??_upload_HT+0)+0
 10185  0D36  0877               	movf	(??_upload_HT+0)+0,w
 10186  0D37  00D6               	movwf	(_TEMP)
 10187  0D38  2D39               	goto	l3128
 10188                           	
 10189  0D39                     l468:	
 10190                           	line	1003
 10191                           	
 10192  0D39                     l3128:	
 10193                           ;PR29.c: 1003: uart_write(2,TEMP);
 10194  0D39  0856               	movf	(_TEMP),w
 10195  0D3A  00F7               	movwf	(??_upload_HT+0)+0
 10196  0D3B  0877               	movf	(??_upload_HT+0)+0,w
 10197  0D3C  00F0               	movwf	(?_uart_write)
 10198  0D3D  3002               	movlw	(02h)
 10199  0D3E  160A  158A  24D7   	fcall	_uart_write
              120A  158A         
 10200                           	line	998
 10201                           	
 10202  0D43                     l3130:	
 10203  0D43  3001               	movlw	(01h)
 10204  0D44  00F7               	movwf	(??_upload_HT+0)+0
 10205  0D45  0877               	movf	(??_upload_HT+0)+0,w
 10206  0D46  1283               	bcf	status, 5	;RP0=0, select bank0
 10207  0D47  1303               	bcf	status, 6	;RP1=0, select bank0
 10208  0D48  07C9               	addwf	(upload_HT@count),f
 10209  0D49  2D4A               	goto	l3132
 10210                           	
 10211  0D4A                     l466:	
 10212                           	
 10213  0D4A                     l3132:	
 10214  0D4A  0848               	movf	(upload_HT@address),w
 10215  0D4B  3E04               	addlw	low(04h)
 10216  0D4C  00F7               	movwf	(??_upload_HT+0)+0
 10217  0D4D  3000               	movlw	high(04h)
 10218  0D4E  1803               	skipnc
 10219  0D4F  3001               	movlw	(high(04h)+1)&0ffh
 10220  0D50  00F8               	movwf	((??_upload_HT+0)+0)+1
 10221  0D51  0878               	movf	1+(??_upload_HT+0)+0,w
 10222  0D52  3A80               	xorlw	80h
 10223  0D53  00F9               	movwf	(??_upload_HT+2)+0
 10224  0D54  3080               	movlw	80h
 10225  0D55  0279               	subwf	(??_upload_HT+2)+0,w
 10226  0D56  1D03               	skipz
 10227  0D57  2D5A               	goto	u2535
 10228  0D58  0849               	movf	(upload_HT@count),w
 10229  0D59  0277               	subwf	0+(??_upload_HT+0)+0,w
 10230  0D5A                     u2535:
 10231                           
 10232  0D5A  1803               	skipnc
 10233  0D5B  2D5D               	goto	u2531
 10234  0D5C  2D5E               	goto	u2530
 10235  0D5D                     u2531:
 10236  0D5D  2D15               	goto	l3120
 10237  0D5E                     u2530:
 10238  0D5E  2D5F               	goto	l3134
 10239                           	
 10240  0D5F                     l469:	
 10241                           	line	1005
 10242                           	
 10243  0D5F                     l3134:	
 10244                           ;PR29.c: 1004: }
 10245                           ;PR29.c: 1005: allign();
 10246  0D5F  160A  158A  22F8   	fcall	_allign
              120A  158A         
 10247                           	line	1007
 10248                           	
 10249  0D64                     l3136:	
 10250                           ;PR29.c: 1007: address=0x10;
 10251  0D64  3010               	movlw	(010h)
 10252  0D65  00F7               	movwf	(??_upload_HT+0)+0
 10253  0D66  0877               	movf	(??_upload_HT+0)+0,w
 10254  0D67  1283               	bcf	status, 5	;RP0=0, select bank0
 10255  0D68  1303               	bcf	status, 6	;RP1=0, select bank0
 10256  0D69  00C8               	movwf	(upload_HT@address)
 10257                           	line	1008
 10258                           	
 10259  0D6A                     l3138:	
 10260                           ;PR29.c: 1008: count=address;
 10261  0D6A  0848               	movf	(upload_HT@address),w
 10262  0D6B  00F7               	movwf	(??_upload_HT+0)+0
 10263  0D6C  0877               	movf	(??_upload_HT+0)+0,w
 10264  0D6D  00C9               	movwf	(upload_HT@count)
 10265                           	line	1009
 10266  0D6E  2D8D               	goto	l3146
 10267                           	line	1010
 10268                           	
 10269  0D6F                     l471:	
 10270                           	line	1011
 10271                           	
 10272  0D6F                     l3140:	
 10273                           ;PR29.c: 1010: {
 10274                           ;PR29.c: 1011: TEMP=get_eeprom(count);
 10275  0D6F  1283               	bcf	status, 5	;RP0=0, select bank0
 10276  0D70  1303               	bcf	status, 6	;RP1=0, select bank0
 10277  0D71  0849               	movf	(upload_HT@count),w
 10278  0D72  160A  158A  22B0   	fcall	_get_eeprom
              120A  158A         
 10279  0D77  00F7               	movwf	(??_upload_HT+0)+0
 10280  0D78  0877               	movf	(??_upload_HT+0)+0,w
 10281  0D79  1283               	bcf	status, 5	;RP0=0, select bank0
 10282  0D7A  1303               	bcf	status, 6	;RP1=0, select bank0
 10283  0D7B  00D6               	movwf	(_TEMP)
 10284                           	line	1012
 10285                           	
 10286  0D7C                     l3142:	
 10287                           ;PR29.c: 1012: uart_write(2,TEMP);
 10288  0D7C  0856               	movf	(_TEMP),w
 10289  0D7D  00F7               	movwf	(??_upload_HT+0)+0
 10290  0D7E  0877               	movf	(??_upload_HT+0)+0,w
 10291  0D7F  00F0               	movwf	(?_uart_write)
 10292  0D80  3002               	movlw	(02h)
 10293  0D81  160A  158A  24D7   	fcall	_uart_write
              120A  158A         
 10294                           	line	1009
 10295                           	
 10296  0D86                     l3144:	
 10297  0D86  3001               	movlw	(01h)
 10298  0D87  00F7               	movwf	(??_upload_HT+0)+0
 10299  0D88  0877               	movf	(??_upload_HT+0)+0,w
 10300  0D89  1283               	bcf	status, 5	;RP0=0, select bank0
 10301  0D8A  1303               	bcf	status, 6	;RP1=0, select bank0
 10302  0D8B  07C9               	addwf	(upload_HT@count),f
 10303  0D8C  2D8D               	goto	l3146
 10304                           	
 10305  0D8D                     l470:	
 10306                           	
 10307  0D8D                     l3146:	
 10308  0D8D  0848               	movf	(upload_HT@address),w
 10309  0D8E  3E03               	addlw	low(03h)
 10310  0D8F  00F7               	movwf	(??_upload_HT+0)+0
 10311  0D90  3000               	movlw	high(03h)
 10312  0D91  1803               	skipnc
 10313  0D92  3001               	movlw	(high(03h)+1)&0ffh
 10314  0D93  00F8               	movwf	((??_upload_HT+0)+0)+1
 10315  0D94  0878               	movf	1+(??_upload_HT+0)+0,w
 10316  0D95  3A80               	xorlw	80h
 10317  0D96  00F9               	movwf	(??_upload_HT+2)+0
 10318  0D97  3080               	movlw	80h
 10319  0D98  0279               	subwf	(??_upload_HT+2)+0,w
 10320  0D99  1D03               	skipz
 10321  0D9A  2D9D               	goto	u2545
 10322  0D9B  0849               	movf	(upload_HT@count),w
 10323  0D9C  0277               	subwf	0+(??_upload_HT+0)+0,w
 10324  0D9D                     u2545:
 10325                           
 10326  0D9D  1803               	skipnc
 10327  0D9E  2DA0               	goto	u2541
 10328  0D9F  2DA1               	goto	u2540
 10329  0DA0                     u2541:
 10330  0DA0  2D6F               	goto	l3140
 10331  0DA1                     u2540:
 10332  0DA1  2DA2               	goto	l3148
 10333                           	
 10334  0DA2                     l472:	
 10335                           	line	1014
 10336                           	
 10337  0DA2                     l3148:	
 10338                           ;PR29.c: 1013: }
 10339                           ;PR29.c: 1014: address=count;
 10340  0DA2  1283               	bcf	status, 5	;RP0=0, select bank0
 10341  0DA3  1303               	bcf	status, 6	;RP1=0, select bank0
 10342  0DA4  0849               	movf	(upload_HT@count),w
 10343  0DA5  00F7               	movwf	(??_upload_HT+0)+0
 10344  0DA6  0877               	movf	(??_upload_HT+0)+0,w
 10345  0DA7  00C8               	movwf	(upload_HT@address)
 10346                           	line	1015
 10347  0DA8  2DDE               	goto	l3162
 10348                           	line	1016
 10349                           	
 10350  0DA9                     l474:	
 10351                           	line	1017
 10352                           	
 10353  0DA9                     l3150:	
 10354                           ;PR29.c: 1016: {
 10355                           ;PR29.c: 1017: TEMP=get_eeprom(count);
 10356  0DA9  1283               	bcf	status, 5	;RP0=0, select bank0
 10357  0DAA  1303               	bcf	status, 6	;RP1=0, select bank0
 10358  0DAB  0849               	movf	(upload_HT@count),w
 10359  0DAC  160A  158A  22B0   	fcall	_get_eeprom
              120A  158A         
 10360  0DB1  00F7               	movwf	(??_upload_HT+0)+0
 10361  0DB2  0877               	movf	(??_upload_HT+0)+0,w
 10362  0DB3  1283               	bcf	status, 5	;RP0=0, select bank0
 10363  0DB4  1303               	bcf	status, 6	;RP1=0, select bank0
 10364  0DB5  00D6               	movwf	(_TEMP)
 10365                           	line	1018
 10366                           	
 10367  0DB6                     l3152:	
 10368                           ;PR29.c: 1018: uart_write(2,' ');
 10369  0DB6  3020               	movlw	(020h)
 10370  0DB7  00F7               	movwf	(??_upload_HT+0)+0
 10371  0DB8  0877               	movf	(??_upload_HT+0)+0,w
 10372  0DB9  00F0               	movwf	(?_uart_write)
 10373  0DBA  3002               	movlw	(02h)
 10374  0DBB  160A  158A  24D7   	fcall	_uart_write
              120A  158A         
 10375                           	line	1019
 10376                           	
 10377  0DC0                     l3154:	
 10378                           ;PR29.c: 1019: if(TEMP==0xff) TEMP=0x30;
 10379  0DC0  1283               	bcf	status, 5	;RP0=0, select bank0
 10380  0DC1  1303               	bcf	status, 6	;RP1=0, select bank0
 10381  0DC2  0856               	movf	(_TEMP),w
 10382  0DC3  3AFF               	xorlw	0FFh
 10383  0DC4  1D03               	skipz
 10384  0DC5  2DC7               	goto	u2551
 10385  0DC6  2DC8               	goto	u2550
 10386  0DC7                     u2551:
 10387  0DC7  2DCD               	goto	l3158
 10388  0DC8                     u2550:
 10389                           	
 10390  0DC8                     l3156:	
 10391  0DC8  3030               	movlw	(030h)
 10392  0DC9  00F7               	movwf	(??_upload_HT+0)+0
 10393  0DCA  0877               	movf	(??_upload_HT+0)+0,w
 10394  0DCB  00D6               	movwf	(_TEMP)
 10395  0DCC  2DCD               	goto	l3158
 10396                           	
 10397  0DCD                     l475:	
 10398                           	line	1020
 10399                           	
 10400  0DCD                     l3158:	
 10401                           ;PR29.c: 1020: uart_write(2,TEMP);
 10402  0DCD  0856               	movf	(_TEMP),w
 10403  0DCE  00F7               	movwf	(??_upload_HT+0)+0
 10404  0DCF  0877               	movf	(??_upload_HT+0)+0,w
 10405  0DD0  00F0               	movwf	(?_uart_write)
 10406  0DD1  3002               	movlw	(02h)
 10407  0DD2  160A  158A  24D7   	fcall	_uart_write
              120A  158A         
 10408                           	line	1015
 10409                           	
 10410  0DD7                     l3160:	
 10411  0DD7  3001               	movlw	(01h)
 10412  0DD8  00F7               	movwf	(??_upload_HT+0)+0
 10413  0DD9  0877               	movf	(??_upload_HT+0)+0,w
 10414  0DDA  1283               	bcf	status, 5	;RP0=0, select bank0
 10415  0DDB  1303               	bcf	status, 6	;RP1=0, select bank0
 10416  0DDC  07C9               	addwf	(upload_HT@count),f
 10417  0DDD  2DDE               	goto	l3162
 10418                           	
 10419  0DDE                     l473:	
 10420                           	
 10421  0DDE                     l3162:	
 10422  0DDE  0848               	movf	(upload_HT@address),w
 10423  0DDF  3E04               	addlw	low(04h)
 10424  0DE0  00F7               	movwf	(??_upload_HT+0)+0
 10425  0DE1  3000               	movlw	high(04h)
 10426  0DE2  1803               	skipnc
 10427  0DE3  3001               	movlw	(high(04h)+1)&0ffh
 10428  0DE4  00F8               	movwf	((??_upload_HT+0)+0)+1
 10429  0DE5  0878               	movf	1+(??_upload_HT+0)+0,w
 10430  0DE6  3A80               	xorlw	80h
 10431  0DE7  00F9               	movwf	(??_upload_HT+2)+0
 10432  0DE8  3080               	movlw	80h
 10433  0DE9  0279               	subwf	(??_upload_HT+2)+0,w
 10434  0DEA  1D03               	skipz
 10435  0DEB  2DEE               	goto	u2565
 10436  0DEC  0849               	movf	(upload_HT@count),w
 10437  0DED  0277               	subwf	0+(??_upload_HT+0)+0,w
 10438  0DEE                     u2565:
 10439                           
 10440  0DEE  1803               	skipnc
 10441  0DEF  2DF1               	goto	u2561
 10442  0DF0  2DF2               	goto	u2560
 10443  0DF1                     u2561:
 10444  0DF1  2DA9               	goto	l3150
 10445  0DF2                     u2560:
 10446  0DF2  2DF3               	goto	l3164
 10447                           	
 10448  0DF3                     l476:	
 10449                           	line	1022
 10450                           	
 10451  0DF3                     l3164:	
 10452                           ;PR29.c: 1021: }
 10453                           ;PR29.c: 1022: allign();
 10454  0DF3  160A  158A  22F8   	fcall	_allign
              120A  158A         
 10455                           	line	1024
 10456                           	
 10457  0DF8                     l3166:	
 10458                           ;PR29.c: 1024: address=0x20;
 10459  0DF8  3020               	movlw	(020h)
 10460  0DF9  00F7               	movwf	(??_upload_HT+0)+0
 10461  0DFA  0877               	movf	(??_upload_HT+0)+0,w
 10462  0DFB  1283               	bcf	status, 5	;RP0=0, select bank0
 10463  0DFC  1303               	bcf	status, 6	;RP1=0, select bank0
 10464  0DFD  00C8               	movwf	(upload_HT@address)
 10465                           	line	1025
 10466                           	
 10467  0DFE                     l3168:	
 10468                           ;PR29.c: 1025: count=address;
 10469  0DFE  0848               	movf	(upload_HT@address),w
 10470  0DFF  00F7               	movwf	(??_upload_HT+0)+0
 10471  0E00  0877               	movf	(??_upload_HT+0)+0,w
 10472  0E01  00C9               	movwf	(upload_HT@count)
 10473                           	line	1026
 10474  0E02  2E21               	goto	l3176
 10475                           	line	1027
 10476                           	
 10477  0E03                     l478:	
 10478                           	line	1028
 10479                           	
 10480  0E03                     l3170:	
 10481                           ;PR29.c: 1027: {
 10482                           ;PR29.c: 1028: TEMP=get_eeprom(count);
 10483  0E03  1283               	bcf	status, 5	;RP0=0, select bank0
 10484  0E04  1303               	bcf	status, 6	;RP1=0, select bank0
 10485  0E05  0849               	movf	(upload_HT@count),w
 10486  0E06  160A  158A  22B0   	fcall	_get_eeprom
              120A  158A         
 10487  0E0B  00F7               	movwf	(??_upload_HT+0)+0
 10488  0E0C  0877               	movf	(??_upload_HT+0)+0,w
 10489  0E0D  1283               	bcf	status, 5	;RP0=0, select bank0
 10490  0E0E  1303               	bcf	status, 6	;RP1=0, select bank0
 10491  0E0F  00D6               	movwf	(_TEMP)
 10492                           	line	1029
 10493                           	
 10494  0E10                     l3172:	
 10495                           ;PR29.c: 1029: uart_write(2,TEMP);
 10496  0E10  0856               	movf	(_TEMP),w
 10497  0E11  00F7               	movwf	(??_upload_HT+0)+0
 10498  0E12  0877               	movf	(??_upload_HT+0)+0,w
 10499  0E13  00F0               	movwf	(?_uart_write)
 10500  0E14  3002               	movlw	(02h)
 10501  0E15  160A  158A  24D7   	fcall	_uart_write
              120A  158A         
 10502                           	line	1026
 10503                           	
 10504  0E1A                     l3174:	
 10505  0E1A  3001               	movlw	(01h)
 10506  0E1B  00F7               	movwf	(??_upload_HT+0)+0
 10507  0E1C  0877               	movf	(??_upload_HT+0)+0,w
 10508  0E1D  1283               	bcf	status, 5	;RP0=0, select bank0
 10509  0E1E  1303               	bcf	status, 6	;RP1=0, select bank0
 10510  0E1F  07C9               	addwf	(upload_HT@count),f
 10511  0E20  2E21               	goto	l3176
 10512                           	
 10513  0E21                     l477:	
 10514                           	
 10515  0E21                     l3176:	
 10516  0E21  0848               	movf	(upload_HT@address),w
 10517  0E22  3E03               	addlw	low(03h)
 10518  0E23  00F7               	movwf	(??_upload_HT+0)+0
 10519  0E24  3000               	movlw	high(03h)
 10520  0E25  1803               	skipnc
 10521  0E26  3001               	movlw	(high(03h)+1)&0ffh
 10522  0E27  00F8               	movwf	((??_upload_HT+0)+0)+1
 10523  0E28  0878               	movf	1+(??_upload_HT+0)+0,w
 10524  0E29  3A80               	xorlw	80h
 10525  0E2A  00F9               	movwf	(??_upload_HT+2)+0
 10526  0E2B  3080               	movlw	80h
 10527  0E2C  0279               	subwf	(??_upload_HT+2)+0,w
 10528  0E2D  1D03               	skipz
 10529  0E2E  2E31               	goto	u2575
 10530  0E2F  0849               	movf	(upload_HT@count),w
 10531  0E30  0277               	subwf	0+(??_upload_HT+0)+0,w
 10532  0E31                     u2575:
 10533                           
 10534  0E31  1803               	skipnc
 10535  0E32  2E34               	goto	u2571
 10536  0E33  2E35               	goto	u2570
 10537  0E34                     u2571:
 10538  0E34  2E03               	goto	l3170
 10539  0E35                     u2570:
 10540  0E35  2E36               	goto	l3178
 10541                           	
 10542  0E36                     l479:	
 10543                           	line	1031
 10544                           	
 10545  0E36                     l3178:	
 10546                           ;PR29.c: 1030: }
 10547                           ;PR29.c: 1031: address=count;
 10548  0E36  1283               	bcf	status, 5	;RP0=0, select bank0
 10549  0E37  1303               	bcf	status, 6	;RP1=0, select bank0
 10550  0E38  0849               	movf	(upload_HT@count),w
 10551  0E39  00F7               	movwf	(??_upload_HT+0)+0
 10552  0E3A  0877               	movf	(??_upload_HT+0)+0,w
 10553  0E3B  00C8               	movwf	(upload_HT@address)
 10554                           	line	1032
 10555  0E3C  2E72               	goto	l3192
 10556                           	line	1033
 10557                           	
 10558  0E3D                     l481:	
 10559                           	line	1034
 10560                           	
 10561  0E3D                     l3180:	
 10562                           ;PR29.c: 1033: {
 10563                           ;PR29.c: 1034: TEMP=get_eeprom(count);
 10564  0E3D  1283               	bcf	status, 5	;RP0=0, select bank0
 10565  0E3E  1303               	bcf	status, 6	;RP1=0, select bank0
 10566  0E3F  0849               	movf	(upload_HT@count),w
 10567  0E40  160A  158A  22B0   	fcall	_get_eeprom
              120A  158A         
 10568  0E45  00F7               	movwf	(??_upload_HT+0)+0
 10569  0E46  0877               	movf	(??_upload_HT+0)+0,w
 10570  0E47  1283               	bcf	status, 5	;RP0=0, select bank0
 10571  0E48  1303               	bcf	status, 6	;RP1=0, select bank0
 10572  0E49  00D6               	movwf	(_TEMP)
 10573                           	line	1035
 10574                           	
 10575  0E4A                     l3182:	
 10576                           ;PR29.c: 1035: uart_write(2,' ');
 10577  0E4A  3020               	movlw	(020h)
 10578  0E4B  00F7               	movwf	(??_upload_HT+0)+0
 10579  0E4C  0877               	movf	(??_upload_HT+0)+0,w
 10580  0E4D  00F0               	movwf	(?_uart_write)
 10581  0E4E  3002               	movlw	(02h)
 10582  0E4F  160A  158A  24D7   	fcall	_uart_write
              120A  158A         
 10583                           	line	1036
 10584                           	
 10585  0E54                     l3184:	
 10586                           ;PR29.c: 1036: if(TEMP==0xff) TEMP=0x30;
 10587  0E54  1283               	bcf	status, 5	;RP0=0, select bank0
 10588  0E55  1303               	bcf	status, 6	;RP1=0, select bank0
 10589  0E56  0856               	movf	(_TEMP),w
 10590  0E57  3AFF               	xorlw	0FFh
 10591  0E58  1D03               	skipz
 10592  0E59  2E5B               	goto	u2581
 10593  0E5A  2E5C               	goto	u2580
 10594  0E5B                     u2581:
 10595  0E5B  2E61               	goto	l3188
 10596  0E5C                     u2580:
 10597                           	
 10598  0E5C                     l3186:	
 10599  0E5C  3030               	movlw	(030h)
 10600  0E5D  00F7               	movwf	(??_upload_HT+0)+0
 10601  0E5E  0877               	movf	(??_upload_HT+0)+0,w
 10602  0E5F  00D6               	movwf	(_TEMP)
 10603  0E60  2E61               	goto	l3188
 10604                           	
 10605  0E61                     l482:	
 10606                           	line	1037
 10607                           	
 10608  0E61                     l3188:	
 10609                           ;PR29.c: 1037: uart_write(2,TEMP);
 10610  0E61  0856               	movf	(_TEMP),w
 10611  0E62  00F7               	movwf	(??_upload_HT+0)+0
 10612  0E63  0877               	movf	(??_upload_HT+0)+0,w
 10613  0E64  00F0               	movwf	(?_uart_write)
 10614  0E65  3002               	movlw	(02h)
 10615  0E66  160A  158A  24D7   	fcall	_uart_write
              120A  158A         
 10616                           	line	1032
 10617                           	
 10618  0E6B                     l3190:	
 10619  0E6B  3001               	movlw	(01h)
 10620  0E6C  00F7               	movwf	(??_upload_HT+0)+0
 10621  0E6D  0877               	movf	(??_upload_HT+0)+0,w
 10622  0E6E  1283               	bcf	status, 5	;RP0=0, select bank0
 10623  0E6F  1303               	bcf	status, 6	;RP1=0, select bank0
 10624  0E70  07C9               	addwf	(upload_HT@count),f
 10625  0E71  2E72               	goto	l3192
 10626                           	
 10627  0E72                     l480:	
 10628                           	
 10629  0E72                     l3192:	
 10630  0E72  0848               	movf	(upload_HT@address),w
 10631  0E73  3E04               	addlw	low(04h)
 10632  0E74  00F7               	movwf	(??_upload_HT+0)+0
 10633  0E75  3000               	movlw	high(04h)
 10634  0E76  1803               	skipnc
 10635  0E77  3001               	movlw	(high(04h)+1)&0ffh
 10636  0E78  00F8               	movwf	((??_upload_HT+0)+0)+1
 10637  0E79  0878               	movf	1+(??_upload_HT+0)+0,w
 10638  0E7A  3A80               	xorlw	80h
 10639  0E7B  00F9               	movwf	(??_upload_HT+2)+0
 10640  0E7C  3080               	movlw	80h
 10641  0E7D  0279               	subwf	(??_upload_HT+2)+0,w
 10642  0E7E  1D03               	skipz
 10643  0E7F  2E82               	goto	u2595
 10644  0E80  0849               	movf	(upload_HT@count),w
 10645  0E81  0277               	subwf	0+(??_upload_HT+0)+0,w
 10646  0E82                     u2595:
 10647                           
 10648  0E82  1803               	skipnc
 10649  0E83  2E85               	goto	u2591
 10650  0E84  2E86               	goto	u2590
 10651  0E85                     u2591:
 10652  0E85  2E3D               	goto	l3180
 10653  0E86                     u2590:
 10654  0E86  2E87               	goto	l3194
 10655                           	
 10656  0E87                     l483:	
 10657                           	line	1039
 10658                           	
 10659  0E87                     l3194:	
 10660                           ;PR29.c: 1038: }
 10661                           ;PR29.c: 1039: allign();
 10662  0E87  160A  158A  22F8   	fcall	_allign
              120A  158A         
 10663                           	line	1041
 10664                           	
 10665  0E8C                     l3196:	
 10666                           ;PR29.c: 1041: address=0x30;
 10667  0E8C  3030               	movlw	(030h)
 10668  0E8D  00F7               	movwf	(??_upload_HT+0)+0
 10669  0E8E  0877               	movf	(??_upload_HT+0)+0,w
 10670  0E8F  1283               	bcf	status, 5	;RP0=0, select bank0
 10671  0E90  1303               	bcf	status, 6	;RP1=0, select bank0
 10672  0E91  00C8               	movwf	(upload_HT@address)
 10673                           	line	1042
 10674                           	
 10675  0E92                     l3198:	
 10676                           ;PR29.c: 1042: count=address;
 10677  0E92  0848               	movf	(upload_HT@address),w
 10678  0E93  00F7               	movwf	(??_upload_HT+0)+0
 10679  0E94  0877               	movf	(??_upload_HT+0)+0,w
 10680  0E95  00C9               	movwf	(upload_HT@count)
 10681                           	line	1043
 10682  0E96  2EB5               	goto	l3206
 10683                           	line	1044
 10684                           	
 10685  0E97                     l485:	
 10686                           	line	1045
 10687                           	
 10688  0E97                     l3200:	
 10689                           ;PR29.c: 1044: {
 10690                           ;PR29.c: 1045: TEMP=get_eeprom(count);
 10691  0E97  1283               	bcf	status, 5	;RP0=0, select bank0
 10692  0E98  1303               	bcf	status, 6	;RP1=0, select bank0
 10693  0E99  0849               	movf	(upload_HT@count),w
 10694  0E9A  160A  158A  22B0   	fcall	_get_eeprom
              120A  158A         
 10695  0E9F  00F7               	movwf	(??_upload_HT+0)+0
 10696  0EA0  0877               	movf	(??_upload_HT+0)+0,w
 10697  0EA1  1283               	bcf	status, 5	;RP0=0, select bank0
 10698  0EA2  1303               	bcf	status, 6	;RP1=0, select bank0
 10699  0EA3  00D6               	movwf	(_TEMP)
 10700                           	line	1046
 10701                           	
 10702  0EA4                     l3202:	
 10703                           ;PR29.c: 1046: uart_write(2,TEMP);
 10704  0EA4  0856               	movf	(_TEMP),w
 10705  0EA5  00F7               	movwf	(??_upload_HT+0)+0
 10706  0EA6  0877               	movf	(??_upload_HT+0)+0,w
 10707  0EA7  00F0               	movwf	(?_uart_write)
 10708  0EA8  3002               	movlw	(02h)
 10709  0EA9  160A  158A  24D7   	fcall	_uart_write
              120A  158A         
 10710                           	line	1043
 10711                           	
 10712  0EAE                     l3204:	
 10713  0EAE  3001               	movlw	(01h)
 10714  0EAF  00F7               	movwf	(??_upload_HT+0)+0
 10715  0EB0  0877               	movf	(??_upload_HT+0)+0,w
 10716  0EB1  1283               	bcf	status, 5	;RP0=0, select bank0
 10717  0EB2  1303               	bcf	status, 6	;RP1=0, select bank0
 10718  0EB3  07C9               	addwf	(upload_HT@count),f
 10719  0EB4  2EB5               	goto	l3206
 10720                           	
 10721  0EB5                     l484:	
 10722                           	
 10723  0EB5                     l3206:	
 10724  0EB5  0848               	movf	(upload_HT@address),w
 10725  0EB6  3E03               	addlw	low(03h)
 10726  0EB7  00F7               	movwf	(??_upload_HT+0)+0
 10727  0EB8  3000               	movlw	high(03h)
 10728  0EB9  1803               	skipnc
 10729  0EBA  3001               	movlw	(high(03h)+1)&0ffh
 10730  0EBB  00F8               	movwf	((??_upload_HT+0)+0)+1
 10731  0EBC  0878               	movf	1+(??_upload_HT+0)+0,w
 10732  0EBD  3A80               	xorlw	80h
 10733  0EBE  00F9               	movwf	(??_upload_HT+2)+0
 10734  0EBF  3080               	movlw	80h
 10735  0EC0  0279               	subwf	(??_upload_HT+2)+0,w
 10736  0EC1  1D03               	skipz
 10737  0EC2  2EC5               	goto	u2605
 10738  0EC3  0849               	movf	(upload_HT@count),w
 10739  0EC4  0277               	subwf	0+(??_upload_HT+0)+0,w
 10740  0EC5                     u2605:
 10741                           
 10742  0EC5  1803               	skipnc
 10743  0EC6  2EC8               	goto	u2601
 10744  0EC7  2EC9               	goto	u2600
 10745  0EC8                     u2601:
 10746  0EC8  2E97               	goto	l3200
 10747  0EC9                     u2600:
 10748  0EC9  2ECA               	goto	l3208
 10749                           	
 10750  0ECA                     l486:	
 10751                           	line	1048
 10752                           	
 10753  0ECA                     l3208:	
 10754                           ;PR29.c: 1047: }
 10755                           ;PR29.c: 1048: address=count;
 10756  0ECA  1283               	bcf	status, 5	;RP0=0, select bank0
 10757  0ECB  1303               	bcf	status, 6	;RP1=0, select bank0
 10758  0ECC  0849               	movf	(upload_HT@count),w
 10759  0ECD  00F7               	movwf	(??_upload_HT+0)+0
 10760  0ECE  0877               	movf	(??_upload_HT+0)+0,w
 10761  0ECF  00C8               	movwf	(upload_HT@address)
 10762                           	line	1049
 10763  0ED0  2F06               	goto	l3222
 10764                           	line	1050
 10765                           	
 10766  0ED1                     l488:	
 10767                           	line	1051
 10768                           	
 10769  0ED1                     l3210:	
 10770                           ;PR29.c: 1050: {
 10771                           ;PR29.c: 1051: TEMP=get_eeprom(count);
 10772  0ED1  1283               	bcf	status, 5	;RP0=0, select bank0
 10773  0ED2  1303               	bcf	status, 6	;RP1=0, select bank0
 10774  0ED3  0849               	movf	(upload_HT@count),w
 10775  0ED4  160A  158A  22B0   	fcall	_get_eeprom
              120A  158A         
 10776  0ED9  00F7               	movwf	(??_upload_HT+0)+0
 10777  0EDA  0877               	movf	(??_upload_HT+0)+0,w
 10778  0EDB  1283               	bcf	status, 5	;RP0=0, select bank0
 10779  0EDC  1303               	bcf	status, 6	;RP1=0, select bank0
 10780  0EDD  00D6               	movwf	(_TEMP)
 10781                           	line	1052
 10782                           	
 10783  0EDE                     l3212:	
 10784                           ;PR29.c: 1052: uart_write(2,' ');
 10785  0EDE  3020               	movlw	(020h)
 10786  0EDF  00F7               	movwf	(??_upload_HT+0)+0
 10787  0EE0  0877               	movf	(??_upload_HT+0)+0,w
 10788  0EE1  00F0               	movwf	(?_uart_write)
 10789  0EE2  3002               	movlw	(02h)
 10790  0EE3  160A  158A  24D7   	fcall	_uart_write
              120A  158A         
 10791                           	line	1053
 10792                           	
 10793  0EE8                     l3214:	
 10794                           ;PR29.c: 1053: if(TEMP==0xff) TEMP=0x30;
 10795  0EE8  1283               	bcf	status, 5	;RP0=0, select bank0
 10796  0EE9  1303               	bcf	status, 6	;RP1=0, select bank0
 10797  0EEA  0856               	movf	(_TEMP),w
 10798  0EEB  3AFF               	xorlw	0FFh
 10799  0EEC  1D03               	skipz
 10800  0EED  2EEF               	goto	u2611
 10801  0EEE  2EF0               	goto	u2610
 10802  0EEF                     u2611:
 10803  0EEF  2EF5               	goto	l3218
 10804  0EF0                     u2610:
 10805                           	
 10806  0EF0                     l3216:	
 10807  0EF0  3030               	movlw	(030h)
 10808  0EF1  00F7               	movwf	(??_upload_HT+0)+0
 10809  0EF2  0877               	movf	(??_upload_HT+0)+0,w
 10810  0EF3  00D6               	movwf	(_TEMP)
 10811  0EF4  2EF5               	goto	l3218
 10812                           	
 10813  0EF5                     l489:	
 10814                           	line	1054
 10815                           	
 10816  0EF5                     l3218:	
 10817                           ;PR29.c: 1054: uart_write(2,TEMP);
 10818  0EF5  0856               	movf	(_TEMP),w
 10819  0EF6  00F7               	movwf	(??_upload_HT+0)+0
 10820  0EF7  0877               	movf	(??_upload_HT+0)+0,w
 10821  0EF8  00F0               	movwf	(?_uart_write)
 10822  0EF9  3002               	movlw	(02h)
 10823  0EFA  160A  158A  24D7   	fcall	_uart_write
              120A  158A         
 10824                           	line	1049
 10825                           	
 10826  0EFF                     l3220:	
 10827  0EFF  3001               	movlw	(01h)
 10828  0F00  00F7               	movwf	(??_upload_HT+0)+0
 10829  0F01  0877               	movf	(??_upload_HT+0)+0,w
 10830  0F02  1283               	bcf	status, 5	;RP0=0, select bank0
 10831  0F03  1303               	bcf	status, 6	;RP1=0, select bank0
 10832  0F04  07C9               	addwf	(upload_HT@count),f
 10833  0F05  2F06               	goto	l3222
 10834                           	
 10835  0F06                     l487:	
 10836                           	
 10837  0F06                     l3222:	
 10838  0F06  0848               	movf	(upload_HT@address),w
 10839  0F07  3E04               	addlw	low(04h)
 10840  0F08  00F7               	movwf	(??_upload_HT+0)+0
 10841  0F09  3000               	movlw	high(04h)
 10842  0F0A  1803               	skipnc
 10843  0F0B  3001               	movlw	(high(04h)+1)&0ffh
 10844  0F0C  00F8               	movwf	((??_upload_HT+0)+0)+1
 10845  0F0D  0878               	movf	1+(??_upload_HT+0)+0,w
 10846  0F0E  3A80               	xorlw	80h
 10847  0F0F  00F9               	movwf	(??_upload_HT+2)+0
 10848  0F10  3080               	movlw	80h
 10849  0F11  0279               	subwf	(??_upload_HT+2)+0,w
 10850  0F12  1D03               	skipz
 10851  0F13  2F16               	goto	u2625
 10852  0F14  0849               	movf	(upload_HT@count),w
 10853  0F15  0277               	subwf	0+(??_upload_HT+0)+0,w
 10854  0F16                     u2625:
 10855                           
 10856  0F16  1803               	skipnc
 10857  0F17  2F19               	goto	u2621
 10858  0F18  2F1A               	goto	u2620
 10859  0F19                     u2621:
 10860  0F19  2ED1               	goto	l3210
 10861  0F1A                     u2620:
 10862  0F1A  2F1B               	goto	l3224
 10863                           	
 10864  0F1B                     l490:	
 10865                           	line	1056
 10866                           	
 10867  0F1B                     l3224:	
 10868                           ;PR29.c: 1055: }
 10869                           ;PR29.c: 1056: allign();
 10870  0F1B  160A  158A  22F8   	fcall	_allign
              120A  158A         
 10871                           	line	1058
 10872                           	
 10873  0F20                     l3226:	
 10874                           ;PR29.c: 1058: address=0x40;
 10875  0F20  3040               	movlw	(040h)
 10876  0F21  00F7               	movwf	(??_upload_HT+0)+0
 10877  0F22  0877               	movf	(??_upload_HT+0)+0,w
 10878  0F23  1283               	bcf	status, 5	;RP0=0, select bank0
 10879  0F24  1303               	bcf	status, 6	;RP1=0, select bank0
 10880  0F25  00C8               	movwf	(upload_HT@address)
 10881                           	line	1059
 10882                           	
 10883  0F26                     l3228:	
 10884                           ;PR29.c: 1059: count=address;
 10885  0F26  0848               	movf	(upload_HT@address),w
 10886  0F27  00F7               	movwf	(??_upload_HT+0)+0
 10887  0F28  0877               	movf	(??_upload_HT+0)+0,w
 10888  0F29  00C9               	movwf	(upload_HT@count)
 10889                           	line	1060
 10890  0F2A  2F49               	goto	l3236
 10891                           	line	1061
 10892                           	
 10893  0F2B                     l492:	
 10894                           	line	1062
 10895                           	
 10896  0F2B                     l3230:	
 10897                           ;PR29.c: 1061: {
 10898                           ;PR29.c: 1062: TEMP=get_eeprom(count);
 10899  0F2B  1283               	bcf	status, 5	;RP0=0, select bank0
 10900  0F2C  1303               	bcf	status, 6	;RP1=0, select bank0
 10901  0F2D  0849               	movf	(upload_HT@count),w
 10902  0F2E  160A  158A  22B0   	fcall	_get_eeprom
              120A  158A         
 10903  0F33  00F7               	movwf	(??_upload_HT+0)+0
 10904  0F34  0877               	movf	(??_upload_HT+0)+0,w
 10905  0F35  1283               	bcf	status, 5	;RP0=0, select bank0
 10906  0F36  1303               	bcf	status, 6	;RP1=0, select bank0
 10907  0F37  00D6               	movwf	(_TEMP)
 10908                           	line	1063
 10909                           	
 10910  0F38                     l3232:	
 10911                           ;PR29.c: 1063: uart_write(2,TEMP);
 10912  0F38  0856               	movf	(_TEMP),w
 10913  0F39  00F7               	movwf	(??_upload_HT+0)+0
 10914  0F3A  0877               	movf	(??_upload_HT+0)+0,w
 10915  0F3B  00F0               	movwf	(?_uart_write)
 10916  0F3C  3002               	movlw	(02h)
 10917  0F3D  160A  158A  24D7   	fcall	_uart_write
              120A  158A         
 10918                           	line	1060
 10919                           	
 10920  0F42                     l3234:	
 10921  0F42  3001               	movlw	(01h)
 10922  0F43  00F7               	movwf	(??_upload_HT+0)+0
 10923  0F44  0877               	movf	(??_upload_HT+0)+0,w
 10924  0F45  1283               	bcf	status, 5	;RP0=0, select bank0
 10925  0F46  1303               	bcf	status, 6	;RP1=0, select bank0
 10926  0F47  07C9               	addwf	(upload_HT@count),f
 10927  0F48  2F49               	goto	l3236
 10928                           	
 10929  0F49                     l491:	
 10930                           	
 10931  0F49                     l3236:	
 10932  0F49  0848               	movf	(upload_HT@address),w
 10933  0F4A  3E03               	addlw	low(03h)
 10934  0F4B  00F7               	movwf	(??_upload_HT+0)+0
 10935  0F4C  3000               	movlw	high(03h)
 10936  0F4D  1803               	skipnc
 10937  0F4E  3001               	movlw	(high(03h)+1)&0ffh
 10938  0F4F  00F8               	movwf	((??_upload_HT+0)+0)+1
 10939  0F50  0878               	movf	1+(??_upload_HT+0)+0,w
 10940  0F51  3A80               	xorlw	80h
 10941  0F52  00F9               	movwf	(??_upload_HT+2)+0
 10942  0F53  3080               	movlw	80h
 10943  0F54  0279               	subwf	(??_upload_HT+2)+0,w
 10944  0F55  1D03               	skipz
 10945  0F56  2F59               	goto	u2635
 10946  0F57  0849               	movf	(upload_HT@count),w
 10947  0F58  0277               	subwf	0+(??_upload_HT+0)+0,w
 10948  0F59                     u2635:
 10949                           
 10950  0F59  1803               	skipnc
 10951  0F5A  2F5C               	goto	u2631
 10952  0F5B  2F5D               	goto	u2630
 10953  0F5C                     u2631:
 10954  0F5C  2F2B               	goto	l3230
 10955  0F5D                     u2630:
 10956  0F5D  2F5E               	goto	l3238
 10957                           	
 10958  0F5E                     l493:	
 10959                           	line	1065
 10960                           	
 10961  0F5E                     l3238:	
 10962                           ;PR29.c: 1064: }
 10963                           ;PR29.c: 1065: address=count;
 10964  0F5E  1283               	bcf	status, 5	;RP0=0, select bank0
 10965  0F5F  1303               	bcf	status, 6	;RP1=0, select bank0
 10966  0F60  0849               	movf	(upload_HT@count),w
 10967  0F61  00F7               	movwf	(??_upload_HT+0)+0
 10968  0F62  0877               	movf	(??_upload_HT+0)+0,w
 10969  0F63  00C8               	movwf	(upload_HT@address)
 10970                           	line	1066
 10971  0F64  2F9A               	goto	l3252
 10972                           	line	1067
 10973                           	
 10974  0F65                     l495:	
 10975                           	line	1068
 10976                           	
 10977  0F65                     l3240:	
 10978                           ;PR29.c: 1067: {
 10979                           ;PR29.c: 1068: TEMP=get_eeprom(count);
 10980  0F65  1283               	bcf	status, 5	;RP0=0, select bank0
 10981  0F66  1303               	bcf	status, 6	;RP1=0, select bank0
 10982  0F67  0849               	movf	(upload_HT@count),w
 10983  0F68  160A  158A  22B0   	fcall	_get_eeprom
              120A  158A         
 10984  0F6D  00F7               	movwf	(??_upload_HT+0)+0
 10985  0F6E  0877               	movf	(??_upload_HT+0)+0,w
 10986  0F6F  1283               	bcf	status, 5	;RP0=0, select bank0
 10987  0F70  1303               	bcf	status, 6	;RP1=0, select bank0
 10988  0F71  00D6               	movwf	(_TEMP)
 10989                           	line	1069
 10990                           	
 10991  0F72                     l3242:	
 10992                           ;PR29.c: 1069: uart_write(2,0xff);
 10993  0F72  30FF               	movlw	(0FFh)
 10994  0F73  00F7               	movwf	(??_upload_HT+0)+0
 10995  0F74  0877               	movf	(??_upload_HT+0)+0,w
 10996  0F75  00F0               	movwf	(?_uart_write)
 10997  0F76  3002               	movlw	(02h)
 10998  0F77  160A  158A  24D7   	fcall	_uart_write
              120A  158A         
 10999                           	line	1070
 11000                           	
 11001  0F7C                     l3244:	
 11002                           ;PR29.c: 1070: if(TEMP==0xff) TEMP=0x30;
 11003  0F7C  1283               	bcf	status, 5	;RP0=0, select bank0
 11004  0F7D  1303               	bcf	status, 6	;RP1=0, select bank0
 11005  0F7E  0856               	movf	(_TEMP),w
 11006  0F7F  3AFF               	xorlw	0FFh
 11007  0F80  1D03               	skipz
 11008  0F81  2F83               	goto	u2641
 11009  0F82  2F84               	goto	u2640
 11010  0F83                     u2641:
 11011  0F83  2F89               	goto	l3248
 11012  0F84                     u2640:
 11013                           	
 11014  0F84                     l3246:	
 11015  0F84  3030               	movlw	(030h)
 11016  0F85  00F7               	movwf	(??_upload_HT+0)+0
 11017  0F86  0877               	movf	(??_upload_HT+0)+0,w
 11018  0F87  00D6               	movwf	(_TEMP)
 11019  0F88  2F89               	goto	l3248
 11020                           	
 11021  0F89                     l496:	
 11022                           	line	1071
 11023                           	
 11024  0F89                     l3248:	
 11025                           ;PR29.c: 1071: uart_write(2,TEMP);
 11026  0F89  0856               	movf	(_TEMP),w
 11027  0F8A  00F7               	movwf	(??_upload_HT+0)+0
 11028  0F8B  0877               	movf	(??_upload_HT+0)+0,w
 11029  0F8C  00F0               	movwf	(?_uart_write)
 11030  0F8D  3002               	movlw	(02h)
 11031  0F8E  160A  158A  24D7   	fcall	_uart_write
              120A  158A         
 11032                           	line	1066
 11033                           	
 11034  0F93                     l3250:	
 11035  0F93  3001               	movlw	(01h)
 11036  0F94  00F7               	movwf	(??_upload_HT+0)+0
 11037  0F95  0877               	movf	(??_upload_HT+0)+0,w
 11038  0F96  1283               	bcf	status, 5	;RP0=0, select bank0
 11039  0F97  1303               	bcf	status, 6	;RP1=0, select bank0
 11040  0F98  07C9               	addwf	(upload_HT@count),f
 11041  0F99  2F9A               	goto	l3252
 11042                           	
 11043  0F9A                     l494:	
 11044                           	
 11045  0F9A                     l3252:	
 11046  0F9A  0848               	movf	(upload_HT@address),w
 11047  0F9B  3E04               	addlw	low(04h)
 11048  0F9C  00F7               	movwf	(??_upload_HT+0)+0
 11049  0F9D  3000               	movlw	high(04h)
 11050  0F9E  1803               	skipnc
 11051  0F9F  3001               	movlw	(high(04h)+1)&0ffh
 11052  0FA0  00F8               	movwf	((??_upload_HT+0)+0)+1
 11053  0FA1  0878               	movf	1+(??_upload_HT+0)+0,w
 11054  0FA2  3A80               	xorlw	80h
 11055  0FA3  00F9               	movwf	(??_upload_HT+2)+0
 11056  0FA4  3080               	movlw	80h
 11057  0FA5  0279               	subwf	(??_upload_HT+2)+0,w
 11058  0FA6  1D03               	skipz
 11059  0FA7  2FAA               	goto	u2655
 11060  0FA8  0849               	movf	(upload_HT@count),w
 11061  0FA9  0277               	subwf	0+(??_upload_HT+0)+0,w
 11062  0FAA                     u2655:
 11063                           
 11064  0FAA  1803               	skipnc
 11065  0FAB  2FAD               	goto	u2651
 11066  0FAC  2FAE               	goto	u2650
 11067  0FAD                     u2651:
 11068  0FAD  2F65               	goto	l3240
 11069  0FAE                     u2650:
 11070  0FAE  2FAF               	goto	l3254
 11071                           	
 11072  0FAF                     l497:	
 11073                           	line	1073
 11074                           	
 11075  0FAF                     l3254:	
 11076                           ;PR29.c: 1072: }
 11077                           ;PR29.c: 1073: allign();
 11078  0FAF  160A  158A  22F8   	fcall	_allign
              120A  158A         
 11079                           	line	1074
 11080                           	
 11081  0FB4                     l3256:	
 11082                           ;PR29.c: 1074: for(count=0;count<80;count++)
 11083  0FB4  1283               	bcf	status, 5	;RP0=0, select bank0
 11084  0FB5  1303               	bcf	status, 6	;RP1=0, select bank0
 11085  0FB6  01C9               	clrf	(upload_HT@count)
 11086                           	
 11087  0FB7                     l3258:	
 11088  0FB7  3050               	movlw	(050h)
 11089  0FB8  0249               	subwf	(upload_HT@count),w
 11090  0FB9  1C03               	skipc
 11091  0FBA  2FBC               	goto	u2661
 11092  0FBB  2FBD               	goto	u2660
 11093  0FBC                     u2661:
 11094  0FBC  2FBF               	goto	l3262
 11095  0FBD                     u2660:
 11096  0FBD  2FD5               	goto	l499
 11097                           	
 11098  0FBE                     l3260:	
 11099  0FBE  2FD5               	goto	l499
 11100                           	line	1075
 11101                           	
 11102  0FBF                     l498:	
 11103                           	
 11104  0FBF                     l3262:	
 11105                           ;PR29.c: 1075: uart_write(2,' ');
 11106  0FBF  3020               	movlw	(020h)
 11107  0FC0  00F7               	movwf	(??_upload_HT+0)+0
 11108  0FC1  0877               	movf	(??_upload_HT+0)+0,w
 11109  0FC2  00F0               	movwf	(?_uart_write)
 11110  0FC3  3002               	movlw	(02h)
 11111  0FC4  160A  158A  24D7   	fcall	_uart_write
              120A  158A         
 11112                           	line	1074
 11113                           	
 11114  0FC9                     l3264:	
 11115  0FC9  3001               	movlw	(01h)
 11116  0FCA  00F7               	movwf	(??_upload_HT+0)+0
 11117  0FCB  0877               	movf	(??_upload_HT+0)+0,w
 11118  0FCC  1283               	bcf	status, 5	;RP0=0, select bank0
 11119  0FCD  1303               	bcf	status, 6	;RP1=0, select bank0
 11120  0FCE  07C9               	addwf	(upload_HT@count),f
 11121                           	
 11122  0FCF                     l3266:	
 11123  0FCF  3050               	movlw	(050h)
 11124  0FD0  0249               	subwf	(upload_HT@count),w
 11125  0FD1  1C03               	skipc
 11126  0FD2  2FD4               	goto	u2671
 11127  0FD3  2FD5               	goto	u2670
 11128  0FD4                     u2671:
 11129  0FD4  2FBF               	goto	l3262
 11130  0FD5                     u2670:
 11131                           	
 11132  0FD5                     l499:	
 11133                           	line	1076
 11134                           ;PR29.c: 1076: for(count=0;count<40;count++)
 11135  0FD5  01C9               	clrf	(upload_HT@count)
 11136                           	
 11137  0FD6                     l3268:	
 11138  0FD6  3028               	movlw	(028h)
 11139  0FD7  0249               	subwf	(upload_HT@count),w
 11140  0FD8  1C03               	skipc
 11141  0FD9  2FDB               	goto	u2681
 11142  0FDA  2FDC               	goto	u2680
 11143  0FDB                     u2681:
 11144  0FDB  2FDE               	goto	l3272
 11145  0FDC                     u2680:
 11146  0FDC  2FFF               	goto	l502
 11147                           	
 11148  0FDD                     l3270:	
 11149  0FDD  2FFF               	goto	l502
 11150                           	line	1077
 11151                           	
 11152  0FDE                     l500:	
 11153                           	
 11154  0FDE                     l3272:	
 11155                           ;PR29.c: 1077: { uart_write(2,'+');
 11156  0FDE  302B               	movlw	(02Bh)
 11157  0FDF  00F7               	movwf	(??_upload_HT+0)+0
 11158  0FE0  0877               	movf	(??_upload_HT+0)+0,w
 11159  0FE1  00F0               	movwf	(?_uart_write)
 11160  0FE2  3002               	movlw	(02h)
 11161  0FE3  160A  158A  24D7   	fcall	_uart_write
              120A  158A         
 11162                           	line	1078
 11163                           ;PR29.c: 1078: uart_write(2,'-');
 11164  0FE8  302D               	movlw	(02Dh)
 11165  0FE9  00F7               	movwf	(??_upload_HT+0)+0
 11166  0FEA  0877               	movf	(??_upload_HT+0)+0,w
 11167  0FEB  00F0               	movwf	(?_uart_write)
 11168  0FEC  3002               	movlw	(02h)
 11169  0FED  160A  158A  24D7   	fcall	_uart_write
              120A  158A         
 11170                           	line	1076
 11171                           	
 11172  0FF2                     l3274:	
 11173  0FF2  3001               	movlw	(01h)
 11174  0FF3  00F7               	movwf	(??_upload_HT+0)+0
 11175  0FF4  0877               	movf	(??_upload_HT+0)+0,w
 11176  0FF5  1283               	bcf	status, 5	;RP0=0, select bank0
 11177  0FF6  1303               	bcf	status, 6	;RP1=0, select bank0
 11178  0FF7  07C9               	addwf	(upload_HT@count),f
 11179                           	
 11180  0FF8                     l3276:	
 11181  0FF8  3028               	movlw	(028h)
 11182  0FF9  0249               	subwf	(upload_HT@count),w
 11183  0FFA  1C03               	skipc
 11184  0FFB  2FFD               	goto	u2691
 11185  0FFC  2FFE               	goto	u2690
 11186  0FFD                     u2691:
 11187  0FFD  2FDE               	goto	l3272
 11188  0FFE                     u2690:
 11189  0FFE  2FFF               	goto	l502
 11190                           	
 11191  0FFF                     l501:	
 11192                           	line	1081
 11193                           	
 11194  0FFF                     l502:	
 11195  0FFF  0008               	return
 11196                           	opt stack 0
 11197                           GLOBAL	__end_of_upload_HT
 11198  1000                     	__end_of_upload_HT:
 11199                           	signat	_upload_HT,88
 11200                           	global	_get_eeprom
 11201                           
 11202 ;; *************** function _get_eeprom *****************
 11203 ;; Defined at:
 11204 ;;		line 804 in file "PR29.c"
 11205 ;; Parameters:    Size  Location     Type
 11206 ;;  location        1    wreg     unsigned char 
 11207 ;; Auto vars:     Size  Location     Type
 11208 ;;  location        1    1[COMMON] unsigned char 
 11209 ;;  value           1    2[COMMON] unsigned char 
 11210 ;; Return value:  Size  Location     Type
 11211 ;;                  1    wreg      unsigned char 
 11212 ;; Registers used:
 11213 ;;		wreg, status,2, status,0
 11214 ;; Tracked objects:
 11215 ;;		On entry : 0/0
 11216 ;;		On exit  : 0/0
 11217 ;;		Unchanged: 0/0
 11218 ;; Data sizes:     COMMON   BANK0   BANK1   BANK3   BANK2
 11219 ;;      Params:         0       0       0       0       0
 11220 ;;      Locals:         2       0       0       0       0
 11221 ;;      Temps:          1       0       0       0       0
 11222 ;;      Totals:         3       0       0       0       0
 11223 ;;Total ram usage:        3 bytes
 11224 ;; Hardware stack levels used:    1
 11225 ;; This function calls:
 11226 ;;		Nothing
 11227 ;; This function is called by:
 11228 ;;		_main
 11229 ;;		_view_attendance
 11230 ;;		_upload_HT
 11231 ;;		_upload_GUI
 11232 ;; This function uses a non-reentrant model
 11233 ;;
 11234                           psect	text547,local,class=CODE,delta=2,merge=1
 11235                           global __ptext547
 11236  1AB0                     __ptext547:
 11237                           psect	text547
 11238                           	file	"PR29.c"
 11239                           	line	804
 11240                           	global	__size_of_get_eeprom
 11241  0015                     	__size_of_get_eeprom	equ	__end_of_get_eeprom-_get_eeprom
 11242                           	
 11243  1AB0                     _get_eeprom:	
 11244                           	opt	stack 5
 11245                           ; Regs used in _get_eeprom: [wreg+status,2+status,0]
 11246                           ;get_eeprom@location stored from wreg
 11247                           	line	806
 11248  1AB0  00F1               	movwf	(get_eeprom@location)
 11249                           	
 11250  1AB1                     l2560:	
 11251                           ;PR29.c: 805: unsigned char value;
 11252                           ;PR29.c: 806: value= ((EEADR=(location)),(EECON1&=0x3F),(RD=1),EEDATA);
 11253  1AB1  0871               	movf	(get_eeprom@location),w
 11254  1AB2  1283               	bcf	status, 5	;RP0=0, select bank2
 11255  1AB3  1703               	bsf	status, 6	;RP1=1, select bank2
 11256  1AB4  008D               	movwf	(269)^0100h	;volatile
 11257                           	
 11258  1AB5                     l2562:	
 11259  1AB5  303F               	movlw	(03Fh)
 11260  1AB6  00F0               	movwf	(??_get_eeprom+0)+0
 11261  1AB7  0870               	movf	(??_get_eeprom+0)+0,w
 11262  1AB8  1683               	bsf	status, 5	;RP0=1, select bank3
 11263  1AB9  1703               	bsf	status, 6	;RP1=1, select bank3
 11264  1ABA  058C               	andwf	(396)^0180h,f	;volatile
 11265                           	
 11266  1ABB                     l2564:	
 11267  1ABB  140C               	bsf	(3168/8)^0180h,(3168)&7	;volatile
 11268                           	
 11269  1ABC                     l2566:	
 11270  1ABC  1283               	bcf	status, 5	;RP0=0, select bank2
 11271  1ABD  1703               	bsf	status, 6	;RP1=1, select bank2
 11272  1ABE  080C               	movf	(268)^0100h,w	;volatile
 11273  1ABF  00F0               	movwf	(??_get_eeprom+0)+0
 11274  1AC0  0870               	movf	(??_get_eeprom+0)+0,w
 11275  1AC1  00F2               	movwf	(get_eeprom@value)
 11276                           	line	807
 11277                           	
 11278  1AC2                     l2568:	
 11279                           ;PR29.c: 807: return value;
 11280  1AC2  0872               	movf	(get_eeprom@value),w
 11281  1AC3  2AC4               	goto	l421
 11282                           	
 11283  1AC4                     l2570:	
 11284                           	line	808
 11285                           	
 11286  1AC4                     l421:	
 11287  1AC4  0008               	return
 11288                           	opt stack 0
 11289                           GLOBAL	__end_of_get_eeprom
 11290  1AC5                     	__end_of_get_eeprom:
 11291                           	signat	_get_eeprom,4217
 11292                           	global	_display_status
 11293                           
 11294 ;; *************** function _display_status *****************
 11295 ;; Defined at:
 11296 ;;		line 616 in file "PR29.c"
 11297 ;; Parameters:    Size  Location     Type
 11298 ;;  type            1    wreg     unsigned char 
 11299 ;;  data0           1    0[BANK0 ] unsigned char 
 11300 ;;  data            1    1[BANK0 ] unsigned char 
 11301 ;; Auto vars:     Size  Location     Type
 11302 ;;  type            1   13[COMMON] unsigned char 
 11303 ;; Return value:  Size  Location     Type
 11304 ;;		None               void
 11305 ;; Registers used:
 11306 ;;		wreg, fsr0l, fsr0h, status,2, status,0, btemp+1, pclath, cstack
 11307 ;; Tracked objects:
 11308 ;;		On entry : 0/0
 11309 ;;		On exit  : 0/0
 11310 ;;		Unchanged: 0/0
 11311 ;; Data sizes:     COMMON   BANK0   BANK1   BANK3   BANK2
 11312 ;;      Params:         0       2       0       0       0
 11313 ;;      Locals:         1       0       0       0       0
 11314 ;;      Temps:          0       0       0       0       0
 11315 ;;      Totals:         1       2       0       0       0
 11316 ;;Total ram usage:        3 bytes
 11317 ;; Hardware stack levels used:    1
 11318 ;; Hardware stack levels required when called:    3
 11319 ;; This function calls:
 11320 ;;		_lcd_clr
 11321 ;;		_lcd_goto
 11322 ;;		_send_string
 11323 ;;		_delay
 11324 ;;		_send_char
 11325 ;; This function is called by:
 11326 ;;		_receive_reply
 11327 ;; This function uses a non-reentrant model
 11328 ;;
 11329                           psect	text548,local,class=CODE,delta=2,merge=1
 11330                           global __ptext548
 11331  1E34                     __ptext548:
 11332                           psect	text548
 11333                           	file	"PR29.c"
 11334                           	line	616
 11335                           	global	__size_of_display_status
 11336  01CC                     	__size_of_display_status	equ	__end_of_display_status-_display_status
 11337                           	
 11338  1E34                     _display_status:	
 11339                           	opt	stack 1
 11340                           ; Regs used in _display_status: [wreg-fsr0h+status,2+status,0+btemp+1+pclath+cstack]
 11341                           ;display_status@type stored from wreg
 11342  1E34  00FD               	movwf	(display_status@type)
 11343                           	line	617
 11344                           	
 11345  1E35                     l3278:	
 11346                           ;PR29.c: 617: lcd_clr();
 11347  1E35  160A  158A  229C   	fcall	_lcd_clr
              160A  158A         
 11348                           	line	618
 11349                           ;PR29.c: 618: switch(data)
 11350  1E3A  2FE9               	goto	l3410
 11351                           	line	620
 11352                           ;PR29.c: 619: {
 11353                           ;PR29.c: 620: case 0x00: RA1=1;
 11354                           	
 11355  1E3B                     l372:	
 11356  1E3B  1485               	bsf	(41/8),(41)&7	;volatile
 11357                           	line	621
 11358                           	
 11359  1E3C                     l3280:	
 11360                           ;PR29.c: 621: if((type != 1) && (type != 2))
 11361  1E3C  087D               	movf	(display_status@type),w
 11362  1E3D  3A01               	xorlw	01h
 11363  1E3E  1903               	skipnz
 11364  1E3F  2E41               	goto	u2701
 11365  1E40  2E42               	goto	u2700
 11366  1E41                     u2701:
 11367  1E41  2E58               	goto	l3288
 11368  1E42                     u2700:
 11369                           	
 11370  1E42                     l3282:	
 11371  1E42  087D               	movf	(display_status@type),w
 11372  1E43  3A02               	xorlw	02h
 11373  1E44  1903               	skipnz
 11374  1E45  2E47               	goto	u2711
 11375  1E46  2E48               	goto	u2710
 11376  1E47                     u2711:
 11377  1E47  2E58               	goto	l3288
 11378  1E48                     u2710:
 11379                           	line	622
 11380                           	
 11381  1E48                     l3284:	
 11382                           ;PR29.c: 622: { lcd_goto(20);
 11383  1E48  3014               	movlw	(014h)
 11384  1E49  160A  158A  22DB   	fcall	_lcd_goto
              160A  158A         
 11385                           	line	623
 11386                           	
 11387  1E4E                     l3286:	
 11388                           ;PR29.c: 623: send_string("Successful      ");
 11389  1E4E  308A               	movlw	low(STR_44|8000h)
 11390  1E4F  00F9               	movwf	(?_send_string)
 11391  1E50  3090               	movlw	high(STR_44|8000h)
 11392  1E51  00FA               	movwf	((?_send_string))+1
 11393  1E52  160A  158A  23B2   	fcall	_send_string
              160A  158A         
 11394                           	line	624
 11395                           ;PR29.c: 624: }
 11396  1E57  2EA4               	goto	l3304
 11397                           	line	625
 11398                           	
 11399  1E58                     l373:	
 11400                           	
 11401  1E58                     l3288:	
 11402                           ;PR29.c: 625: else if (type ==1)
 11403  1E58  087D               	movf	(display_status@type),w
 11404  1E59  3A01               	xorlw	01h
 11405  1E5A  1D03               	skipz
 11406  1E5B  2E5D               	goto	u2721
 11407  1E5C  2E5E               	goto	u2720
 11408  1E5D                     u2721:
 11409  1E5D  2E7D               	goto	l3296
 11410  1E5E                     u2720:
 11411                           	line	627
 11412                           	
 11413  1E5E                     l3290:	
 11414                           ;PR29.c: 626: {
 11415                           ;PR29.c: 627: lcd_goto(0);
 11416  1E5E  3000               	movlw	(0)
 11417  1E5F  160A  158A  22DB   	fcall	_lcd_goto
              160A  158A         
 11418                           	line	628
 11419                           	
 11420  1E64                     l3292:	
 11421                           ;PR29.c: 628: send_string("Scanning...     ");
 11422  1E64  309B               	movlw	low(STR_45|8000h)
 11423  1E65  00F9               	movwf	(?_send_string)
 11424  1E66  3090               	movlw	high(STR_45|8000h)
 11425  1E67  00FA               	movwf	((?_send_string))+1
 11426  1E68  160A  158A  23B2   	fcall	_send_string
              160A  158A         
 11427                           	line	629
 11428                           	
 11429  1E6D                     l3294:	
 11430                           ;PR29.c: 629: lcd_goto(20);
 11431  1E6D  3014               	movlw	(014h)
 11432  1E6E  160A  158A  22DB   	fcall	_lcd_goto
              160A  158A         
 11433                           	line	630
 11434                           ;PR29.c: 630: send_string("Verification 1/2");
 11435  1E73  309A               	movlw	low(STR_46|8000h)
 11436  1E74  00F9               	movwf	(?_send_string)
 11437  1E75  3091               	movlw	high(STR_46|8000h)
 11438  1E76  00FA               	movwf	((?_send_string))+1
 11439  1E77  160A  158A  23B2   	fcall	_send_string
              160A  158A         
 11440                           	line	631
 11441                           ;PR29.c: 631: }
 11442  1E7C  2EA4               	goto	l3304
 11443                           	line	632
 11444                           	
 11445  1E7D                     l375:	
 11446                           	
 11447  1E7D                     l3296:	
 11448                           ;PR29.c: 632: else if (type ==2)
 11449  1E7D  087D               	movf	(display_status@type),w
 11450  1E7E  3A02               	xorlw	02h
 11451  1E7F  1D03               	skipz
 11452  1E80  2E82               	goto	u2731
 11453  1E81  2E83               	goto	u2730
 11454  1E82                     u2731:
 11455  1E82  2EA4               	goto	l3304
 11456  1E83                     u2730:
 11457                           	line	634
 11458                           	
 11459  1E83                     l3298:	
 11460                           ;PR29.c: 633: {
 11461                           ;PR29.c: 634: lcd_goto(0);
 11462  1E83  3000               	movlw	(0)
 11463  1E84  160A  158A  22DB   	fcall	_lcd_goto
              160A  158A         
 11464                           	line	635
 11465                           	
 11466  1E89                     l3300:	
 11467                           ;PR29.c: 635: send_string("Scanning...     ");
 11468  1E89  309B               	movlw	low(STR_47|8000h)
 11469  1E8A  00F9               	movwf	(?_send_string)
 11470  1E8B  3090               	movlw	high(STR_47|8000h)
 11471  1E8C  00FA               	movwf	((?_send_string))+1
 11472  1E8D  160A  158A  23B2   	fcall	_send_string
              160A  158A         
 11473                           	line	636
 11474                           	
 11475  1E92                     l3302:	
 11476                           ;PR29.c: 636: lcd_goto(20);
 11477  1E92  3014               	movlw	(014h)
 11478  1E93  160A  158A  22DB   	fcall	_lcd_goto
              160A  158A         
 11479                           	line	637
 11480                           ;PR29.c: 637: send_string("Verification 2/2");
 11481  1E98  30AB               	movlw	low(STR_48|8000h)
 11482  1E99  00F9               	movwf	(?_send_string)
 11483  1E9A  3091               	movlw	high(STR_48|8000h)
 11484  1E9B  00FA               	movwf	((?_send_string))+1
 11485  1E9C  160A  158A  23B2   	fcall	_send_string
              160A  158A         
 11486  1EA1  2EA4               	goto	l3304
 11487                           	line	638
 11488                           	
 11489  1EA2                     l377:	
 11490  1EA2  2EA4               	goto	l3304
 11491                           	line	639
 11492                           	
 11493  1EA3                     l376:	
 11494  1EA3  2EA4               	goto	l3304
 11495                           	
 11496  1EA4                     l374:	
 11497                           	
 11498  1EA4                     l3304:	
 11499                           ;PR29.c: 638: }
 11500                           ;PR29.c: 639: delay(200000);
 11501  1EA4  3000               	movlw	0
 11502  1EA5  00F3               	movwf	(?_delay+3)
 11503  1EA6  3003               	movlw	03h
 11504  1EA7  00F2               	movwf	(?_delay+2)
 11505  1EA8  300D               	movlw	0Dh
 11506  1EA9  00F1               	movwf	(?_delay+1)
 11507  1EAA  3040               	movlw	040h
 11508  1EAB  00F0               	movwf	(?_delay)
 11509                           
 11510  1EAC  160A  158A  2382   	fcall	_delay
              160A  158A         
 11511                           	line	640
 11512                           	
 11513  1EB1                     l3306:	
 11514                           ;PR29.c: 640: RA1=0;
 11515  1EB1  1283               	bcf	status, 5	;RP0=0, select bank0
 11516  1EB2  1303               	bcf	status, 6	;RP1=0, select bank0
 11517  1EB3  1085               	bcf	(41/8),(41)&7	;volatile
 11518                           	line	641
 11519                           	
 11520  1EB4                     l3308:	
 11521                           ;PR29.c: 641: error=0;
 11522  1EB4  11D9               	bcf	(_error/8),(_error)&7
 11523                           	line	642
 11524                           	
 11525  1EB5                     l3310:	
 11526                           ;PR29.c: 642: lcd_clr();
 11527  1EB5  160A  158A  229C   	fcall	_lcd_clr
              160A  158A         
 11528                           	line	643
 11529                           ;PR29.c: 643: break;
 11530  1EBA  2FFF               	goto	l387
 11531                           	line	645
 11532                           ;PR29.c: 645: case 0X01: RA0=1;
 11533                           	
 11534  1EBB                     l379:	
 11535  1EBB  1405               	bsf	(40/8),(40)&7	;volatile
 11536                           	line	646
 11537                           ;PR29.c: 646: RA5=1;
 11538  1EBC  1685               	bsf	(45/8),(45)&7	;volatile
 11539                           	line	647
 11540                           	
 11541  1EBD                     l3312:	
 11542                           ;PR29.c: 647: lcd_goto(20);
 11543  1EBD  3014               	movlw	(014h)
 11544  1EBE  160A  158A  22DB   	fcall	_lcd_goto
              160A  158A         
 11545                           	line	648
 11546                           	
 11547  1EC3                     l3314:	
 11548                           ;PR29.c: 648: send_string("Failed");
 11549  1EC3  309E               	movlw	low(STR_49|8000h)
 11550  1EC4  00F9               	movwf	(?_send_string)
 11551  1EC5  3092               	movlw	high(STR_49|8000h)
 11552  1EC6  00FA               	movwf	((?_send_string))+1
 11553  1EC7  160A  158A  23B2   	fcall	_send_string
              160A  158A         
 11554                           	line	649
 11555                           	
 11556  1ECC                     l3316:	
 11557                           ;PR29.c: 649: delay(200000);
 11558  1ECC  3000               	movlw	0
 11559  1ECD  00F3               	movwf	(?_delay+3)
 11560  1ECE  3003               	movlw	03h
 11561  1ECF  00F2               	movwf	(?_delay+2)
 11562  1ED0  300D               	movlw	0Dh
 11563  1ED1  00F1               	movwf	(?_delay+1)
 11564  1ED2  3040               	movlw	040h
 11565  1ED3  00F0               	movwf	(?_delay)
 11566                           
 11567  1ED4  160A  158A  2382   	fcall	_delay
              160A  158A         
 11568                           	line	650
 11569                           	
 11570  1ED9                     l3318:	
 11571                           ;PR29.c: 650: RA5=0;
 11572  1ED9  1283               	bcf	status, 5	;RP0=0, select bank0
 11573  1EDA  1303               	bcf	status, 6	;RP1=0, select bank0
 11574  1EDB  1285               	bcf	(45/8),(45)&7	;volatile
 11575                           	line	651
 11576                           	
 11577  1EDC                     l3320:	
 11578                           ;PR29.c: 651: RA0=0;
 11579  1EDC  1005               	bcf	(40/8),(40)&7	;volatile
 11580                           	line	652
 11581                           	
 11582  1EDD                     l3322:	
 11583                           ;PR29.c: 652: error=1;
 11584  1EDD  15D9               	bsf	(_error/8),(_error)&7
 11585                           	line	653
 11586                           	
 11587  1EDE                     l3324:	
 11588                           ;PR29.c: 653: lcd_clr();
 11589  1EDE  160A  158A  229C   	fcall	_lcd_clr
              160A  158A         
 11590                           	line	654
 11591                           ;PR29.c: 654: break;
 11592  1EE3  2FFF               	goto	l387
 11593                           	line	656
 11594                           ;PR29.c: 656: case 0x08: RA0=1;
 11595                           	
 11596  1EE4                     l380:	
 11597  1EE4  1405               	bsf	(40/8),(40)&7	;volatile
 11598                           	line	657
 11599                           ;PR29.c: 657: RA5=1;
 11600  1EE5  1685               	bsf	(45/8),(45)&7	;volatile
 11601                           	line	658
 11602                           	
 11603  1EE6                     l3326:	
 11604                           ;PR29.c: 658: lcd_goto(20);
 11605  1EE6  3014               	movlw	(014h)
 11606  1EE7  160A  158A  22DB   	fcall	_lcd_goto
              160A  158A         
 11607                           	line	659
 11608                           	
 11609  1EEC                     l3328:	
 11610                           ;PR29.c: 659: send_string("Timeout");
 11611  1EEC  3087               	movlw	low(STR_50|8000h)
 11612  1EED  00F9               	movwf	(?_send_string)
 11613  1EEE  3092               	movlw	high(STR_50|8000h)
 11614  1EEF  00FA               	movwf	((?_send_string))+1
 11615  1EF0  160A  158A  23B2   	fcall	_send_string
              160A  158A         
 11616                           	line	660
 11617                           	
 11618  1EF5                     l3330:	
 11619                           ;PR29.c: 660: delay(200000);
 11620  1EF5  3000               	movlw	0
 11621  1EF6  00F3               	movwf	(?_delay+3)
 11622  1EF7  3003               	movlw	03h
 11623  1EF8  00F2               	movwf	(?_delay+2)
 11624  1EF9  300D               	movlw	0Dh
 11625  1EFA  00F1               	movwf	(?_delay+1)
 11626  1EFB  3040               	movlw	040h
 11627  1EFC  00F0               	movwf	(?_delay)
 11628                           
 11629  1EFD  160A  158A  2382   	fcall	_delay
              160A  158A         
 11630                           	line	661
 11631                           	
 11632  1F02                     l3332:	
 11633                           ;PR29.c: 661: RA5=0;
 11634  1F02  1283               	bcf	status, 5	;RP0=0, select bank0
 11635  1F03  1303               	bcf	status, 6	;RP1=0, select bank0
 11636  1F04  1285               	bcf	(45/8),(45)&7	;volatile
 11637                           	line	662
 11638                           	
 11639  1F05                     l3334:	
 11640                           ;PR29.c: 662: RA0=0;
 11641  1F05  1005               	bcf	(40/8),(40)&7	;volatile
 11642                           	line	663
 11643                           	
 11644  1F06                     l3336:	
 11645                           ;PR29.c: 663: error=1;
 11646  1F06  15D9               	bsf	(_error/8),(_error)&7
 11647                           	line	664
 11648                           	
 11649  1F07                     l3338:	
 11650                           ;PR29.c: 664: lcd_clr();
 11651  1F07  160A  158A  229C   	fcall	_lcd_clr
              160A  158A         
 11652                           	line	665
 11653                           ;PR29.c: 665: break;
 11654  1F0C  2FFF               	goto	l387
 11655                           	line	667
 11656                           ;PR29.c: 667: case 0x07: RA0=1;
 11657                           	
 11658  1F0D                     l381:	
 11659  1F0D  1405               	bsf	(40/8),(40)&7	;volatile
 11660                           	line	668
 11661                           ;PR29.c: 668: RA5=1;
 11662  1F0E  1685               	bsf	(45/8),(45)&7	;volatile
 11663                           	line	669
 11664                           	
 11665  1F0F                     l3340:	
 11666                           ;PR29.c: 669: lcd_goto(20);
 11667  1F0F  3014               	movlw	(014h)
 11668  1F10  160A  158A  22DB   	fcall	_lcd_goto
              160A  158A         
 11669                           	line	670
 11670                           	
 11671  1F15                     l3342:	
 11672                           ;PR29.c: 670: send_string("User Exist");
 11673  1F15  306B               	movlw	low(STR_51|8000h)
 11674  1F16  00F9               	movwf	(?_send_string)
 11675  1F17  3092               	movlw	high(STR_51|8000h)
 11676  1F18  00FA               	movwf	((?_send_string))+1
 11677  1F19  160A  158A  23B2   	fcall	_send_string
              160A  158A         
 11678                           	line	671
 11679                           	
 11680  1F1E                     l3344:	
 11681                           ;PR29.c: 671: delay(200000);
 11682  1F1E  3000               	movlw	0
 11683  1F1F  00F3               	movwf	(?_delay+3)
 11684  1F20  3003               	movlw	03h
 11685  1F21  00F2               	movwf	(?_delay+2)
 11686  1F22  300D               	movlw	0Dh
 11687  1F23  00F1               	movwf	(?_delay+1)
 11688  1F24  3040               	movlw	040h
 11689  1F25  00F0               	movwf	(?_delay)
 11690                           
 11691  1F26  160A  158A  2382   	fcall	_delay
              160A  158A         
 11692                           	line	672
 11693                           	
 11694  1F2B                     l3346:	
 11695                           ;PR29.c: 672: RA5=0;
 11696  1F2B  1283               	bcf	status, 5	;RP0=0, select bank0
 11697  1F2C  1303               	bcf	status, 6	;RP1=0, select bank0
 11698  1F2D  1285               	bcf	(45/8),(45)&7	;volatile
 11699                           	line	673
 11700                           	
 11701  1F2E                     l3348:	
 11702                           ;PR29.c: 673: RA0=0;
 11703  1F2E  1005               	bcf	(40/8),(40)&7	;volatile
 11704                           	line	674
 11705                           	
 11706  1F2F                     l3350:	
 11707                           ;PR29.c: 674: error=1;
 11708  1F2F  15D9               	bsf	(_error/8),(_error)&7
 11709                           	line	675
 11710                           	
 11711  1F30                     l3352:	
 11712                           ;PR29.c: 675: lcd_clr();
 11713  1F30  160A  158A  229C   	fcall	_lcd_clr
              160A  158A         
 11714                           	line	676
 11715                           ;PR29.c: 676: break;
 11716  1F35  2FFF               	goto	l387
 11717                           	line	678
 11718                           ;PR29.c: 678: case 0x05: RA0=1;
 11719                           	
 11720  1F36                     l382:	
 11721  1F36  1405               	bsf	(40/8),(40)&7	;volatile
 11722                           	line	679
 11723                           ;PR29.c: 679: RA5=1;
 11724  1F37  1685               	bsf	(45/8),(45)&7	;volatile
 11725                           	line	680
 11726                           	
 11727  1F38                     l3354:	
 11728                           ;PR29.c: 680: lcd_goto(20);
 11729  1F38  3014               	movlw	(014h)
 11730  1F39  160A  158A  22DB   	fcall	_lcd_goto
              160A  158A         
 11731                           	line	681
 11732                           	
 11733  1F3E                     l3356:	
 11734                           ;PR29.c: 681: send_string("Access Denied");
 11735  1F3E  301E               	movlw	low(STR_52|8000h)
 11736  1F3F  00F9               	movwf	(?_send_string)
 11737  1F40  3092               	movlw	high(STR_52|8000h)
 11738  1F41  00FA               	movwf	((?_send_string))+1
 11739  1F42  160A  158A  23B2   	fcall	_send_string
              160A  158A         
 11740                           	line	682
 11741                           	
 11742  1F47                     l3358:	
 11743                           ;PR29.c: 682: delay(200000);
 11744  1F47  3000               	movlw	0
 11745  1F48  00F3               	movwf	(?_delay+3)
 11746  1F49  3003               	movlw	03h
 11747  1F4A  00F2               	movwf	(?_delay+2)
 11748  1F4B  300D               	movlw	0Dh
 11749  1F4C  00F1               	movwf	(?_delay+1)
 11750  1F4D  3040               	movlw	040h
 11751  1F4E  00F0               	movwf	(?_delay)
 11752                           
 11753  1F4F  160A  158A  2382   	fcall	_delay
              160A  158A         
 11754                           	line	683
 11755                           	
 11756  1F54                     l3360:	
 11757                           ;PR29.c: 683: RA5=0;
 11758  1F54  1283               	bcf	status, 5	;RP0=0, select bank0
 11759  1F55  1303               	bcf	status, 6	;RP1=0, select bank0
 11760  1F56  1285               	bcf	(45/8),(45)&7	;volatile
 11761                           	line	684
 11762                           	
 11763  1F57                     l3362:	
 11764                           ;PR29.c: 684: RA0=0;
 11765  1F57  1005               	bcf	(40/8),(40)&7	;volatile
 11766                           	line	685
 11767                           	
 11768  1F58                     l3364:	
 11769                           ;PR29.c: 685: error=1;
 11770  1F58  15D9               	bsf	(_error/8),(_error)&7
 11771                           	line	686
 11772                           	
 11773  1F59                     l3366:	
 11774                           ;PR29.c: 686: lcd_clr();
 11775  1F59  160A  158A  229C   	fcall	_lcd_clr
              160A  158A         
 11776                           	line	687
 11777                           ;PR29.c: 687: break;
 11778  1F5E  2FFF               	goto	l387
 11779                           	line	689
 11780                           ;PR29.c: 689: case 0x03: RA1=1;
 11781                           	
 11782  1F5F                     l383:	
 11783  1F5F  1485               	bsf	(41/8),(41)&7	;volatile
 11784                           	line	690
 11785                           	
 11786  1F60                     l3368:	
 11787                           ;PR29.c: 690: if(data0!=0xFF)
 11788  1F60  0820               	movf	(display_status@data0),w
 11789  1F61  3AFF               	xorlw	0FFh
 11790  1F62  1903               	skipnz
 11791  1F63  2F65               	goto	u2741
 11792  1F64  2F66               	goto	u2740
 11793  1F65                     u2741:
 11794  1F65  2F97               	goto	l3382
 11795  1F66                     u2740:
 11796                           	line	692
 11797                           	
 11798  1F66                     l3370:	
 11799                           ;PR29.c: 691: {
 11800                           ;PR29.c: 692: lcd_goto(0);
 11801  1F66  3000               	movlw	(0)
 11802  1F67  160A  158A  22DB   	fcall	_lcd_goto
              160A  158A         
 11803                           	line	693
 11804                           	
 11805  1F6C                     l3372:	
 11806                           ;PR29.c: 693: send_string("Hello User ");
 11807  1F6C  3047               	movlw	low(STR_53|8000h)
 11808  1F6D  00F9               	movwf	(?_send_string)
 11809  1F6E  3092               	movlw	high(STR_53|8000h)
 11810  1F6F  00FA               	movwf	((?_send_string))+1
 11811  1F70  160A  158A  23B2   	fcall	_send_string
              160A  158A         
 11812                           	line	694
 11813                           	
 11814  1F75                     l3374:	
 11815                           ;PR29.c: 694: lcd_goto(11);
 11816  1F75  300B               	movlw	(0Bh)
 11817  1F76  160A  158A  22DB   	fcall	_lcd_goto
              160A  158A         
 11818                           	line	695
 11819                           	
 11820  1F7B                     l3376:	
 11821                           ;PR29.c: 695: send_char(0x30 + data0);
 11822  1F7B  1283               	bcf	status, 5	;RP0=0, select bank0
 11823  1F7C  1303               	bcf	status, 6	;RP1=0, select bank0
 11824  1F7D  0820               	movf	(display_status@data0),w
 11825  1F7E  3E30               	addlw	030h
 11826  1F7F  160A  158A  2338   	fcall	_send_char
              160A  158A         
 11827                           	line	696
 11828                           	
 11829  1F84                     l3378:	
 11830                           ;PR29.c: 696: lcd_goto(20);
 11831  1F84  3014               	movlw	(014h)
 11832  1F85  160A  158A  22DB   	fcall	_lcd_goto
              160A  158A         
 11833                           	line	697
 11834                           ;PR29.c: 697: send_string("Welcome");
 11835  1F8A  307F               	movlw	low(STR_54|8000h)
 11836  1F8B  00F9               	movwf	(?_send_string)
 11837  1F8C  3092               	movlw	high(STR_54|8000h)
 11838  1F8D  00FA               	movwf	((?_send_string))+1
 11839  1F8E  160A  158A  23B2   	fcall	_send_string
              160A  158A         
 11840                           	line	698
 11841                           	
 11842  1F93                     l3380:	
 11843                           ;PR29.c: 698: error=0;
 11844  1F93  1283               	bcf	status, 5	;RP0=0, select bank0
 11845  1F94  1303               	bcf	status, 6	;RP1=0, select bank0
 11846  1F95  11D9               	bcf	(_error/8),(_error)&7
 11847                           	line	699
 11848                           ;PR29.c: 699: }
 11849  1F96  2FA7               	goto	l3386
 11850                           	line	700
 11851                           	
 11852  1F97                     l384:	
 11853                           	line	702
 11854                           	
 11855  1F97                     l3382:	
 11856                           ;PR29.c: 700: else
 11857                           ;PR29.c: 701: {
 11858                           ;PR29.c: 702: lcd_goto(0);
 11859  1F97  3000               	movlw	(0)
 11860  1F98  160A  158A  22DB   	fcall	_lcd_goto
              160A  158A         
 11861                           	line	703
 11862                           	
 11863  1F9D                     l3384:	
 11864                           ;PR29.c: 703: send_string("Hello Admin");
 11865  1F9D  305F               	movlw	low(STR_55|8000h)
 11866  1F9E  00F9               	movwf	(?_send_string)
 11867  1F9F  3092               	movlw	high(STR_55|8000h)
 11868  1FA0  00FA               	movwf	((?_send_string))+1
 11869  1FA1  160A  158A  23B2   	fcall	_send_string
              160A  158A         
 11870  1FA6  2FA7               	goto	l3386
 11871                           	line	704
 11872                           	
 11873  1FA7                     l385:	
 11874                           	line	705
 11875                           	
 11876  1FA7                     l3386:	
 11877                           ;PR29.c: 704: }
 11878                           ;PR29.c: 705: delay(200000);
 11879  1FA7  3000               	movlw	0
 11880  1FA8  00F3               	movwf	(?_delay+3)
 11881  1FA9  3003               	movlw	03h
 11882  1FAA  00F2               	movwf	(?_delay+2)
 11883  1FAB  300D               	movlw	0Dh
 11884  1FAC  00F1               	movwf	(?_delay+1)
 11885  1FAD  3040               	movlw	040h
 11886  1FAE  00F0               	movwf	(?_delay)
 11887                           
 11888  1FAF  160A  158A  2382   	fcall	_delay
              160A  158A         
 11889                           	line	706
 11890                           	
 11891  1FB4                     l3388:	
 11892                           ;PR29.c: 706: RA1=0;
 11893  1FB4  1283               	bcf	status, 5	;RP0=0, select bank0
 11894  1FB5  1303               	bcf	status, 6	;RP1=0, select bank0
 11895  1FB6  1085               	bcf	(41/8),(41)&7	;volatile
 11896                           	line	707
 11897                           	
 11898  1FB7                     l3390:	
 11899                           ;PR29.c: 707: lcd_clr();
 11900  1FB7  160A  158A  229C   	fcall	_lcd_clr
              160A  158A         
 11901                           	line	708
 11902                           ;PR29.c: 708: break;
 11903  1FBC  2FFF               	goto	l387
 11904                           	line	711
 11905                           ;PR29.c: 711: default: RA0=1;
 11906                           	
 11907  1FBD                     l386:	
 11908  1FBD  1405               	bsf	(40/8),(40)&7	;volatile
 11909                           	line	712
 11910                           ;PR29.c: 712: RA1=1;
 11911  1FBE  1485               	bsf	(41/8),(41)&7	;volatile
 11912                           	line	713
 11913                           ;PR29.c: 713: RA5=1;
 11914  1FBF  1685               	bsf	(45/8),(45)&7	;volatile
 11915                           	line	714
 11916                           	
 11917  1FC0                     l3392:	
 11918                           ;PR29.c: 714: lcd_goto(20);
 11919  1FC0  3014               	movlw	(014h)
 11920  1FC1  160A  158A  22DB   	fcall	_lcd_goto
              160A  158A         
 11921                           	line	715
 11922                           	
 11923  1FC6                     l3394:	
 11924                           ;PR29.c: 715: send_string("Error");
 11925  1FC6  30AB               	movlw	low(STR_56|8000h)
 11926  1FC7  00F9               	movwf	(?_send_string)
 11927  1FC8  3092               	movlw	high(STR_56|8000h)
 11928  1FC9  00FA               	movwf	((?_send_string))+1
 11929  1FCA  160A  158A  23B2   	fcall	_send_string
              160A  158A         
 11930                           	line	716
 11931                           	
 11932  1FCF                     l3396:	
 11933                           ;PR29.c: 716: delay(200000);
 11934  1FCF  3000               	movlw	0
 11935  1FD0  00F3               	movwf	(?_delay+3)
 11936  1FD1  3003               	movlw	03h
 11937  1FD2  00F2               	movwf	(?_delay+2)
 11938  1FD3  300D               	movlw	0Dh
 11939  1FD4  00F1               	movwf	(?_delay+1)
 11940  1FD5  3040               	movlw	040h
 11941  1FD6  00F0               	movwf	(?_delay)
 11942                           
 11943  1FD7  160A  158A  2382   	fcall	_delay
              160A  158A         
 11944                           	line	717
 11945                           	
 11946  1FDC                     l3398:	
 11947                           ;PR29.c: 717: RA5=0;
 11948  1FDC  1283               	bcf	status, 5	;RP0=0, select bank0
 11949  1FDD  1303               	bcf	status, 6	;RP1=0, select bank0
 11950  1FDE  1285               	bcf	(45/8),(45)&7	;volatile
 11951                           	line	718
 11952                           	
 11953  1FDF                     l3400:	
 11954                           ;PR29.c: 718: RA0=0;
 11955  1FDF  1005               	bcf	(40/8),(40)&7	;volatile
 11956                           	line	719
 11957                           	
 11958  1FE0                     l3402:	
 11959                           ;PR29.c: 719: RA1=0;
 11960  1FE0  1085               	bcf	(41/8),(41)&7	;volatile
 11961                           	line	720
 11962                           	
 11963  1FE1                     l3404:	
 11964                           ;PR29.c: 720: error=1;
 11965  1FE1  15D9               	bsf	(_error/8),(_error)&7
 11966                           	line	721
 11967                           	
 11968  1FE2                     l3406:	
 11969                           ;PR29.c: 721: lcd_clr();
 11970  1FE2  160A  158A  229C   	fcall	_lcd_clr
              160A  158A         
 11971                           	line	722
 11972                           ;PR29.c: 722: break;
 11973  1FE7  2FFF               	goto	l387
 11974                           	line	724
 11975                           	
 11976  1FE8                     l3408:	
 11977                           ;PR29.c: 724: }
 11978  1FE8  2FFF               	goto	l387
 11979                           	line	618
 11980                           	
 11981  1FE9                     l371:	
 11982                           	
 11983  1FE9                     l3410:	
 11984  1FE9  1283               	bcf	status, 5	;RP0=0, select bank0
 11985  1FEA  1303               	bcf	status, 6	;RP1=0, select bank0
 11986  1FEB  0821               	movf	(display_status@data),w
 11987                           	; Switch size 1, requested type "space"
 11988                           ; Number of cases is 6, Range of values is 0 to 8
 11989                           ; switch strategies available:
 11990                           ; Name         Instructions Cycles
 11991                           ; simple_byte           19    10 (average)
 11992                           ; direct_byte           35     8 (fixed)
 11993                           ; jumptable            260     6 (fixed)
 11994                           ; rangetable            13     6 (fixed)
 11995                           ; spacedrange           24     9 (fixed)
 11996                           ; locatedrange           9     3 (fixed)
 11997                           ;	Chosen strategy is simple_byte
 11998                           
 11999                           	opt asmopt_off
 12000  1FEC  3A00               	xorlw	0^0	; case 0
 12001  1FED  1903               	skipnz
 12002  1FEE  2E3B               	goto	l372
 12003  1FEF  3A01               	xorlw	1^0	; case 1
 12004  1FF0  1903               	skipnz
 12005  1FF1  2EBB               	goto	l379
 12006  1FF2  3A02               	xorlw	3^1	; case 3
 12007  1FF3  1903               	skipnz
 12008  1FF4  2F5F               	goto	l383
 12009  1FF5  3A06               	xorlw	5^3	; case 5
 12010  1FF6  1903               	skipnz
 12011  1FF7  2F36               	goto	l382
 12012  1FF8  3A02               	xorlw	7^5	; case 7
 12013  1FF9  1903               	skipnz
 12014  1FFA  2F0D               	goto	l381
 12015  1FFB  3A0F               	xorlw	8^7	; case 8
 12016  1FFC  1903               	skipnz
 12017  1FFD  2EE4               	goto	l380
 12018  1FFE  2FBD               	goto	l386
 12019                           	opt asmopt_on
 12020                           
 12021                           	line	724
 12022                           	
 12023  1FFF                     l378:	
 12024                           	line	725
 12025                           	
 12026  1FFF                     l387:	
 12027  1FFF  0008               	return
 12028                           	opt stack 0
 12029                           GLOBAL	__end_of_display_status
 12030  2000                     	__end_of_display_status:
 12031                           	signat	_display_status,12408
 12032                           	global	_lcd_clr
 12033                           
 12034 ;; *************** function _lcd_clr *****************
 12035 ;; Defined at:
 12036 ;;		line 313 in file "PR29.c"
 12037 ;; Parameters:    Size  Location     Type
 12038 ;;		None
 12039 ;; Auto vars:     Size  Location     Type
 12040 ;;		None
 12041 ;; Return value:  Size  Location     Type
 12042 ;;		None               void
 12043 ;; Registers used:
 12044 ;;		wreg, status,2, status,0, pclath, cstack
 12045 ;; Tracked objects:
 12046 ;;		On entry : 0/0
 12047 ;;		On exit  : 0/0
 12048 ;;		Unchanged: 0/0
 12049 ;; Data sizes:     COMMON   BANK0   BANK1   BANK3   BANK2
 12050 ;;      Params:         0       0       0       0       0
 12051 ;;      Locals:         0       0       0       0       0
 12052 ;;      Temps:          0       0       0       0       0
 12053 ;;      Totals:         0       0       0       0       0
 12054 ;;Total ram usage:        0 bytes
 12055 ;; Hardware stack levels used:    1
 12056 ;; Hardware stack levels required when called:    2
 12057 ;; This function calls:
 12058 ;;		_send_config
 12059 ;;		_delay
 12060 ;; This function is called by:
 12061 ;;		_main
 12062 ;;		_mode
 12063 ;;		_display_status
 12064 ;;		_AddNew
 12065 ;;		_view_attendance
 12066 ;; This function uses a non-reentrant model
 12067 ;;
 12068                           psect	text549,local,class=CODE,delta=2,merge=1
 12069                           global __ptext549
 12070  1A9C                     __ptext549:
 12071                           psect	text549
 12072                           	file	"PR29.c"
 12073                           	line	313
 12074                           	global	__size_of_lcd_clr
 12075  0014                     	__size_of_lcd_clr	equ	__end_of_lcd_clr-_lcd_clr
 12076                           	
 12077  1A9C                     _lcd_clr:	
 12078                           	opt	stack 3
 12079                           ; Regs used in _lcd_clr: [wreg+status,2+status,0+pclath+cstack]
 12080                           	line	314
 12081                           	
 12082  1A9C                     l2776:	
 12083                           ;PR29.c: 314: send_config(0x01);
 12084  1A9C  3001               	movlw	(01h)
 12085  1A9D  160A  158A  235D   	fcall	_send_config
              160A  158A         
 12086                           	line	315
 12087                           ;PR29.c: 315: delay(600);
 12088  1AA2  3000               	movlw	0
 12089  1AA3  00F3               	movwf	(?_delay+3)
 12090  1AA4  3000               	movlw	0
 12091  1AA5  00F2               	movwf	(?_delay+2)
 12092  1AA6  3002               	movlw	02h
 12093  1AA7  00F1               	movwf	(?_delay+1)
 12094  1AA8  3058               	movlw	058h
 12095  1AA9  00F0               	movwf	(?_delay)
 12096                           
 12097  1AAA  160A  158A  2382   	fcall	_delay
              160A  158A         
 12098                           	line	316
 12099                           	
 12100  1AAF                     l238:	
 12101  1AAF  0008               	return
 12102                           	opt stack 0
 12103                           GLOBAL	__end_of_lcd_clr
 12104  1AB0                     	__end_of_lcd_clr:
 12105                           	signat	_lcd_clr,88
 12106                           	global	_lcd_goto
 12107                           
 12108 ;; *************** function _lcd_goto *****************
 12109 ;; Defined at:
 12110 ;;		line 299 in file "PR29.c"
 12111 ;; Parameters:    Size  Location     Type
 12112 ;;  data            1    wreg     unsigned char 
 12113 ;; Auto vars:     Size  Location     Type
 12114 ;;  data            1   10[COMMON] unsigned char 
 12115 ;; Return value:  Size  Location     Type
 12116 ;;		None               void
 12117 ;; Registers used:
 12118 ;;		wreg, status,2, status,0, pclath, cstack
 12119 ;; Tracked objects:
 12120 ;;		On entry : 0/0
 12121 ;;		On exit  : 0/0
 12122 ;;		Unchanged: 0/0
 12123 ;; Data sizes:     COMMON   BANK0   BANK1   BANK3   BANK2
 12124 ;;      Params:         0       0       0       0       0
 12125 ;;      Locals:         1       0       0       0       0
 12126 ;;      Temps:          1       0       0       0       0
 12127 ;;      Totals:         2       0       0       0       0
 12128 ;;Total ram usage:        2 bytes
 12129 ;; Hardware stack levels used:    1
 12130 ;; Hardware stack levels required when called:    2
 12131 ;; This function calls:
 12132 ;;		_send_config
 12133 ;; This function is called by:
 12134 ;;		_main
 12135 ;;		_mode
 12136 ;;		_display_status
 12137 ;;		_CheckAdmin
 12138 ;;		_AddNew
 12139 ;;		_view_attendance
 12140 ;;		_ResetAdmin
 12141 ;; This function uses a non-reentrant model
 12142 ;;
 12143                           psect	text550,local,class=CODE,delta=2,merge=1
 12144                           global __ptext550
 12145  1ADB                     __ptext550:
 12146                           psect	text550
 12147                           	file	"PR29.c"
 12148                           	line	299
 12149                           	global	__size_of_lcd_goto
 12150  001D                     	__size_of_lcd_goto	equ	__end_of_lcd_goto-_lcd_goto
 12151                           	
 12152  1ADB                     _lcd_goto:	
 12153                           	opt	stack 3
 12154                           ; Regs used in _lcd_goto: [wreg+status,2+status,0+pclath+cstack]
 12155                           ;lcd_goto@data stored from wreg
 12156  1ADB  00FA               	movwf	(lcd_goto@data)
 12157                           	line	300
 12158                           	
 12159  1ADC                     l2778:	
 12160                           ;PR29.c: 300: if(data<16)
 12161  1ADC  3010               	movlw	(010h)
 12162  1ADD  027A               	subwf	(lcd_goto@data),w
 12163  1ADE  1803               	skipnc
 12164  1ADF  2AE1               	goto	u2011
 12165  1AE0  2AE2               	goto	u2010
 12166  1AE1                     u2011:
 12167  1AE1  2AEA               	goto	l2782
 12168  1AE2                     u2010:
 12169                           	line	302
 12170                           	
 12171  1AE2                     l2780:	
 12172                           ;PR29.c: 301: {
 12173                           ;PR29.c: 302: send_config(0x80+data);
 12174  1AE2  087A               	movf	(lcd_goto@data),w
 12175  1AE3  3E80               	addlw	080h
 12176  1AE4  160A  158A  235D   	fcall	_send_config
              160A  158A         
 12177                           	line	303
 12178                           ;PR29.c: 303: }
 12179  1AE9  2AF7               	goto	l235
 12180                           	line	304
 12181                           	
 12182  1AEA                     l233:	
 12183                           	line	306
 12184                           	
 12185  1AEA                     l2782:	
 12186                           ;PR29.c: 304: else
 12187                           ;PR29.c: 305: {
 12188                           ;PR29.c: 306: data=data-20;
 12189  1AEA  087A               	movf	(lcd_goto@data),w
 12190  1AEB  3EEC               	addlw	0ECh
 12191  1AEC  00F9               	movwf	(??_lcd_goto+0)+0
 12192  1AED  0879               	movf	(??_lcd_goto+0)+0,w
 12193  1AEE  00FA               	movwf	(lcd_goto@data)
 12194                           	line	307
 12195                           	
 12196  1AEF                     l2784:	
 12197                           ;PR29.c: 307: send_config(0xc0+data);
 12198  1AEF  087A               	movf	(lcd_goto@data),w
 12199  1AF0  3EC0               	addlw	0C0h
 12200  1AF1  160A  158A  235D   	fcall	_send_config
              160A  158A         
 12201  1AF6  2AF7               	goto	l235
 12202                           	line	308
 12203                           	
 12204  1AF7                     l234:	
 12205                           	line	309
 12206                           	
 12207  1AF7                     l235:	
 12208  1AF7  0008               	return
 12209                           	opt stack 0
 12210                           GLOBAL	__end_of_lcd_goto
 12211  1AF8                     	__end_of_lcd_goto:
 12212                           	signat	_lcd_goto,4216
 12213                           	global	_send_config
 12214                           
 12215 ;; *************** function _send_config *****************
 12216 ;; Defined at:
 12217 ;;		line 271 in file "PR29.c"
 12218 ;; Parameters:    Size  Location     Type
 12219 ;;  data            1    wreg     unsigned char 
 12220 ;; Auto vars:     Size  Location     Type
 12221 ;;  data            1    8[COMMON] unsigned char 
 12222 ;; Return value:  Size  Location     Type
 12223 ;;		None               void
 12224 ;; Registers used:
 12225 ;;		wreg, status,2, status,0, pclath, cstack
 12226 ;; Tracked objects:
 12227 ;;		On entry : 0/0
 12228 ;;		On exit  : 0/0
 12229 ;;		Unchanged: 0/0
 12230 ;; Data sizes:     COMMON   BANK0   BANK1   BANK3   BANK2
 12231 ;;      Params:         0       0       0       0       0
 12232 ;;      Locals:         1       0       0       0       0
 12233 ;;      Temps:          0       0       0       0       0
 12234 ;;      Totals:         1       0       0       0       0
 12235 ;;Total ram usage:        1 bytes
 12236 ;; Hardware stack levels used:    1
 12237 ;; Hardware stack levels required when called:    1
 12238 ;; This function calls:
 12239 ;;		_delay
 12240 ;; This function is called by:
 12241 ;;		_main
 12242 ;;		_lcd_goto
 12243 ;;		_lcd_clr
 12244 ;; This function uses a non-reentrant model
 12245 ;;
 12246                           psect	text551,local,class=CODE,delta=2,merge=1
 12247                           global __ptext551
 12248  1B5D                     __ptext551:
 12249                           psect	text551
 12250                           	file	"PR29.c"
 12251                           	line	271
 12252                           	global	__size_of_send_config
 12253  0025                     	__size_of_send_config	equ	__end_of_send_config-_send_config
 12254                           	
 12255  1B5D                     _send_config:	
 12256                           	opt	stack 3
 12257                           ; Regs used in _send_config: [wreg+status,2+status,0+pclath+cstack]
 12258                           ;send_config@data stored from wreg
 12259  1B5D  00F8               	movwf	(send_config@data)
 12260                           	line	272
 12261                           	
 12262  1B5E                     l2602:	
 12263                           ;PR29.c: 272: RC4=0;
 12264  1B5E  1283               	bcf	status, 5	;RP0=0, select bank0
 12265  1B5F  1303               	bcf	status, 6	;RP1=0, select bank0
 12266  1B60  1207               	bcf	(60/8),(60)&7	;volatile
 12267                           	line	273
 12268                           	
 12269  1B61                     l2604:	
 12270                           ;PR29.c: 273: PORTB=data;
 12271  1B61  0878               	movf	(send_config@data),w
 12272  1B62  0086               	movwf	(6)	;volatile
 12273                           	line	274
 12274                           	
 12275  1B63                     l2606:	
 12276                           ;PR29.c: 274: RC5=1;
 12277  1B63  1687               	bsf	(61/8),(61)&7	;volatile
 12278                           	line	275
 12279                           	
 12280  1B64                     l2608:	
 12281                           ;PR29.c: 275: delay(50);
 12282  1B64  3000               	movlw	0
 12283  1B65  00F3               	movwf	(?_delay+3)
 12284  1B66  3000               	movlw	0
 12285  1B67  00F2               	movwf	(?_delay+2)
 12286  1B68  3000               	movlw	0
 12287  1B69  00F1               	movwf	(?_delay+1)
 12288  1B6A  3032               	movlw	032h
 12289  1B6B  00F0               	movwf	(?_delay)
 12290                           
 12291  1B6C  160A  158A  2382   	fcall	_delay
              160A  158A         
 12292                           	line	276
 12293                           	
 12294  1B71                     l2610:	
 12295                           ;PR29.c: 276: RC5=0;
 12296  1B71  1283               	bcf	status, 5	;RP0=0, select bank0
 12297  1B72  1303               	bcf	status, 6	;RP1=0, select bank0
 12298  1B73  1287               	bcf	(61/8),(61)&7	;volatile
 12299                           	line	277
 12300                           	
 12301  1B74                     l2612:	
 12302                           ;PR29.c: 277: delay(50);
 12303  1B74  3000               	movlw	0
 12304  1B75  00F3               	movwf	(?_delay+3)
 12305  1B76  3000               	movlw	0
 12306  1B77  00F2               	movwf	(?_delay+2)
 12307  1B78  3000               	movlw	0
 12308  1B79  00F1               	movwf	(?_delay+1)
 12309  1B7A  3032               	movlw	032h
 12310  1B7B  00F0               	movwf	(?_delay)
 12311                           
 12312  1B7C  160A  158A  2382   	fcall	_delay
              160A  158A         
 12313                           	line	278
 12314                           	
 12315  1B81                     l222:	
 12316  1B81  0008               	return
 12317                           	opt stack 0
 12318                           GLOBAL	__end_of_send_config
 12319  1B82                     	__end_of_send_config:
 12320                           	signat	_send_config,4216
 12321                           	global	_send_string
 12322                           
 12323 ;; *************** function _send_string *****************
 12324 ;; Defined at:
 12325 ;;		line 320 in file "PR29.c"
 12326 ;; Parameters:    Size  Location     Type
 12327 ;;  s               2    9[COMMON] PTR const unsigned char 
 12328 ;;		 -> STR_69(8), STR_68(17), STR_67(17), STR_66(19), 
 12329 ;;		 -> STR_65(16), STR_64(17), STR_63(17), STR_62(17), 
 12330 ;;		 -> STR_61(17), STR_60(14), STR_59(17), STR_58(14), 
 12331 ;;		 -> STR_57(17), STR_56(6), STR_55(12), STR_54(8), 
 12332 ;;		 -> STR_53(12), STR_52(14), STR_51(11), STR_50(8), 
 12333 ;;		 -> STR_49(7), STR_48(17), STR_47(17), STR_46(17), 
 12334 ;;		 -> STR_45(17), STR_44(17), STR_43(17), STR_42(17), 
 12335 ;;		 -> STR_41(17), STR_40(17), STR_39(17), STR_38(17), 
 12336 ;;		 -> STR_37(17), STR_36(17), STR_35(17), STR_34(17), 
 12337 ;;		 -> STR_33(12), STR_32(17), STR_31(17), STR_30(17), 
 12338 ;;		 -> STR_29(17), STR_28(17), STR_27(6), STR_26(17), 
 12339 ;;		 -> STR_25(6), STR_24(17), STR_23(17), STR_22(3), 
 12340 ;;		 -> STR_21(14), STR_20(9), STR_19(5), STR_18(14), 
 12341 ;;		 -> STR_17(17), STR_16(17), STR_15(14), STR_14(17), 
 12342 ;;		 -> STR_13(17), STR_12(17), STR_11(17), STR_10(17), 
 12343 ;;		 -> STR_9(17), STR_8(17), STR_7(17), STR_6(3), 
 12344 ;;		 -> STR_5(7), STR_4(17), STR_3(17), STR_2(6), 
 12345 ;;		 -> STR_1(13), 
 12346 ;; Auto vars:     Size  Location     Type
 12347 ;;  i               1   12[COMMON] unsigned char 
 12348 ;; Return value:  Size  Location     Type
 12349 ;;		None               void
 12350 ;; Registers used:
 12351 ;;		wreg, fsr0l, fsr0h, status,2, status,0, btemp+1, pclath, cstack
 12352 ;; Tracked objects:
 12353 ;;		On entry : 0/0
 12354 ;;		On exit  : 0/0
 12355 ;;		Unchanged: 0/0
 12356 ;; Data sizes:     COMMON   BANK0   BANK1   BANK3   BANK2
 12357 ;;      Params:         2       0       0       0       0
 12358 ;;      Locals:         1       0       0       0       0
 12359 ;;      Temps:          1       0       0       0       0
 12360 ;;      Totals:         4       0       0       0       0
 12361 ;;Total ram usage:        4 bytes
 12362 ;; Hardware stack levels used:    1
 12363 ;; Hardware stack levels required when called:    2
 12364 ;; This function calls:
 12365 ;;		_send_char
 12366 ;; This function is called by:
 12367 ;;		_main
 12368 ;;		_mode
 12369 ;;		_display_status
 12370 ;;		_CheckAdmin
 12371 ;;		_AddNew
 12372 ;;		_view_attendance
 12373 ;;		_ResetAdmin
 12374 ;; This function uses a non-reentrant model
 12375 ;;
 12376                           psect	text552,local,class=CODE,delta=2,merge=1
 12377                           global __ptext552
 12378  1BB2                     __ptext552:
 12379                           psect	text552
 12380                           	file	"PR29.c"
 12381                           	line	320
 12382                           	global	__size_of_send_string
 12383  0034                     	__size_of_send_string	equ	__end_of_send_string-_send_string
 12384                           	
 12385  1BB2                     _send_string:	
 12386                           	opt	stack 3
 12387                           ; Regs used in _send_string: [wreg-fsr0h+status,2+status,0+btemp+1+pclath+cstack]
 12388                           	line	321
 12389                           	
 12390  1BB2                     l2786:	
 12391                           ;PR29.c: 321: unsigned char i=0;
 12392  1BB2  01FC               	clrf	(send_string@i)
 12393                           	line	322
 12394                           ;PR29.c: 322: while (s && *s)send_char (*s++);
 12395  1BB3  2BCD               	goto	l2792
 12396                           	
 12397  1BB4                     l242:	
 12398                           	
 12399  1BB4                     l2788:	
 12400  1BB4  087A               	movf	(send_string@s+1),w
 12401  1BB5  1283               	bcf	status, 5	;RP0=0, select bank0
 12402  1BB6  1303               	bcf	status, 6	;RP1=0, select bank0
 12403  1BB7  00FF               	movwf	btemp+1
 12404  1BB8  0879               	movf	(send_string@s),w
 12405  1BB9  0084               	movwf	fsr0
 12406  1BBA  160A  158A  2000   	fcall	stringtab
              160A  158A         
 12407  1BBF  160A  158A  2338   	fcall	_send_char
              160A  158A         
 12408                           	
 12409  1BC4                     l2790:	
 12410  1BC4  3001               	movlw	(01h)
 12411  1BC5  07F9               	addwf	(send_string@s),f
 12412  1BC6  1803               	skipnc
 12413  1BC7  0AFA               	incf	(send_string@s+1),f
 12414  1BC8  00FB               	movwf	(??_send_string+0)+0
 12415  1BC9  1FFB               	btfss	(??_send_string+0)+0,7
 12416  1BCA  2BCC               	goto	u2025
 12417  1BCB  03FA               	decf	(send_string@s+1),f
 12418  1BCC                     u2025:
 12419  1BCC  2BCD               	goto	l2792
 12420                           	
 12421  1BCD                     l241:	
 12422                           	
 12423  1BCD                     l2792:	
 12424  1BCD  087A               	movf	(send_string@s+1),w
 12425  1BCE  0479               	iorwf	(send_string@s),w
 12426  1BCF  1903               	skipnz
 12427  1BD0  2BD2               	goto	u2031
 12428  1BD1  2BD3               	goto	u2030
 12429  1BD2                     u2031:
 12430  1BD2  2BE5               	goto	l246
 12431  1BD3                     u2030:
 12432                           	
 12433  1BD3                     l2794:	
 12434  1BD3  087A               	movf	(send_string@s+1),w
 12435  1BD4  1283               	bcf	status, 5	;RP0=0, select bank0
 12436  1BD5  1303               	bcf	status, 6	;RP1=0, select bank0
 12437  1BD6  00FF               	movwf	btemp+1
 12438  1BD7  0879               	movf	(send_string@s),w
 12439  1BD8  0084               	movwf	fsr0
 12440  1BD9  160A  158A  2000   	fcall	stringtab
              160A  158A         
 12441  1BDE  3800               	iorlw	0
 12442  1BDF  1D03               	skipz
 12443  1BE0  2BE2               	goto	u2041
 12444  1BE1  2BE3               	goto	u2040
 12445  1BE2                     u2041:
 12446  1BE2  2BB4               	goto	l2788
 12447  1BE3                     u2040:
 12448  1BE3  2BE5               	goto	l246
 12449                           	
 12450  1BE4                     l244:	
 12451  1BE4  2BE5               	goto	l246
 12452                           	
 12453  1BE5                     l245:	
 12454                           	line	324
 12455                           	
 12456  1BE5                     l246:	
 12457  1BE5  0008               	return
 12458                           	opt stack 0
 12459                           GLOBAL	__end_of_send_string
 12460  1BE6                     	__end_of_send_string:
 12461                           	signat	_send_string,4216
 12462                           	global	_send_char
 12463                           
 12464 ;; *************** function _send_char *****************
 12465 ;; Defined at:
 12466 ;;		line 288 in file "PR29.c"
 12467 ;; Parameters:    Size  Location     Type
 12468 ;;  data            1    wreg     unsigned char 
 12469 ;; Auto vars:     Size  Location     Type
 12470 ;;  data            1    8[COMMON] unsigned char 
 12471 ;; Return value:  Size  Location     Type
 12472 ;;		None               void
 12473 ;; Registers used:
 12474 ;;		wreg, status,2, status,0, pclath, cstack
 12475 ;; Tracked objects:
 12476 ;;		On entry : 0/0
 12477 ;;		On exit  : 0/0
 12478 ;;		Unchanged: 0/0
 12479 ;; Data sizes:     COMMON   BANK0   BANK1   BANK3   BANK2
 12480 ;;      Params:         0       0       0       0       0
 12481 ;;      Locals:         1       0       0       0       0
 12482 ;;      Temps:          0       0       0       0       0
 12483 ;;      Totals:         1       0       0       0       0
 12484 ;;Total ram usage:        1 bytes
 12485 ;; Hardware stack levels used:    1
 12486 ;; Hardware stack levels required when called:    1
 12487 ;; This function calls:
 12488 ;;		_delay
 12489 ;; This function is called by:
 12490 ;;		_main
 12491 ;;		_send_string
 12492 ;;		_mode
 12493 ;;		_display_status
 12494 ;;		_view_attendance
 12495 ;; This function uses a non-reentrant model
 12496 ;;
 12497                           psect	text553,local,class=CODE,delta=2,merge=1
 12498                           global __ptext553
 12499  1B38                     __ptext553:
 12500                           psect	text553
 12501                           	file	"PR29.c"
 12502                           	line	288
 12503                           	global	__size_of_send_char
 12504  0025                     	__size_of_send_char	equ	__end_of_send_char-_send_char
 12505                           	
 12506  1B38                     _send_char:	
 12507                           	opt	stack 4
 12508                           ; Regs used in _send_char: [wreg+status,2+status,0+pclath+cstack]
 12509                           ;send_char@data stored from wreg
 12510  1B38  00F8               	movwf	(send_char@data)
 12511                           	line	289
 12512                           	
 12513  1B39                     l2672:	
 12514                           ;PR29.c: 289: RC4=1;
 12515  1B39  1283               	bcf	status, 5	;RP0=0, select bank0
 12516  1B3A  1303               	bcf	status, 6	;RP1=0, select bank0
 12517  1B3B  1607               	bsf	(60/8),(60)&7	;volatile
 12518                           	line	290
 12519                           	
 12520  1B3C                     l2674:	
 12521                           ;PR29.c: 290: PORTB=data;
 12522  1B3C  0878               	movf	(send_char@data),w
 12523  1B3D  0086               	movwf	(6)	;volatile
 12524                           	line	291
 12525                           	
 12526  1B3E                     l2676:	
 12527                           ;PR29.c: 291: RC5=1;
 12528  1B3E  1687               	bsf	(61/8),(61)&7	;volatile
 12529                           	line	292
 12530                           	
 12531  1B3F                     l2678:	
 12532                           ;PR29.c: 292: delay(10);
 12533  1B3F  3000               	movlw	0
 12534  1B40  00F3               	movwf	(?_delay+3)
 12535  1B41  3000               	movlw	0
 12536  1B42  00F2               	movwf	(?_delay+2)
 12537  1B43  3000               	movlw	0
 12538  1B44  00F1               	movwf	(?_delay+1)
 12539  1B45  300A               	movlw	0Ah
 12540  1B46  00F0               	movwf	(?_delay)
 12541                           
 12542  1B47  160A  158A  2382   	fcall	_delay
              160A  158A         
 12543                           	line	293
 12544                           	
 12545  1B4C                     l2680:	
 12546                           ;PR29.c: 293: RC5=0;
 12547  1B4C  1283               	bcf	status, 5	;RP0=0, select bank0
 12548  1B4D  1303               	bcf	status, 6	;RP1=0, select bank0
 12549  1B4E  1287               	bcf	(61/8),(61)&7	;volatile
 12550                           	line	294
 12551                           	
 12552  1B4F                     l2682:	
 12553                           ;PR29.c: 294: delay(10);
 12554  1B4F  3000               	movlw	0
 12555  1B50  00F3               	movwf	(?_delay+3)
 12556  1B51  3000               	movlw	0
 12557  1B52  00F2               	movwf	(?_delay+2)
 12558  1B53  3000               	movlw	0
 12559  1B54  00F1               	movwf	(?_delay+1)
 12560  1B55  300A               	movlw	0Ah
 12561  1B56  00F0               	movwf	(?_delay)
 12562                           
 12563  1B57  160A  158A  2382   	fcall	_delay
              160A  158A         
 12564                           	line	295
 12565                           	
 12566  1B5C                     l230:	
 12567  1B5C  0008               	return
 12568                           	opt stack 0
 12569                           GLOBAL	__end_of_send_char
 12570  1B5D                     	__end_of_send_char:
 12571                           	signat	_send_char,4216
 12572                           	global	_delay
 12573                           
 12574 ;; *************** function _delay *****************
 12575 ;; Defined at:
 12576 ;;		line 282 in file "PR29.c"
 12577 ;; Parameters:    Size  Location     Type
 12578 ;;  data            4    0[COMMON] unsigned long 
 12579 ;; Auto vars:     Size  Location     Type
 12580 ;;		None
 12581 ;; Return value:  Size  Location     Type
 12582 ;;		None               void
 12583 ;; Registers used:
 12584 ;;		wreg
 12585 ;; Tracked objects:
 12586 ;;		On entry : 0/0
 12587 ;;		On exit  : 0/0
 12588 ;;		Unchanged: 0/0
 12589 ;; Data sizes:     COMMON   BANK0   BANK1   BANK3   BANK2
 12590 ;;      Params:         4       0       0       0       0
 12591 ;;      Locals:         0       0       0       0       0
 12592 ;;      Temps:          4       0       0       0       0
 12593 ;;      Totals:         8       0       0       0       0
 12594 ;;Total ram usage:        8 bytes
 12595 ;; Hardware stack levels used:    1
 12596 ;; This function calls:
 12597 ;;		Nothing
 12598 ;; This function is called by:
 12599 ;;		_main
 12600 ;;		_send_config
 12601 ;;		_send_char
 12602 ;;		_lcd_clr
 12603 ;;		_mode
 12604 ;;		_display_status
 12605 ;;		_receive_reply
 12606 ;;		_CheckAdmin
 12607 ;;		_AddNew
 12608 ;;		_view_attendance
 12609 ;;		_ResetAdmin
 12610 ;; This function uses a non-reentrant model
 12611 ;;
 12612                           psect	text554,local,class=CODE,delta=2,merge=1
 12613                           global __ptext554
 12614  1B82                     __ptext554:
 12615                           psect	text554
 12616                           	file	"PR29.c"
 12617                           	line	282
 12618                           	global	__size_of_delay
 12619  0030                     	__size_of_delay	equ	__end_of_delay-_delay
 12620                           	
 12621  1B82                     _delay:	
 12622                           	opt	stack 5
 12623                           ; Regs used in _delay: [wreg]
 12624                           	line	283
 12625                           	
 12626  1B82                     l2548:	
 12627                           ;PR29.c: 283: for( ;data>0;data--);
 12628  1B82  0873               	movf	(delay@data+3),w
 12629  1B83  0472               	iorwf	(delay@data+2),w
 12630  1B84  0471               	iorwf	(delay@data+1),w
 12631  1B85  0470               	iorwf	(delay@data),w
 12632  1B86  1D03               	skipz
 12633  1B87  2B89               	goto	u1871
 12634  1B88  2B8A               	goto	u1870
 12635  1B89                     u1871:
 12636  1B89  2B8C               	goto	l2552
 12637  1B8A                     u1870:
 12638  1B8A  2BB1               	goto	l227
 12639                           	
 12640  1B8B                     l2550:	
 12641  1B8B  2BB1               	goto	l227
 12642                           	
 12643  1B8C                     l225:	
 12644                           	
 12645  1B8C                     l2552:	
 12646  1B8C  3001               	movlw	01h
 12647  1B8D  00F4               	movwf	((??_delay+0)+0)
 12648  1B8E  3000               	movlw	0
 12649  1B8F  00F5               	movwf	((??_delay+0)+0+1)
 12650  1B90  3000               	movlw	0
 12651  1B91  00F6               	movwf	((??_delay+0)+0+2)
 12652  1B92  3000               	movlw	0
 12653  1B93  00F7               	movwf	((??_delay+0)+0+3)
 12654  1B94  0874               	movf	0+(??_delay+0)+0,w
 12655  1B95  02F0               	subwf	(delay@data),f
 12656  1B96  0875               	movf	1+(??_delay+0)+0,w
 12657  1B97  1C03               	skipc
 12658  1B98  0F75               	incfsz	1+(??_delay+0)+0,w
 12659  1B99  2B9B               	goto	u1885
 12660  1B9A  2B9C               	goto	u1886
 12661  1B9B                     u1885:
 12662  1B9B  02F1               	subwf	(delay@data+1),f
 12663  1B9C                     u1886:
 12664  1B9C  0876               	movf	2+(??_delay+0)+0,w
 12665  1B9D  1C03               	skipc
 12666  1B9E  0F76               	incfsz	2+(??_delay+0)+0,w
 12667  1B9F  2BA1               	goto	u1887
 12668  1BA0  2BA2               	goto	u1888
 12669  1BA1                     u1887:
 12670  1BA1  02F2               	subwf	(delay@data+2),f
 12671  1BA2                     u1888:
 12672  1BA2  0877               	movf	3+(??_delay+0)+0,w
 12673  1BA3  1C03               	skipc
 12674  1BA4  0F77               	incfsz	3+(??_delay+0)+0,w
 12675  1BA5  2BA7               	goto	u1889
 12676  1BA6  2BA8               	goto	u1880
 12677  1BA7                     u1889:
 12678  1BA7  02F3               	subwf	(delay@data+3),f
 12679  1BA8                     u1880:
 12680                           
 12681  1BA8  0873               	movf	(delay@data+3),w
 12682  1BA9  0472               	iorwf	(delay@data+2),w
 12683  1BAA  0471               	iorwf	(delay@data+1),w
 12684  1BAB  0470               	iorwf	(delay@data),w
 12685  1BAC  1D03               	skipz
 12686  1BAD  2BAF               	goto	u1891
 12687  1BAE  2BB0               	goto	u1890
 12688  1BAF                     u1891:
 12689  1BAF  2B8C               	goto	l2552
 12690  1BB0                     u1890:
 12691  1BB0  2BB1               	goto	l227
 12692                           	
 12693  1BB1                     l226:	
 12694                           	line	284
 12695                           	
 12696  1BB1                     l227:	
 12697  1BB1  0008               	return
 12698                           	opt stack 0
 12699                           GLOBAL	__end_of_delay
 12700  1BB2                     	__end_of_delay:
 12701                           	signat	_delay,4216
 12702                           	global	_allign
 12703                           
 12704 ;; *************** function _allign *****************
 12705 ;; Defined at:
 12706 ;;		line 1168 in file "PR29.c"
 12707 ;; Parameters:    Size  Location     Type
 12708 ;;		None
 12709 ;; Auto vars:     Size  Location     Type
 12710 ;;  Allign          1    6[COMMON] unsigned char 
 12711 ;; Return value:  Size  Location     Type
 12712 ;;		None               void
 12713 ;; Registers used:
 12714 ;;		wreg, fsr0l, fsr0h, status,2, status,0, pclath, cstack
 12715 ;; Tracked objects:
 12716 ;;		On entry : 0/0
 12717 ;;		On exit  : 0/0
 12718 ;;		Unchanged: 0/0
 12719 ;; Data sizes:     COMMON   BANK0   BANK1   BANK3   BANK2
 12720 ;;      Params:         0       0       0       0       0
 12721 ;;      Locals:         1       0       0       0       0
 12722 ;;      Temps:          1       0       0       0       0
 12723 ;;      Totals:         2       0       0       0       0
 12724 ;;Total ram usage:        2 bytes
 12725 ;; Hardware stack levels used:    1
 12726 ;; Hardware stack levels required when called:    1
 12727 ;; This function calls:
 12728 ;;		_uart_write
 12729 ;; This function is called by:
 12730 ;;		_upload_HT
 12731 ;; This function uses a non-reentrant model
 12732 ;;
 12733                           psect	text555,local,class=CODE,delta=2,merge=1
 12734                           global __ptext555
 12735  1AF8                     __ptext555:
 12736                           psect	text555
 12737                           	file	"PR29.c"
 12738                           	line	1168
 12739                           	global	__size_of_allign
 12740  001F                     	__size_of_allign	equ	__end_of_allign-_allign
 12741                           	
 12742  1AF8                     _allign:	
 12743                           	opt	stack 4
 12744                           ; Regs used in _allign: [wreg-fsr0h+status,2+status,0+pclath+cstack]
 12745                           	line	1170
 12746                           	
 12747  1AF8                     l2918:	
 12748                           ;PR29.c: 1169: unsigned char Allign;
 12749                           ;PR29.c: 1170: for(Allign=0;Allign<66;Allign++)
 12750  1AF8  01F6               	clrf	(allign@Allign)
 12751                           	
 12752  1AF9                     l2920:	
 12753  1AF9  3042               	movlw	(042h)
 12754  1AFA  0276               	subwf	(allign@Allign),w
 12755  1AFB  1C03               	skipc
 12756  1AFC  2AFE               	goto	u2201
 12757  1AFD  2AFF               	goto	u2200
 12758  1AFE                     u2201:
 12759  1AFE  2B01               	goto	l2924
 12760  1AFF                     u2200:
 12761  1AFF  2B16               	goto	l545
 12762                           	
 12763  1B00                     l2922:	
 12764  1B00  2B16               	goto	l545
 12765                           	line	1171
 12766                           	
 12767  1B01                     l543:	
 12768                           	
 12769  1B01                     l2924:	
 12770                           ;PR29.c: 1171: uart_write(2,' ');
 12771  1B01  3020               	movlw	(020h)
 12772  1B02  00F5               	movwf	(??_allign+0)+0
 12773  1B03  0875               	movf	(??_allign+0)+0,w
 12774  1B04  00F0               	movwf	(?_uart_write)
 12775  1B05  3002               	movlw	(02h)
 12776  1B06  160A  158A  24D7   	fcall	_uart_write
              160A  158A         
 12777                           	line	1170
 12778                           	
 12779  1B0B                     l2926:	
 12780  1B0B  3001               	movlw	(01h)
 12781  1B0C  00F5               	movwf	(??_allign+0)+0
 12782  1B0D  0875               	movf	(??_allign+0)+0,w
 12783  1B0E  07F6               	addwf	(allign@Allign),f
 12784                           	
 12785  1B0F                     l2928:	
 12786  1B0F  3042               	movlw	(042h)
 12787  1B10  0276               	subwf	(allign@Allign),w
 12788  1B11  1C03               	skipc
 12789  1B12  2B14               	goto	u2211
 12790  1B13  2B15               	goto	u2210
 12791  1B14                     u2211:
 12792  1B14  2B01               	goto	l2924
 12793  1B15                     u2210:
 12794  1B15  2B16               	goto	l545
 12795                           	
 12796  1B16                     l544:	
 12797                           	line	1172
 12798                           	
 12799  1B16                     l545:	
 12800  1B16  0008               	return
 12801                           	opt stack 0
 12802                           GLOBAL	__end_of_allign
 12803  1B17                     	__end_of_allign:
 12804                           	signat	_allign,88
 12805                           	global	_uart_write
 12806                           
 12807 ;; *************** function _uart_write *****************
 12808 ;; Defined at:
 12809 ;;		line 52 in file "uart_io.c"
 12810 ;; Parameters:    Size  Location     Type
 12811 ;;  channel         1    wreg     unsigned char 
 12812 ;;  data            1    0[COMMON] unsigned char 
 12813 ;; Auto vars:     Size  Location     Type
 12814 ;;  channel         1    3[COMMON] unsigned char 
 12815 ;;  i               1    4[COMMON] unsigned char 
 12816 ;; Return value:  Size  Location     Type
 12817 ;;		None               void
 12818 ;; Registers used:
 12819 ;;		wreg, fsr0l, fsr0h, status,2, status,0
 12820 ;; Tracked objects:
 12821 ;;		On entry : 0/0
 12822 ;;		On exit  : 0/0
 12823 ;;		Unchanged: 0/0
 12824 ;; Data sizes:     COMMON   BANK0   BANK1   BANK3   BANK2
 12825 ;;      Params:         1       0       0       0       0
 12826 ;;      Locals:         2       0       0       0       0
 12827 ;;      Temps:          2       0       0       0       0
 12828 ;;      Totals:         5       0       0       0       0
 12829 ;;Total ram usage:        5 bytes
 12830 ;; Hardware stack levels used:    1
 12831 ;; This function calls:
 12832 ;;		Nothing
 12833 ;; This function is called by:
 12834 ;;		_upload_HT
 12835 ;;		_upload_GUI
 12836 ;;		_allign
 12837 ;; This function uses a non-reentrant model
 12838 ;;
 12839                           psect	text556,local,class=CODE,delta=2,merge=1
 12840                           global __ptext556
 12841  1CD7                     __ptext556:
 12842                           psect	text556
 12843                           	file	"uart_io.c"
 12844                           	line	52
 12845                           	global	__size_of_uart_write
 12846  004C                     	__size_of_uart_write	equ	__end_of_uart_write-_uart_write
 12847                           	
 12848  1CD7                     _uart_write:	
 12849                           	opt	stack 4
 12850                           ; Regs used in _uart_write: [wreg-fsr0h+status,2+status,0]
 12851                           ;uart_write@channel stored from wreg
 12852  1CD7  00F3               	movwf	(uart_write@channel)
 12853                           	line	55
 12854                           	
 12855  1CD8                     l2748:	
 12856                           ;uart_io.c: 53: unsigned char i;
 12857                           ;uart_io.c: 55: switch(channel)
 12858  1CD8  2D1D               	goto	l2774
 12859                           	line	57
 12860                           ;uart_io.c: 56: {
 12861                           ;uart_io.c: 57: case 2:
 12862                           	
 12863  1CD9                     l572:	
 12864                           	line	58
 12865                           ;uart_io.c: 58: RC0=0;
 12866  1CD9  1283               	bcf	status, 5	;RP0=0, select bank0
 12867  1CDA  1303               	bcf	status, 6	;RP1=0, select bank0
 12868  1CDB  1007               	bcf	(56/8),(56)&7	;volatile
 12869                           	line	59
 12870                           	
 12871  1CDC                     l2750:	
 12872                           ;uart_io.c: 59: _delay((20000000/4)/19200-15);
 12873                           	opt asmopt_off
 12874  1CDC  3051               movlw	81
 12875  1CDD  00F1               movwf	(??_uart_write+0)+0,f
 12876  1CDE                     u3697:
 12877  1CDE  0BF1               decfsz	(??_uart_write+0)+0,f
 12878  1CDF  2CDE               	goto	u3697
 12879  1CE0  0000               	nop
 12880                           opt asmopt_on
 12881                           
 12882                           	line	60
 12883                           	
 12884  1CE1                     l2752:	
 12885                           ;uart_io.c: 60: for(i=1;i>0;i=i<<1)
 12886  1CE1  01F4               	clrf	(uart_write@i)
 12887  1CE2  1403               	bsf	status,0
 12888  1CE3  0DF4               	rlf	(uart_write@i),f
 12889                           	
 12890  1CE4                     l2754:	
 12891  1CE4  08F4               	movf	(uart_write@i),f
 12892  1CE5  1D03               	skipz
 12893  1CE6  2CE8               	goto	u1981
 12894  1CE7  2CE9               	goto	u1980
 12895  1CE8                     u1981:
 12896  1CE8  2CEB               	goto	l2758
 12897  1CE9                     u1980:
 12898  1CE9  2D0F               	goto	l2768
 12899                           	
 12900  1CEA                     l2756:	
 12901  1CEA  2D0F               	goto	l2768
 12902                           	line	61
 12903                           	
 12904  1CEB                     l573:	
 12905                           	line	62
 12906                           	
 12907  1CEB                     l2758:	
 12908                           ;uart_io.c: 61: {
 12909                           ;uart_io.c: 62: if((data&i)==0)
 12910  1CEB  0870               	movf	(uart_write@data),w
 12911  1CEC  0574               	andwf	(uart_write@i),w
 12912  1CED  1D03               	btfss	status,2
 12913  1CEE  2CF0               	goto	u1991
 12914  1CEF  2CF1               	goto	u1990
 12915  1CF0                     u1991:
 12916  1CF0  2CFA               	goto	l575
 12917  1CF1                     u1990:
 12918                           	line	64
 12919                           	
 12920  1CF1                     l2760:	
 12921                           ;uart_io.c: 63: {
 12922                           ;uart_io.c: 64: RC0=0;
 12923  1CF1  1283               	bcf	status, 5	;RP0=0, select bank0
 12924  1CF2  1303               	bcf	status, 6	;RP1=0, select bank0
 12925  1CF3  1007               	bcf	(56/8),(56)&7	;volatile
 12926                           	line	65
 12927                           	
 12928  1CF4                     l2762:	
 12929                           ;uart_io.c: 65: _delay((20000000/4)/19200-21);
 12930                           	opt asmopt_off
 12931  1CF4  304F               movlw	79
 12932  1CF5  00F1               movwf	(??_uart_write+0)+0,f
 12933  1CF6                     u3707:
 12934  1CF6  0BF1               decfsz	(??_uart_write+0)+0,f
 12935  1CF7  2CF6               	goto	u3707
 12936  1CF8  0000               	nop
 12937                           opt asmopt_on
 12938                           
 12939                           	line	66
 12940                           ;uart_io.c: 66: }
 12941  1CF9  2D03               	goto	l2766
 12942                           	line	67
 12943                           	
 12944  1CFA                     l575:	
 12945                           	line	69
 12946                           ;uart_io.c: 67: else
 12947                           ;uart_io.c: 68: {
 12948                           ;uart_io.c: 69: RC0=1;
 12949  1CFA  1283               	bcf	status, 5	;RP0=0, select bank0
 12950  1CFB  1303               	bcf	status, 6	;RP1=0, select bank0
 12951  1CFC  1407               	bsf	(56/8),(56)&7	;volatile
 12952                           	line	70
 12953                           	
 12954  1CFD                     l2764:	
 12955                           ;uart_io.c: 70: _delay((20000000/4)/19200-20);
 12956                           	opt asmopt_off
 12957  1CFD  304F               movlw	79
 12958  1CFE  00F1               movwf	(??_uart_write+0)+0,f
 12959  1CFF                     u3717:
 12960  1CFF  0BF1               decfsz	(??_uart_write+0)+0,f
 12961  1D00  2CFF               	goto	u3717
 12962  1D01  2D02               	nop2	;nop
 12963                           opt asmopt_on
 12964                           
 12965  1D02  2D03               	goto	l2766
 12966                           	line	71
 12967                           	
 12968  1D03                     l576:	
 12969                           	line	60
 12970                           	
 12971  1D03                     l2766:	
 12972  1D03  0874               	movf	(uart_write@i),w
 12973  1D04  00F1               	movwf	(??_uart_write+0)+0
 12974  1D05  0771               	addwf	(??_uart_write+0)+0,w
 12975  1D06  00F2               	movwf	(??_uart_write+1)+0
 12976  1D07  0872               	movf	(??_uart_write+1)+0,w
 12977  1D08  00F4               	movwf	(uart_write@i)
 12978  1D09  08F4               	movf	(uart_write@i),f
 12979  1D0A  1D03               	skipz
 12980  1D0B  2D0D               	goto	u2001
 12981  1D0C  2D0E               	goto	u2000
 12982  1D0D                     u2001:
 12983  1D0D  2CEB               	goto	l2758
 12984  1D0E                     u2000:
 12985  1D0E  2D0F               	goto	l2768
 12986                           	
 12987  1D0F                     l574:	
 12988                           	line	73
 12989                           	
 12990  1D0F                     l2768:	
 12991                           ;uart_io.c: 71: }
 12992                           ;uart_io.c: 72: }
 12993                           ;uart_io.c: 73: _delay(8);
 12994                           		opt asmopt_off
 12995  1D0F  2D10               	nop2	;2 cycle nop
 12996                           	opt asmopt_on
 12997                           	opt asmopt_off
 12998  1D10  2D11               	nop2	;2 cycle nop
 12999                           	opt asmopt_on
 13000                           	opt asmopt_off
 13001  1D11  2D12               	nop2	;2 cycle nop
 13002                           	opt asmopt_on
 13003                           	opt asmopt_off
 13004  1D12  2D13               	nop2	;2 cycle nop
 13005                           	opt asmopt_on
 13006                           
 13007                           	line	74
 13008                           	
 13009  1D13                     l2770:	
 13010                           ;uart_io.c: 74: RC0=1;
 13011  1D13  1283               	bcf	status, 5	;RP0=0, select bank0
 13012  1D14  1303               	bcf	status, 6	;RP1=0, select bank0
 13013  1D15  1407               	bsf	(56/8),(56)&7	;volatile
 13014                           	line	75
 13015                           ;uart_io.c: 75: _delay((20000000/4)/19200-3);
 13016                           	opt asmopt_off
 13017  1D16  3055               movlw	85
 13018  1D17  00F1               movwf	(??_uart_write+0)+0,f
 13019  1D18                     u3727:
 13020  1D18  0BF1               decfsz	(??_uart_write+0)+0,f
 13021  1D19  2D18               	goto	u3727
 13022  1D1A  0000               	nop
 13023                           opt asmopt_on
 13024                           
 13025                           	line	76
 13026                           ;uart_io.c: 76: break;
 13027  1D1B  2D22               	goto	l578
 13028                           	line	77
 13029                           	
 13030  1D1C                     l2772:	
 13031                           ;uart_io.c: 77: }
 13032  1D1C  2D22               	goto	l578
 13033                           	line	55
 13034                           	
 13035  1D1D                     l571:	
 13036                           	
 13037  1D1D                     l2774:	
 13038  1D1D  0873               	movf	(uart_write@channel),w
 13039                           	; Switch size 1, requested type "space"
 13040                           ; Number of cases is 1, Range of values is 2 to 2
 13041                           ; switch strategies available:
 13042                           ; Name         Instructions Cycles
 13043                           ; simple_byte            4     3 (average)
 13044                           ; direct_byte           14    11 (fixed)
 13045                           ; jumptable            263     9 (fixed)
 13046                           ;	Chosen strategy is simple_byte
 13047                           
 13048                           	opt asmopt_off
 13049  1D1E  3A02               	xorlw	2^0	; case 2
 13050  1D1F  1903               	skipnz
 13051  1D20  2CD9               	goto	l572
 13052  1D21  2D22               	goto	l578
 13053                           	opt asmopt_on
 13054                           
 13055                           	line	77
 13056                           	
 13057  1D22                     l577:	
 13058                           	line	78
 13059                           	
 13060  1D22                     l578:	
 13061  1D22  0008               	return
 13062                           	opt stack 0
 13063                           GLOBAL	__end_of_uart_write
 13064  1D23                     	__end_of_uart_write:
 13065                           	signat	_uart_write,8312
 13066                           psect	text557,local,class=CODE,delta=2,merge=1
 13067                           global __ptext557
 13068  0000                     __ptext557:
 13069                           	global	btemp
 13070  007E                     	btemp set 07Eh
 13071                           
 13072                           	DABS	1,126,2	;btemp
 13073                           	global	wtemp0
 13074  007E                     	wtemp0 set btemp


Data Sizes:
    Strings     695
    Constant    0
    Data        44
    BSS         11
    Persistent  0
    Stack       0

Auto Spaces:
    Space          Size  Autos    Used
    COMMON           14     14      14
    BANK0            80     46      62
    BANK1            80      0      40
    BANK3            96      0       0
    BANK2            96      0       0

Pointer List with Targets:

    send_string@s	PTR const unsigned char  size(2) Largest target is 19
		 -> STR_69(CODE[8]), STR_68(CODE[17]), STR_67(CODE[17]), STR_66(CODE[19]), 
		 -> STR_65(CODE[16]), STR_64(CODE[17]), STR_63(CODE[17]), STR_62(CODE[17]), 
		 -> STR_61(CODE[17]), STR_60(CODE[14]), STR_59(CODE[17]), STR_58(CODE[14]), 
		 -> STR_57(CODE[17]), STR_56(CODE[6]), STR_55(CODE[12]), STR_54(CODE[8]), 
		 -> STR_53(CODE[12]), STR_52(CODE[14]), STR_51(CODE[11]), STR_50(CODE[8]), 
		 -> STR_49(CODE[7]), STR_48(CODE[17]), STR_47(CODE[17]), STR_46(CODE[17]), 
		 -> STR_45(CODE[17]), STR_44(CODE[17]), STR_43(CODE[17]), STR_42(CODE[17]), 
		 -> STR_41(CODE[17]), STR_40(CODE[17]), STR_39(CODE[17]), STR_38(CODE[17]), 
		 -> STR_37(CODE[17]), STR_36(CODE[17]), STR_35(CODE[17]), STR_34(CODE[17]), 
		 -> STR_33(CODE[12]), STR_32(CODE[17]), STR_31(CODE[17]), STR_30(CODE[17]), 
		 -> STR_29(CODE[17]), STR_28(CODE[17]), STR_27(CODE[6]), STR_26(CODE[17]), 
		 -> STR_25(CODE[6]), STR_24(CODE[17]), STR_23(CODE[17]), STR_22(CODE[3]), 
		 -> STR_21(CODE[14]), STR_20(CODE[9]), STR_19(CODE[5]), STR_18(CODE[14]), 
		 -> STR_17(CODE[17]), STR_16(CODE[17]), STR_15(CODE[14]), STR_14(CODE[17]), 
		 -> STR_13(CODE[17]), STR_12(CODE[17]), STR_11(CODE[17]), STR_10(CODE[17]), 
		 -> STR_9(CODE[17]), STR_8(CODE[17]), STR_7(CODE[17]), STR_6(CODE[3]), 
		 -> STR_5(CODE[7]), STR_4(CODE[17]), STR_3(CODE[17]), STR_2(CODE[6]), 
		 -> STR_1(CODE[13]), 


Critical Paths under _main in COMMON

    _receive_reply_nodisplay->_uart_receive
    _init_attendance->_store_eeprom
    _mode->_view_attendance
    _send_cmd->_uart_send
    _receive_reply->_display_status
    _view_attendance->_send_string
    _clear_attendance->_store_eeprom
    _upload_GUI->_uart_write
    _upload_HT->_allign
    _display_status->_send_string
    _lcd_clr->_send_config
    _lcd_goto->_send_config
    _send_config->_delay
    _send_string->_send_char
    _send_char->_delay
    _allign->_uart_write

Critical Paths under _main in BANK0

    _main->_mode
    _ResetAdmin->_AddNew
    _mode->_upload_HT
    _CheckAdmin->_receive_reply
    _AddNew->_receive_reply
    _receive_reply->_display_status

Critical Paths under _main in BANK1

    None.

Critical Paths under _main in BANK3

    None.

Critical Paths under _main in BANK2

    None.

Call Graph Tables:

 ---------------------------------------------------------------------------------
 (Depth) Function   	        Calls       Base Space   Used Autos Params    Refs
 ---------------------------------------------------------------------------------
 (0) _main                                                 1     1      0   14757
                                             45 BANK0      1     1      0
                        _send_config
                            _lcd_clr
                           _lcd_goto
                        _send_string
                              _delay
                         _ResetAdmin
                           _send_cmd
            _receive_reply_nodisplay
                          _uart_init
                    _init_attendance
                         _CheckAdmin
                          _send_char
                         _get_eeprom
                      _receive_reply
                       _store_eeprom
                               _mode
 ---------------------------------------------------------------------------------
 (1) _ResetAdmin                                           1     1      0    2902
                                              8 BANK0      1     1      0
                           _lcd_goto
                        _send_string
                              _delay
                           _send_cmd
                      _receive_reply
                             _AddNew
 ---------------------------------------------------------------------------------
 (1) _receive_reply_nodisplay                              2     2      0      91
                                              2 COMMON     2     2      0
                       _uart_receive
 ---------------------------------------------------------------------------------
 (1) _uart_init                                            1     1      0      22
                                              0 COMMON     1     1      0
 ---------------------------------------------------------------------------------
 (1) _init_attendance                                      1     1      0      44
                                              3 COMMON     1     1      0
                       _store_eeprom
 ---------------------------------------------------------------------------------
 (1) _mode                                                 3     3      0    8639
                                             42 BANK0      3     3      0
                            _lcd_clr
                       _store_eeprom
                           _lcd_goto
                        _send_string
                          _send_char
                              _delay
                             _AddNew
                           _send_cmd
                      _receive_reply
                         _CheckAdmin
                    _view_attendance
                   _clear_attendance
                         _upload_GUI
                          _upload_HT
 ---------------------------------------------------------------------------------
 (2) _CheckAdmin                                           1     1      0    1362
                                              5 BANK0      1     1      0
                           _send_cmd
                           _lcd_goto
                        _send_string
                              _delay
                      _receive_reply
 ---------------------------------------------------------------------------------
 (2) _AddNew                                               3     3      0    1540
                                              5 BANK0      3     3      0
                           _send_cmd
                           _lcd_goto
                        _send_string
                              _delay
                      _receive_reply
                            _lcd_clr
 ---------------------------------------------------------------------------------
 (3) _send_cmd                                             6     3      3     221
                                              1 COMMON     6     3      3
                          _uart_send
 ---------------------------------------------------------------------------------
 (3) _receive_reply                                        3     3      0     805
                                              2 BANK0      3     3      0
                       _uart_receive
                     _display_status
                              _delay
 ---------------------------------------------------------------------------------
 (4) _uart_send                                            1     1      0      22
                                              0 COMMON     1     1      0
 ---------------------------------------------------------------------------------
 (4) _uart_receive                                         2     2      0      23
                                              0 COMMON     2     2      0
 ---------------------------------------------------------------------------------
 (2) _view_attendance                                      2     2      0    1240
                                             13 COMMON     1     1      0
                                              0 BANK0      1     1      0
                            _lcd_clr
                           _lcd_goto
                        _send_string
                         _get_eeprom
                          _send_char
                              _delay
 ---------------------------------------------------------------------------------
 (2) _clear_attendance                                     1     1      0      44
                                              3 COMMON     1     1      0
                       _store_eeprom
 ---------------------------------------------------------------------------------
 (3) _store_eeprom                                         3     2      1      44
                                              0 COMMON     3     2      1
 ---------------------------------------------------------------------------------
 (2) _upload_GUI                                           5     5      0    1084
                                              5 COMMON     5     5      0
                         _get_eeprom
                         _uart_write
 ---------------------------------------------------------------------------------
 (2) _upload_HT                                           46    46      0    1608
                                              7 COMMON     4     4      0
                                              0 BANK0     42    42      0
                         _uart_write
                             _allign
                         _get_eeprom
 ---------------------------------------------------------------------------------
 (3) _get_eeprom                                           3     3      0      45
                                              0 COMMON     3     3      0
 ---------------------------------------------------------------------------------
 (4) _display_status                                       3     1      2     669
                                             13 COMMON     1     1      0
                                              0 BANK0      2     0      2
                            _lcd_clr
                           _lcd_goto
                        _send_string
                              _delay
                          _send_char
 ---------------------------------------------------------------------------------
 (3) _lcd_clr                                              0     0      0     112
                        _send_config
                              _delay
 ---------------------------------------------------------------------------------
 (3) _lcd_goto                                             2     2      0     156
                                              9 COMMON     2     2      0
                        _send_config
 ---------------------------------------------------------------------------------
 (4) _send_config                                          1     1      0      67
                                              8 COMMON     1     1      0
                              _delay
 ---------------------------------------------------------------------------------
 (3) _send_string                                          4     2      2     135
                                              9 COMMON     4     2      2
                          _send_char
 ---------------------------------------------------------------------------------
 (3) _send_char                                            1     1      0      67
                                              8 COMMON     1     1      0
                              _delay
 ---------------------------------------------------------------------------------
 (3) _delay                                                8     4      4      45
                                              0 COMMON     8     4      4
 ---------------------------------------------------------------------------------
 (3) _allign                                               2     2      0     180
                                              5 COMMON     2     2      0
                         _uart_write
 ---------------------------------------------------------------------------------
 (4) _uart_write                                           5     4      1     134
                                              0 COMMON     5     4      1
 ---------------------------------------------------------------------------------
 Estimated maximum stack depth 4
 ---------------------------------------------------------------------------------

 Call Graph Graphs:

 _main (ROOT)
   _send_config
     _delay
   _lcd_clr
     _send_config
       _delay
     _delay
   _lcd_goto
     _send_config
       _delay
   _send_string
     _send_char
       _delay
   _delay
   _ResetAdmin
     _lcd_goto
       _send_config
         _delay
     _send_string
       _send_char
         _delay
     _delay
     _send_cmd
       _uart_send
     _receive_reply
       _uart_receive
       _display_status
         _lcd_clr
           _send_config
             _delay
           _delay
         _lcd_goto
           _send_config
             _delay
         _send_string
           _send_char
             _delay
         _delay
         _send_char
           _delay
       _delay
     _AddNew
       _send_cmd
         _uart_send
       _lcd_goto
         _send_config
           _delay
       _send_string
         _send_char
           _delay
       _delay
       _receive_reply
         _uart_receive
         _display_status
           _lcd_clr
             _send_config
               _delay
             _delay
           _lcd_goto
             _send_config
               _delay
           _send_string
             _send_char
               _delay
           _delay
           _send_char
             _delay
         _delay
       _lcd_clr
         _send_config
           _delay
         _delay
   _send_cmd
     _uart_send
   _receive_reply_nodisplay
     _uart_receive
   _uart_init
   _init_attendance
     _store_eeprom
   _CheckAdmin
     _send_cmd
       _uart_send
     _lcd_goto
       _send_config
         _delay
     _send_string
       _send_char
         _delay
     _delay
     _receive_reply
       _uart_receive
       _display_status
         _lcd_clr
           _send_config
             _delay
           _delay
         _lcd_goto
           _send_config
             _delay
         _send_string
           _send_char
             _delay
         _delay
         _send_char
           _delay
       _delay
   _send_char
     _delay
   _get_eeprom
   _receive_reply
     _uart_receive
     _display_status
       _lcd_clr
         _send_config
           _delay
         _delay
       _lcd_goto
         _send_config
           _delay
       _send_string
         _send_char
           _delay
       _delay
       _send_char
         _delay
     _delay
   _store_eeprom
   _mode
     _lcd_clr
       _send_config
         _delay
       _delay
     _store_eeprom
     _lcd_goto
       _send_config
         _delay
     _send_string
       _send_char
         _delay
     _send_char
       _delay
     _delay
     _AddNew
       _send_cmd
         _uart_send
       _lcd_goto
         _send_config
           _delay
       _send_string
         _send_char
           _delay
       _delay
       _receive_reply
         _uart_receive
         _display_status
           _lcd_clr
             _send_config
               _delay
             _delay
           _lcd_goto
             _send_config
               _delay
           _send_string
             _send_char
               _delay
           _delay
           _send_char
             _delay
         _delay
       _lcd_clr
         _send_config
           _delay
         _delay
     _send_cmd
       _uart_send
     _receive_reply
       _uart_receive
       _display_status
         _lcd_clr
           _send_config
             _delay
           _delay
         _lcd_goto
           _send_config
             _delay
         _send_string
           _send_char
             _delay
         _delay
         _send_char
           _delay
       _delay
     _CheckAdmin
       _send_cmd
         _uart_send
       _lcd_goto
         _send_config
           _delay
       _send_string
         _send_char
           _delay
       _delay
       _receive_reply
         _uart_receive
         _display_status
           _lcd_clr
             _send_config
               _delay
             _delay
           _lcd_goto
             _send_config
               _delay
           _send_string
             _send_char
               _delay
           _delay
           _send_char
             _delay
         _delay
     _view_attendance
       _lcd_clr
         _send_config
           _delay
         _delay
       _lcd_goto
         _send_config
           _delay
       _send_string
         _send_char
           _delay
       _get_eeprom
       _send_char
         _delay
       _delay
     _clear_attendance
       _store_eeprom
     _upload_GUI
       _get_eeprom
       _uart_write
     _upload_HT
       _uart_write
       _allign
         _uart_write
       _get_eeprom

 Address spaces:
Name               Size   Autos  Total    Cost      Usage
BANK3               60      0       0       9        0.0%
BITBANK3            60      0       0       8        0.0%
SFR3                 0      0       0       4        0.0%
BITSFR3              0      0       0       4        0.0%
BANK2               60      0       0      11        0.0%
BITBANK2            60      0       0      10        0.0%
SFR2                 0      0       0       5        0.0%
BITSFR2              0      0       0       5        0.0%
BANK1               50      0      28       7       50.0%
BITBANK1            50      0       0       6        0.0%
SFR1                 0      0       0       2        0.0%
BITSFR1              0      0       0       2        0.0%
BANK0               50     2E      3E       5       77.5%
BITBANK0            50      0       1       4        1.3%
SFR0                 0      0       0       1        0.0%
BITSFR0              0      0       0       1        0.0%
COMMON               E      E       E       1      100.0%
BITCOMMON            E      0       0       0        0.0%
CODE                 0      0       0       0        0.0%
DATA                 0      0      7B      12        0.0%
ABS                  0      0      74       3        0.0%
NULL                 0      0       0       0        0.0%
STACK                0      0       7       2        0.0%
EEDATA             100      0       0       0        0.0%


HI-TECH Software PICC Macro Assembler V1.00 build 12136 
Symbol Table                                                                                   Wed Jun 27 12:59:11 2012

         __end_of_view_attendance 15AF                                 pc 0002                    uart_write@data 0070  
                              _RD 0C60                                _WR 0C61                                fsr 0004  
                             l200 0AB9                               l201 0ABE                               l202 0BC0  
                             l210 0BBC                               l211 0BBB                               l203 0B23  
                             l300 04AA                               l212 0BC2                               l204 0BBF  
                             l301 04AA                               l213 0BC3                               l205 0B49  
                             l141 08BC                               l230 1B5C                               l222 1B81  
                             l310 04D3                               l302 04AF                               l206 0BBE  
                             l150 093F                               l142 08BB                               l311 04D8  
                             l303 04BA                               l215 0BD2                               l207 0B6F  
                             l151 094E                               l143 0905                               l400 1C96  
                             l320 05A1                               l312 04EC                               l304 04BE  
                             l216 0BD3                               l208 0BBD                               l160 0961  
                             l152 094D                               l144 094E                               l225 1B8C  
                             l241 1BCD                               l233 1AEA                               l321 050A  
                             l305 04ED                               l313 04EB                               l217 0BEE  
                             l209 0B95                               l161 0961                               l153 0946  
                             l145 0906                               l226 1BB1                               l242 1BB4  
                             l234 1AF7                               l410 1BE8                               l250 0005  
                             l330 055A                               l322 0554                               l314 04DF  
                             l306 04D9                               l218 0BEF                               l170 098A  
                             l162 0966                               l154 0946                               l146 0940  
                             l227 1BB1                               l235 1AF7                               l411 1BEF  
                             l251 000C                               l403 00D2                               l331 055A  
                             l323 053F                               l315 04DF                               l307 04C5  
                             l219 0BEF                               l171 098F                               l163 0971  
                             l155 094A                               l147 092C                               l244 1BE4  
                             l500 0FDE                               l412 1C03                               l260 1A82  
                             l252 000E                               l404 00D1                               l340 05A8  
                             l332 055F                               l324 053F                               l316 04E4  
                             l308 04C5                               l180 0A67                               l172 099D  
                             l164 0975                               l156 0955                               l148 092C  
                             l245 1BE5                               l421 1AC4                               l501 0FFF  
                             l413 1C15                               l261 1A88                               l405 00D2  
                             l341 07F9                               l333 0568                               l325 0544  
                             l317 04F5                               l309 04CA                               l157 0A69  
                             l181 0A07                               l165 099E                               l173 099C  
                             l149 0931                               l246 1BE5                               l238 1AAF  
                             l502 0FFF                               l510 15FF                               l414 1C16  
                             l430 1428                               l318 07FA                               l350 06D0  
                             l342 062D                               l334 056D                               l326 054F  
                             l270 033F                               l182 0A66                               l190 0A62  
                             l174 0996                               l166 0990                               l158 095B  
                             l511 1623                               l415 1C17                               l431 144E  
                             l255 1C57                               l351 07F7                               l343 062C  
                             l319 05A9                               l335 059F                               l327 0553  
                             l271 034A                               l191 0A61                               l183 0A19  
                             l175 0996                               l167 097C                               l159 0976  
                             l520 16A3                               l512 1646                               l416 1C17  
                             l408 1BE7                               l440 1551                               l432 146F  
                             l424 138D                               l360 0749                               l352 06DE  
                             l344 05D7                               l328 05A0                               l336 059E  
                             l264 0461                               l280 041B                               l272 034E  
                             l184 0A65                               l176 099A                               l168 097C  
                             l521 16D2                               l513 162C                               l505 15CF  
                             l417 1C1E                               l409 1BE8                               l441 156F  
                             l433 148D                               l425 13AB                               l249 0005  
                             l353 07F6                               l361 0749                               l345 062B  
                             l337 0574                               l329 056E                               l265 0459  
                             l273 041C                               l281 041A                               l193 0A78  
                             l185 0A2B                               l177 09E3                               l169 0981  
                             l530 174E                               l522 16FC                               l514 165B  
                             l506 15B5                               l418 1C1E                               l450 0328  
                             l442 157B                               l434 1499                               l426 13B7  
                             l258 1A7B                               l346 07F8                               l362 074E  
                             l354 071B                               l338 0574                               l290 03DA  
                             l282 0376                               l274 0369                               l266 0334  
                             l194 0A79                               l178 0A68                               l186 0A64  
                             l371 1FE9                               l531 1764                               l523 16D7  
                             l515 1685                               l507 15E4                               l443 15A1  
                             l435 14BF                               l427 13DD                               l259 1A7B  
                             l355 07F5                               l363 07ED                               l347 06D2  
                             l339 0579                               l291 03C5                               l283 0376  
                             l275 0355                               l267 034F                               l195 0BC3  
                             l187 0A3D                               l179 09F5                               l380 1EE4  
                             l372 1E3B                               l460 0C75                               l540 17FF  
                             l532 1788                               l524 16ED                               l516 1660  
                             l508 160E                               l444 15AE                               l436 14E0  
                             l428 13FE                               l356 07F4                               l364 079E  
                             l348 06D1                               l292 03D9                               l284 037B  
                             l276 0355                               l268 033A                               l196 0A7A  
                             l188 0A63                               l381 1F0D                               l373 1E58  
                             l461 0CAA                               l533 17AB                               l525 1711  
                             l517 1676                               l509 15E9                               l437 14FE  
                             l429 141C                               l357 07EE                               l365 079E  
                             l349 0698                               l293 03D8                               l285 038C  
                             l277 035A                               l269 033A                               l197 0A7B  
                             l189 0A4F                               l382 1F36                               l374 1EA4  
                             l470 0D8D                               l462 0CCE                               l534 1791  
                             l526 1734                               l518 169A                               l438 150A  
                             l390 1CA2                               l366 07A3                               l358 0723  
                             l294 045F                               l286 03DB                               l278 0363  
                             l550 1367                               l198 0BC1                               l543 1B01  
                             l383 1F5F                               l375 1E7D                               l471 0D6F  
                             l463 0CF9                               l455 0C12                               l535 17C0  
                             l527 171A                               l519 16BD                               l439 1530  
                             l391 1CBB                               l367 07F2                               l359 0798  
                             l295 07FA                               l287 039F                               l279 0368  
                             l447 1E33                               l199 0AB9                               l544 1B16  
                             l384 1F97                               l376 1EA3                               l480 0E72  
                             l472 0DA2                               l464 0CDB                               l456 0C2C  
                             l536 17EA                               l528 1749                               l392 1CD6  
                             l368 07FF                               l296 04F6                               l288 03DB  
                             l545 1B16                               l385 1FA7                               l377 1EA2  
                             l481 0E3D                               l473 0DDE                               l465 0D0E  
                             l457 0C35                               l537 17C5                               l529 1773  
                             l297 04EE                               l289 03B2                               l378 1FFF  
                             l386 1FBD                               l490 0F1B                               l482 0E61  
                             l474 0DA9                               l466 0D4A                               l458 0C55  
                             l538 17DB                               l298 0475                               l571 1D1D  
                             l379 1EBB                               l387 1FFF                               l491 0F49  
                             l483 0E87                               l475 0DCD                               l467 0D15  
                             l459 0C5E                               l539 17FF                               l299 04BF  
                             l395 1B20                               l572 1CD9                               l492 0F2B  
                             l484 0EB5                               l476 0DF3                               l468 0D39  
                             l396 1B37                               l548 132F                               l573 1CEB  
                             l493 0F5E                               l485 0E97                               l477 0E21  
                             l469 0D5F                               l565 1AD5                               l397 1B37  
                             l549 1367                               l574 1D0F                               l494 0F9A  
                             l486 0ECA                               l478 0E03                               l566 1AC7  
                             l575 1CFA                               l495 0F65                               l487 0F06  
                             l479 0E36                               l567 1ADA                               l576 1D03  
                             l496 0F89                               l488 0ED1                               l568 1ADA  
                             l577 1D22                               l497 0FAF                               l489 0EF5  
                             l578 1D22                               l498 0FBF                               l499 0FD5  
                             _DAY 005A                               _GIE 005F                               _RA0 0028  
                             _RA1 0029                               _RA2 002A                               _RA3 002B  
                             _RC0 0038                               _RA4 002C                               _RC1 0039  
                             _RA5 002D                               _RC4 003C                               _RC5 003D  
                             fsr0 0004                               indf 0000            __end_of_display_status 2000  
                      _CheckAdmin 1C58                   send_config@data 0078                              l3000 1499  
                            l3010 14D8                              l3002 14B2                              l3100 0CC1  
                            l3012 14DF                              l3020 14FE                              l3004 14B8  
                            l3110 0CDB                              l3102 0CC7                              l3022 1509  
                            l3030 1530                              l3014 14E0                              l3006 14BF  
                            l3200 0E97                              l3120 0D15                              l3112 0CE8  
                            l3104 0CCE                              l3040 1562                              l3032 1543  
                            l3024 150A                              l3016 14F1                              l3008 14D2  
                            l4000 0B6F                              l3210 0ED1                              l3202 0EA4  
                            l3130 0D43                              l3122 0D22                              l3114 0CF2  
                            l3106 0CD3                              l3050 1594                              l3042 1568  
                            l3034 1549                              l3026 1523                              l3018 14F7  
                            l4010 0B9D                              l4002 0B77                              l3300 1E89  
                            l3220 0EFF                              l3212 0EDE                              l3204 0EAE  
                            l3140 0D6F                              l3124 0D2C                              l3132 0D4A  
                            l3116 0CF9                              l3108 0CD6                              l3060 0C0A  
                            l3052 159A                              l3036 1550                              l3044 156F  
                            l3028 1529                              l4020 0BD3                              l4012 0BA1  
                            l4004 0B7B                              l3310 1EB5                              l3302 1E92  
                            l3230 0F2B                              l3214 0EE8                              l3222 0F06  
                            l3206 0EB5                              l3150 0DA9                              l3142 0D7C  
                            l3134 0D5F                              l3126 0D34                              l3118 0D0E  
                            l3070 0C2D                              l3062 0C11                              l3046 157A  
                            l3054 15A1                              l3038 1551                              l4022 0BD8  
                            l4014 0BAD                              l4006 0B87                              l3400 1FDF  
                            l3320 1EDC                              l3312 1EBD                              l3304 1EA4  
                            l3240 0F65                              l3232 0F38                              l3224 0F1B  
                            l3216 0EF0                              l3208 0ECA                              l3160 0DD7  
                            l3152 0DB6                              l3144 0D86                              l3136 0D64  
                            l3128 0D39                              l3080 0C56                              l3072 0C34  
                            l3064 0C12                              l3056 0BF2                              l3048 157B  
                            l2600 1A88                              l4024 0BE0                              l4016 0BC9  
                            l4008 0B95                              l2610 1B71                              l2602 1B5E  
                            l3402 1FE0                              l3330 1EF5                              l3322 1EDD  
                            l3314 1EC3                              l3306 1EB1                              l3410 1FE9  
                            l3250 0F93                              l3242 0F72                              l3234 0F42  
                            l3226 0F20                              l3218 0EF5                              l3170 0E03  
                            l3154 0DC0                              l3162 0DDE                              l3146 0D8D  
                            l3138 0D6A                              l3082 0C5D                              l3090 0C75  
                            l3074 0C35                              l3066 0C20                              l3058 0C07  
                            l4018 0BCD                              l2612 1B74                              l2604 1B61  
                            l3404 1FE1                              l3340 1F0F                              l3332 1F02  
                            l3324 1EDE                              l3316 1ECC                              l3308 1EB4  
                            l3260 0FBE                              l3244 0F7C                              l3252 0F9A  
                            l3236 0F49                              l3228 0F26                              l3180 0E3D  
                            l3172 0E10                              l3164 0DF3                              l3156 0DC8  
                            l3148 0DA2                              l3092 0C9D                              l3084 0C5E  
                            l3076 0C49                              l3068 0C26                              l2700 018C  
                            l3420 1CB0                              l3412 1C97                              l2620 1C33  
                            l3500 0333                              l2550 1B8B                              l2606 1B63  
                            l3406 1FE2                              l3350 1F2F                              l3342 1F15  
                            l3334 1F05                              l3326 1EE6                              l3318 1ED9  
                            l3270 0FDD                              l3262 0FBF                              l3254 0FAF  
                            l3246 0F84                              l3238 0F5E                              l3190 0E6B  
                            l3182 0E4A                              l3174 0E1A                              l3166 0DF8  
                            l3158 0DCD                              l3094 0CA2                              l3086 0C68  
                            l3078 0C4F                              l2710 01D0                              l2702 0199  
                            l3422 1CB4                              l3414 1C9A                              l2630 1C51  
                            l2622 1C39                              l2614 1C20                              l3430 1C6C  
                            l3510 0354                              l3502 0339                              l2552 1B8C  
                            l2608 1B64                              l3408 1FE8                              l3360 1F54  
                            l3352 1F30                              l3344 1F1E                              l3336 1F06  
                            l3328 1EEC                              l3280 1E3C                              l2560 1AB1  
                            l3272 0FDE                              l3264 0FC9                              l3256 0FB4  
                            l3248 0F89                              l3184 0E54                              l3192 0E72  
                            l3176 0E21                              l3168 0DFE                              l3096 0CA9  
                            l3088 0C6E                              l2800 15B5                              l2720 0211  
                            l2712 01DD                              l2704 01A6                              l3416 1CA1  
                            l3424 1CBB                              l2624 1C3F                              l2616 1C27  
                            l3440 0027                              l3432 1C75                              l3600 04D3  
                            l3520 0372                              l3512 035A                              l3504 033F  
                            l2640 1B2C                              l2632 1B17                              l3370 1F66  
                            l3362 1F57                              l3354 1F38                              l3346 1F2B  
                            l3338 1F07                              l3290 1E5E                              l3282 1E42  
                            l2570 1AC4                              l2562 1AB5                              l3274 0FF2  
                            l3266 0FCF                              l3258 0FB7                              l3194 0E87  
                            l3186 0E5C                              l3178 0E36                              l3098 0CAA  
                            l2810 15E9                              l2802 15C0                              l2730 02B6  
                            l2722 021E                              l2714 01EA                              l2706 01B3  
                            l3426 1CC9                              l3418 1CA2                              l2626 1C45  
                            l2618 1C2D                              l3450 0054                              l3442 0030  
                            l3434 1C84                              l3610 04FC                              l3602 04DE  
                            l3530 039F                              l3522 037B                              l3514 0360  
                            l3506 0345                              l2650 1D5D                              l2554 1AC6  
                            l2642 1B30                              l2634 1B18                              l2548 1B82  
                            l3380 1F93                              l3372 1F6C                              l3364 1F58  
                            l3356 1F3E                              l3348 1F2E                              l3292 1E64  
                            l3284 1E48                              l2564 1ABB                              l3276 0FF8  
                            l3268 0FD6                              l3196 0E8C                              l3188 0E61  
                            l2900 17A6                              l2812 15F4                              l2820 160E  
                            l2804 15CA                              l2580 1C02                              l2572 1BEF  
                            l2740 02F4                              l2732 02C0                              l2724 022B  
                            l2716 01F7                              l2708 01C6                              l2628 1C4B  
                            l3460 008C                              l3452 0058                              l3444 003F  
                            l3436 1C91                              l3428 1C58                              l3700 06A7  
                            l3620 052E                              l3612 050A                              l3604 04E4  
                            l3540 03CD                              l3532 03A7                              l3524 0381  
                            l3516 0363                              l3508 034A                              l2660 1DC5  
                            l2652 1D67                              l2644 1D23                              l2556 1AD4  
                            l2636 1B1F                              l2750 1CDC                              l3390 1FB7  
                            l3374 1F75                              l3382 1F97                              l3366 1F59  
                            l3358 1F47                              l3294 1E6D                              l3286 1E4E  
                            l3278 1E35                              l2566 1ABC                              l3198 0E92  
                            l2910 17D6                              l2902 17AB                              l2830 1646  
                            l2822 1623                              l2814 15FA                              l2806 15CF  
                            l2590 1C13                              l2582 1C07                              l2574 1BF5  
                            l2742 0301                              l2734 02CD                              l2726 0238  
                            l2718 0204                              l3470 00BA                              l3462 0091  
                            l3454 0063                              l3446 004C                              l3438 0012  
                            l3710 06D8                              l3702 06B6                              l3630 054F  
                            l3622 0537                              l3614 0510                              l3606 04EE  
                            l3550 0408                              l3542 03E1                              l3534 03B2  
                            l3526 038C                              l3518 036D                              l2670 1DFC  
                            l2662 1DCB                              l2654 1D74                              l2646 1D26  
                            l2558 1AD5                              l2638 1B20                              l2760 1CF1  
                            l2752 1CE1                              l2920 1AF9                              l2680 1B4C  
                            l2672 1B39                              l3392 1FC0                              l3384 1F9D  
                            l3376 1F7B                              l3368 1F60                              l3296 1E7D  
                            l3288 1E58                              l2568 1AC2                              l2912 17DB  
                            l2904 17C0                              l2840 1676                              l2832 165B  
                            l2824 162C                              l2816 15FF                              l2808 15E4  
                            l2584 1C0B                              l2576 1BFB                              l2744 030E  
                            l2736 02DA                              l2728 02B0                              l2592 0004  
                            l3472 00CB                              l3464 0097                              l3456 006C  
                            l3448 0051                              l3720 06FB                              l3712 06DE  
                            l3704 06C3                              l3640 0573                              l3632 0559  
                            l3624 053E                              l3616 0519                              l3608 04F6  
                            l3560 0431                              l3552 0415                              l3544 03EA  
                            l3536 03BA                              l3528 0394                              l2664 1DD5  
                            l2656 1D81                              l2648 1D57                              l3480 12FF  
                            l3800 0847                              l2770 1D13                              l2762 1CF4  
                            l2754 1CE4                              l2922 1B00                              l2682 1B4F  
                            l2674 1B3C                              l3394 1FC6                              l3386 1FA7  
                            l3378 1F84                              l3298 1E83                              l2914 17E5  
                            l2906 17C5                              l2850 16AE                              l2842 1680  
                            l2834 1660                              l2826 1637                              l2818 1609  
                            l2586 1C0C                              l2578 1BFE                              l2746 031B  
                            l2738 02E7                              l2690 014E                              l2930 1368  
                            l2594 000C                              l3466 00A2                              l3458 007B  
                            l3730 0723                              l3722 070A                              l3714 06E6  
                            l3706 06C9                              l3642 0579                              l3634 055F  
                            l3626 0544                              l3618 0528                              l3650 05A9  
                            l3562 043A                              l3554 0418                              l3546 03F0  
                            l3538 03C5                              l3570 0461                              l2666 1DE2  
                            l2658 1D8E                              l3490 1335                              l3482 130D  
                            l3474 12E3                              l3810 085C                              l3802 084D  
                            l2772 1D1C                              l2764 1CFD                              l2756 1CEA  
                            l2748 1CD8                              l2924 1B01                              l2676 1B3E  
                            l2780 1AE2                              l3396 1FCF                              l3388 1FB4  
                            l2908 17D0                              l2916 17EA                              l2860 16E2  
                            l2852 16B8                              l2836 166B                              l2844 1685  
                            l2828 1641                              l2588 1C0D                              l2692 0158  
                            l2684 00D3                              l2940 138C                              l2932 1373  
                            l2596 1A7A                              l3468 00AB                              l3740 074E  
                            l3732 0729                              l3724 0717                              l3716 06E7  
                            l3708 06D2                              l3660 05DD                              l3652 05AF  
                            l3644 0595                              l3636 0565                              l3628 054A  
                            l3580 0493                              l3572 0467                              l3564 0440  
                            l3548 03F9                              l3556 041C                              l2668 1DEF  
                            l3492 1344                              l3484 1318                              l3476 12E9  
                            l3900 09A4                              l3820 0887                              l3812 0862  
                            l3804 0853                              l2766 1D03                              l2758 1CEB  
                            l2774 1D1D                              l2926 1B0B                              l2918 1AF8  
                            l2678 1B3F                              l2790 1BC4                              l2782 1AEA  
                            l3398 1FDC                              l2870 1711                              l2862 16E8  
                            l2854 16BD                              l2846 169A                              l2838 1671  
                            l2694 0165                              l2686 00D6                              l2950 13B6  
                            l2942 138D                              l2934 137C                              l2598 1A82  
                            l3750 0777                              l3742 0759                              l3734 0732  
                            l3718 06F2                              l3726 071B                              l3670 0611  
                            l3662 05E6                              l3654 05CB                              l3646 059A  
                            l3638 0568                              l3590 04B5                              l3582 0499  
                            l3574 0475                              l3566 044F                              l3558 042B  
                            l3494 134D                              l3486 1321                              l3478 12F2  
                            l3910 09D1                              l3902 09AD                              l3830 0895  
                            l3822 088C                              l3814 086B                              l3806 0856  
                            l2768 1D0F                              l2928 1B0F                              l2792 1BCD  
                            l2784 1AEF                              l2776 1A9C                              l2880 1749  
                            l2872 171A                              l2864 16ED                              l2856 16D2  
                            l2848 16A3                              l2696 0172                              l2688 0148  
                            l2960 13F0                              l2952 13B7                              l2944 139E  
                            l2936 1382                              l3752 077D                              l3744 0762  
                            l3760 0798                              l3736 0741                              l3728 0722  
                            l3680 0642                              l3672 0624                              l3664 05F3  
                            l3656 05D0                              l3648 05A1                              l3592 04BA  
                            l3584 04A2                              l3576 047B                              l3568 0459  
                            l3496 1360                              l3488 132F                              l3920 09FD  
                            l3912 09D9                              l3904 09B3                              l3840 08B1  
                            l3832 0896                              l3824 0890                              l3816 0871  
                            l3808 0857                              l2794 1BD3                              l2786 1BB2  
                            l2778 1ADC                              l2890 176E                              l2882 174E  
                            l2874 1725                              l2866 16F7                              l2858 16D7  
                            l2698 017F                              l2970 1415                              l2962 13F6  
                            l2954 13D0                              l2946 13A4                              l2938 1385  
                            l3770 07BA                              l3762 079D                              l3754 0786  
                            l3746 0765                              l3738 0748                              l3690 066F  
                            l3682 0651                              l3666 05F9                              l3658 05D7  
                            l3674 062D                              l3594 04C4                              l3586 04A9  
                            l3578 0484                              l3498 032C                              l3930 0A2B  
                            l3922 0A07                              l3914 09E3                              l3906 09BC  
                            l3850 08DC                              l3842 08B5                              l3834 089A  
                            l3826 0891                              l3818 087A                              l2788 1BB4  
                            l2884 1759                              l2892 1773                              l2876 172F  
                            l2868 16FC                              l2796 15AF                              l2980 1447  
                            l2964 13FD                              l2972 141C                              l2956 13D6  
                            l2948 13AB                              l3780 07E8                              l3772 07C7  
                            l3764 07A3                              l3756 0793                              l3748 0772  
                            l3692 0678                              l3684 065E                              l3676 0633  
                            l3668 0608                              l3596 04CA                              l3588 04AF  
                            l3940 0A57                              l3932 0A33                              l3924 0A0F  
                            l3916 09EB                              l3908 09CB                              l3860 0906  
                            l3852 08E7                              l3836 089E                              l3844 08BC  
                            l3828 0892                              l2894 1788                              l2886 175F  
                            l2878 1734                              l2798 15B0                              l2990 146F  
                            l2974 1427                              l2982 144E                              l2966 13FE  
                            l2958 13DD                              l3782 07EB                              l3774 07CC  
                            l3766 07AE                              l3758 0796                              l3694 0685  
                            l3686 0663                              l3678 0639                              l3598 04D0  
                            l3950 0A81                              l3934 0A3D                              l3926 0A19  
                            l3918 09F5                              l3942 0A69                              l3870 0931  
                            l3862 090C                              l3854 08F4                              l3846 08CA  
                            l3838 08AB                              l3790 0831                              l2896 1791  
                            l2888 1764                              l2992 1480                              l2984 1461  
                            l2976 1428                              l2968 140F                              l3776 07D2  
                            l3768 07B7                              l3784 07EE                              l3696 0693  
                            l3688 0669                              l3960 0AA8                              l3952 0A8A  
                            l3944 0A6F                              l3936 0A45                              l3928 0A21  
                            l3880 0960                              l3872 0936                              l3864 0915  
                            l3856 08F9                              l3848 08D7                              l3792 0833  
                            l2898 179C                              l2994 1486                              l2986 1467  
                            l2978 1441                              l3778 07DB                              l3698 069E  
                            l3970 0ADB                              l3962 0AB1                              l3954 0A90  
                            l3946 0A73                              l3938 0A4F                              l3890 0981  
                            l3882 0966                              l3874 093C                              l3866 0924  
                            l3858 08FF                              l3794 0835                              l3786 082C  
                            l2988 146E                              l2996 148D                              l3980 0B08  
                            l3972 0AEA                              l3964 0AB8                              l3956 0A9B  
                            l3948 0A7B                              l3892 0987                              l3884 096C  
                            l3876 0945                              l3868 092B                              l3796 083B  
                            l3788 0830                              l2998 1498                              l3990 0B3B  
                            l3982 0B09                              l3974 0AF7                              l3966 0ABE  
                            l3958 0AA2                              l3894 098A                              l3886 0971  
                            l3878 0955                              l3798 0841                              l3992 0B49  
                            l3984 0B23                              l3976 0AFC                              l3968 0AD2  
                            l3896 0995                              l3888 097B                              l3994 0B51  
                            l3986 0B2B                              l3978 0B02                              l3898 099E  
                            l3996 0B55                              l3988 0B2F                              l3998 0B61  
                            STR_1 123A                              STR_2 12A5                              STR_3 1123  
                            STR_4 1101                              STR_5 1297                              STR_6 12B4  
                            STR_7 1046                              STR_8 1112                              STR_9 10F0  
                            _BRGH 04C2                              _CREN 00C4                              u2000 1D0E  
                            u2001 1D0D                              u2010 1AE2                              u2011 1AE1  
                            u2100 1699                              u2101 1698                              u2030 1BD3  
                            u2110 16D1                              u2031 1BD2                              u2111 16D0  
                            u2200 1AFF                              u2040 1BE3                              u2120 16E8  
                            u3000 04C9                              u2201 1AFE                              u2041 1BE2  
                            u2025 1BCC                              u2121 16E7                              u2105 1695  
                            u3001 04C8                              u2210 1B15                              u2130 1710  
                            u2050 15E3                              u3010 04D0                              u2211 1B14  
                            u2131 170F                              u2115 16CD                              u2051 15E2  
                            u3011 04CF                              u2140 1748                              u2060 15FA  
                            u2300 146D                              u2220 138B                              u3100 055E  
                            u3020 04DD                              u2141 1747                              u2061 15F9  
                            u2301 146C                              u2221 138A                              u3101 055D  
                            u3021 04DC                              u2150 175F                              u2070 1622  
                            u2310 148C                              u2230 13AA                              u3110 0565  
                            u3030 04E3                              u2151 175E                              u2135 170C  
                            u2071 1621                              u2055 15DF                              u2311 148B  
                            u2231 13A9                              u3111 0564                              u3031 04E2  
                            u2160 1787                              u2080 165A                              u2400 1579  
                            u2320 1497                              u2240 13B5                              u3200 06CF  
                            u3120 0572                              u3040 04F4                              u2161 1786  
                            u2145 1744                              u2081 1659                              u2401 1578  
                            u2321 1496                              u2241 13B4                              u3201 06CE  
                            u3121 0571                              u3041 04F3                              u2170 17BF  
                            u2090 1671                              u2410 15A0                              u2330 14BE  
                            u2250 13DC                              u3210 06D8                              u3130 0578  
                            u3050 04FC                              u2171 17BE                              u2091 1670  
                            u2075 161E                              u2411 159F                              u2331 14BD  
                            u2251 13DB                              u3211 06D7                              u3131 0577  
                            u3051 04FB                              u2500 0CCD                              u2420 0BFA  
                            u2180 17D6                              u2340 14DE                              u2260 13FC  
                            u3220 06E6                              u3140 05A7                              u3060 053D  
                            u3300 089E                              u2501 0CCC                              u2181 17D5  
                            u2165 1783                              u2085 1656                              u2341 14DD  
                            u2261 13FB                              u3221 06E5                              u3141 05A6  
                            u3061 053C                              u3301 089D                              u2510 0D0D  
                            u2430 0C10                              u2190 17FE                              u2350 14FD  
                            u2270 141B                              u3230 0721                              u3150 05AF  
                            u3070 0543                              u3310 08B1                              u2511 0D0C  
                            u2431 0C0F                              u2191 17FD                              u2175 17BB  
                            u2351 14FC                              u2271 141A                              u3231 0720  
                            u3151 05AE                              u3071 0542                              u3311 08B0  
                            u2600 0EC9                              u2520 0D34                              u2440 0C2C  
                            u2360 1508                              u2280 1426                              u3240 0747  
                            u3160 05D6                              u3080 054A                              u3400 0965  
                            u3320 08B5                              u2601 0EC8                              u2521 0D33  
                            u2441 0C2B                              u2361 1507                              u2281 1425  
                            u3241 0746                              u3161 05D5                              u3081 0549  
                            u3401 0964                              u3321 08B4                              u2610 0EF0  
                            u2530 0D5E                              u2450 0C33                              u2370 152F  
                            u2290 144D                              u3250 074D                              u3170 062A  
                            u3090 0558                              u3410 096C                              u3330 092A  
                            u2611 0EEF                              u2531 0D5D                              u2515 0D09  
                            u2451 0C32                              u2195 17FA                              u2371 152E  
                            u2291 144C                              u3251 074C                              u3171 0629  
                            u3091 0557                              u3411 096B                              u3331 0929  
                            u2700 1E42                              u2620 0F1A                              u2540 0DA1  
                            u2460 0C55                              u1900 1BEE                              u2380 154F  
                            u3260 079C                              u3180 0633                              u3500 0A0F  
                            u3420 097A                              u3340 0930                              u2701 1E41  
                            u2621 0F19                              u2605 0EC5                              u2541 0DA0  
                            u2461 0C54                              u1901 1BED                              u2381 154E  
                            u3261 079B                              u3181 0632                              u3501 0A0E  
                            u3421 0979                              u3341 092F                              u2710 1E48  
                            u2630 0F5D                              u2550 0DC8                              u2470 0C5C  
                            u1910 1C02                              u2390 156E                              u3270 07A2  
                            u3190 0669                              u3510 0A21                              u3430 0980  
                            u3350 093C                              u2711 1E47                              u2631 0F5C  
                            u2551 0DC7                              u2535 0D5A                              u2471 0C5B  
                            u1911 1C01                              u2391 156D                              u3271 07A1  
                            u3191 0668                              u3511 0A20                              u3431 097F  
                            u3351 093B                              u2720 1E5E                              u2640 0F84  
                            u2560 0DF2                              u2480 0C74                              u1920 1C13  
                            u3280 07F2                              u2800 0332                              u3600 0B02  
                            u3520 0A33                              u3440 0987                              u3360 0944  
                            u2721 1E5D                              u2641 0F83                              u2625 0F16  
                            u2561 0DF1                              u2545 0D9D                              u2481 0C73  
                            u1921 1C12                              u3281 07F1                              u2801 0331  
                            u3601 0B01                              u3521 0A32                              u3441 0986  
                            u3361 0943                              u2730 1E83                              u2650 0FAE  
                            u2570 0E35                              u2490 0CA8                              u1930 1C1D  
                            u2810 0338                              u3610 0B08                              u3530 0A45  
                            u3450 0994                              u3370 094A                              u3290 089A  
                            u2731 1E82                              u2651 0FAD                              u2635 0F59  
                            u2571 0E34                              u2491 0CA7                              u1931 1C1C  
                            u2811 0337                              u3611 0B07                              u3531 0A44  
                            u3451 0993                              u3371 0949                              u3291 0899  
                            u2740 1F66                              u2660 0FBD                              u2580 0E5C  
                            u1940 000B                              u2900 0394                              u2820 033E  
                            u3620 0B2B                              u3540 0A57                              u3460 099A  
                            u3380 0954                              u2741 1F65                              u2661 0FBC  
                            u2581 0E5B                              u2565 0DEE                              u1941 000A  
                            u2901 0393                              u2821 033D                              u3621 0B2A  
                            u3541 0A56                              u3461 0999                              u3381 0953  
                            u1870 1B8A                              u2670 0FD5                              u2590 0E86  
                            u1950 1A81                              u2750 1CA0                              u2910 03A7  
                            u2830 0345                              u3630 0B51                              u3550 0A6F  
                            u3470 09D9                              u3390 095F                              u1871 1B89  
                            u2671 0FD4                              u2655 0FAA                              u2591 0E85  
                            u2575 0E31                              u1951 1A80                              u2751 1C9F  
                            u2911 03A6                              u2831 0344                              u3631 0B50  
                            u3551 0A6E                              u3471 09D8                              u3391 095E  
                            u1880 1BA8                              u2680 0FDC                              u2760 1CBA  
                            u2920 03BA                              u2840 0353                              u1960 1B1E  
                            u3640 0B77                              u3560 0A73                              u3480 09EB  
                            u2681 0FDB                              u2761 1CB9                              u2921 03B9  
                            u2841 0352                              u1961 1B1D                              u3641 0B76  
                            u3561 0A72                              u3481 09EA                              u1890 1BB0  
                            u2690 0FFE                              u2770 0058                              u2930 03CD  
                            u2850 0359                              u1970 1B36                              u3650 0B9D  
                            u3570 0A77                              u3490 09FD                              u3707 1CF6  
                            u1891 1BAF                              u2691 0FFD                              u2595 0E82  
                            u2771 0057                              u2931 03CC                              u2851 0358  
                            u1971 1B35                              u3651 0B9C                              u3571 0A76  
                            u3491 09FC                              u1980 1CE9                              u2780 0097  
                            u2940 045F                              u2860 0360                              u3660 0BC9  
                            u3580 0AB7                              u3717 1CFF                              u1981 1CE8  
                            u1885 1B9B                              u2781 0096                              u2941 045E  
                            u2861 035F                              u3661 0BC8                              u3581 0AB6  
                            u1990 1CF1                              u1886 1B9C                              u2950 0467  
                            u2870 036D                              u2790 1366                              u3670 0BCD  
                            u3590 0ABD                              u3727 1D18                              u1991 1CF0  
                            u1887 1BA1                              u2951 0466                              u2871 036C  
                            u2791 1365                              u3671 0BCC                              u3591 0ABC  
                            u1888 1BA2                              u2960 04A8                              u2880 037A  
                            u3680 0BD1                              u1889 1BA7                              u2961 04A7  
                            u2881 0379                              u3681 0BD0                              u2970 04AE  
                            u2890 0381                              u2971 04AD                              u2891 0380  
                            u2980 04B5                              _RCIF 0065                              u2981 04B4  
                            u2990 04C3                              u2991 04C2                              u3697 1CDE  
                            _TEMP 0056                              _SPEN 00C7                              _WREN 0C62  
                            _TXEN 04C5                              _TXIF 0064         ??_receive_reply_nodisplay 0072  
                            _main 082C                              _mode 0329                              btemp 007E  
                    lcd_goto@data 007A                              start 0000                 uart_write@channel 0073  
           __size_of_store_eeprom 0039                             ?_main 0070         __size_of_clear_attendance 0256  
                           ?_mode 0070                             _EEADR 010D                             STR_10 1156  
                           STR_11 10CE                             STR_20 1276                             STR_12 1167  
                           STR_21 1210                             STR_13 11EF                             STR_22 12B1  
                           STR_30 1057                             STR_14 1024                             STR_15 1210  
                           STR_31 1178                             STR_23 1134                             STR_16 1189  
                           STR_32 10DF                             STR_40 10BD                             STR_24 10AC  
                           STR_25 124D                             STR_33 1253                             STR_17 11CD  
                           STR_41 1013                             STR_34 1068                             STR_26 10AC  
                           STR_42 10BD                             STR_50 1287                             STR_18 122C  
                           STR_43 1013                             STR_35 1057                             STR_27 124D  
                           STR_19 1219                             STR_51 126B                             STR_60 122C  
                           STR_52 121E                             STR_28 11DE                             STR_44 108A  
                           STR_36 1079                             STR_61 109B                             STR_53 1247  
                           STR_45 109B                             STR_29 1068                             STR_37 1035  
                           STR_62 119A                             STR_54 127F                             STR_38 11BC  
                           STR_46 119A                             STR_63 109B                             STR_47 109B  
                           STR_55 125F                             STR_39 1145                             STR_64 11AB  
                           STR_56 12AB                             STR_48 11AB                             STR_57 11CD  
                           STR_49 129E                             STR_65 1200                             STR_58 122C  
                           STR_66 1000                             STR_59 11CD                             STR_67 11DE  
                           STR_68 1068                             STR_69 128F                             _CARRY 0018  
                           _RCREG 001A                             _SPBRG 0099                             _PORTB 0006  
                           _TRISA 0085                             _TRISB 0086                             _TRISC 0087  
                           _TXREG 0019                   ?_display_status 0020                   __end_of_lcd_clr 1AB0  
                           _admin 02C9                             _delay 1B82                             _error 02CB  
               upload_GUI@address 0078                             pclath 000A                             status 0003  
                           wtemp0 007E                    upload_HT@F1243 00A0                      _store_eeprom 1BE6  
                    __end_of_main 0BF2                      __end_of_mode 0800                  ?_view_attendance 0070  
                  upload_HT@count 0049   __end_of_receive_reply_nodisplay 1B38                            ??_main 004D  
                          ??_mode 004A                       ?_CheckAdmin 0070                            ?_delay 0070  
                    ?_send_config 0070                            _ADCON1 009F                            _EEDATA 010C  
                          _EECON1 018C                            _EECON2 018D                      ?_send_string 0079  
                      _ResetAdmin 12E3                            _TRISC0 0438                            _TRISC1 0439  
                          _AddNew 000F                  __end_of_lcd_goto 1AF8                            _allign 1AF8  
                 _init_attendance 1D23                         ??_lcd_clr 0079                  __end_of_send_cmd 1C58  
                  __pcstackCOMMON 0070                      __pidataBANK0 12B7                      __pidataBANK1 12BB  
             __size_of_CheckAdmin 003F                     __end_of_delay 1BB2                   upload_GUI@count 0079  
                _clear_attendance 00D3                   get_eeprom@value 0072                           ??_delay 0074  
                  receive_reply@i 0024                        __pbssBANK0 004E                get_eeprom@location 0071  
                     ?_ResetAdmin 0070                           ?_AddNew 0070           __end_of_init_attendance 1E34  
                      __pmaintext 082C                      _day_location 0057                           ?_allign 0070  
              __size_of_send_char 0025            __size_of_receive_reply 0040                  ??_display_status 007D  
              __size_of_uart_init 0016                __size_of_uart_send 000C                        _get_eeprom 1AB0  
                     send_cmd@CHK 0075                       send_cmd@CMD 0076                        _array_resp 004E  
                       ?_lcd_goto 0070                __size_of_upload_HT 040E              __size_of_send_config 0025  
                 __size_of_AddNew 00C4              __size_of_send_string 0034                         ?_send_cmd 0071  
            upload_HT@array_title 0020                   __size_of_allign 001F                        _dummy_byte 0058  
                         _lcd_clr 1A9C               __size_of_ResetAdmin 0085                        _mode_enter 02CE  
                      _mode_count 005D               display_status@data0 0020                      ??_CheckAdmin 0025  
        ?_receive_reply_nodisplay 0070                        ??_lcd_goto 0079                     _receive_reply 1C97  
            end_of_initialization 0828                 __end_of_send_char 1B5D                     ?_uart_receive 0070  
                         init_ram 1A8D                  uart_init@channel 0070                 __end_of_uart_init 1ADB  
               __end_of_uart_send 000F                        ??_send_cmd 0074                  ?_init_attendance 0070  
              __end_of_CheckAdmin 1C97                      __pstringtext 1000                  store_eeprom@data 0072  
                   send_char@data 0078                 __end_of_upload_HT 1000                        _uart_write 1CD7  
        __size_of_view_attendance 0247                       ?_get_eeprom 0070                       uart_write@i 0074  
                  ?_receive_reply 0070              uart_receive@rec_data 0071                    ??_uart_receive 0070  
                      _upload_GUI 15AF          __end_of_clear_attendance 0329                    __end_of_AddNew 00D3  
                   _export_select 02CC                    __end_of_allign 1B17                     __pbitbssBANK0 02C8  
             start_initialization 0801                  upload_HT@address 0048                      ??_ResetAdmin 0028  
                        ??_AddNew 0025               __size_of_get_eeprom 0015                          ??_allign 0075  
                     __pdataBANK0 005A                       __pdataBANK1 00A0                       ?_uart_write 0070  
              __end_of_ResetAdmin 1368                     __pcstackBANK0 0020                   ??_receive_reply 0022  
               ??_view_attendance 007D                 __size_of_lcd_goto 001D                       ?_upload_GUI 0070  
                  _usertype_enter 02CF              store_eeprom@location 0070                         _day_enter 02CA  
                       _day_count 005B                     ?_store_eeprom 0070                 __size_of_send_cmd 0039  
                       __ptext531 12E3                         __ptext540 0003                         __ptext532 1B17  
                       __ptext541 1A7A                         __ptext533 1AC5                         __ptext550 1ADB  
                       __ptext542 1368                         __ptext534 1D23                         __ptext551 1B5D  
                       __ptext543 00D3                         __ptext535 0329                         __ptext552 1BB2  
                       __ptext544 1BE6                         __ptext536 1C58                         __ptext553 1B38  
                       __ptext545 15AF                         __ptext537 000F                         __ptext554 1B82  
                       __ptext546 0BF2                         __ptext538 1C1F                         __ptext555 1AF8  
                       __ptext547 1AB0                         __ptext539 1C97                         __ptext556 1CD7  
                       __ptext548 1E34                         __ptext557 0000                         __ptext549 1A9C  
                      send_cmd@P1 0071                        send_cmd@P2 0072                        send_cmd@P3 0073  
                       __pstrings 1800              __end_of_uart_receive 1A89                          ?_lcd_clr 0070  
                   ??_send_config 0078                    __size_of_delay 0030                         delay@data 0070  
                   ??_send_string 007B                display_status@data 0021                  view_attendance@x 0020  
              display_status@type 007D               __size_of_uart_write 004C                         _send_char 1B38  
                  ??_store_eeprom 0071  __size_of_receive_reply_nodisplay 0021                         _uart_init 1AC5  
                       _uart_send 0003                    _location_enter 02CD                        AddNew@data 0027  
                     __stringbase 1812               __size_of_upload_GUI 0251                         _upload_HT 0BF2  
                    ??_get_eeprom 0070                      allign@Allign 0076           __size_of_display_status 01CC  
             __end_of_send_config 1B82                 ?_clear_attendance 0070                        ?_send_char 0070  
                    send_string@i 007C                ??_clear_attendance 0073                      send_string@s 0079  
             __end_of_send_string 1BE6                         init_fetch 1A89                __end_of_get_eeprom 1AC5  
                      ?_uart_init 0070                        ?_uart_send 0070          __size_of_init_attendance 0111  
                __size_of_lcd_clr 0014                        ?_upload_HT 0070          receive_reply_nodisplay@i 0073  
                        _lcd_goto 1ADB                     __size_of_main 03C6                     __size_of_mode 04D7  
                        _location 005C                          _send_cmd 1C1F             __size_of_uart_receive 000F  
                    ??_uart_write 0071                   _view_attendance 1368                          mode@data 004C  
            __end_of_store_eeprom 1C1F                       _send_config 1B5D                       _send_string 1BB2  
                    ??_upload_GUI 0075                      _uart_receive 1A7A                       ??_send_char 0078  
              __end_of_uart_write 1D23           _receive_reply_nodisplay 1B17                         stringcode 180A  
                     ??_uart_init 0070                       ??_uart_send 0070                        _GUIcontrol 02C8  
                   uart_send@data 0070                       ??_upload_HT 0077                __end_of_upload_GUI 1800  
                        stringtab 1800                 ??_init_attendance 0073                    _display_status 1E34  
           __end_of_receive_reply 1CD7  
